SF:/workspaces/code-guardian/crates/cli/src/advanced_handlers.rs
FN:280,_RNCNCNCNCNvNtCsgJXiKT19grP_17code_guardian_cli17advanced_handlers18handle_distributed0000Bb_
FN:279,_RNCNCNCNvNtCsgJXiKT19grP_17code_guardian_cli17advanced_handlers18handle_distributed000B9_
FN:278,_RNCNCNvNtCsgJXiKT19grP_17code_guardian_cli17advanced_handlers18handle_distributed00B7_
FN:199,_RNCNvNtCsgJXiKT19grP_17code_guardian_cli17advanced_handlers18handle_distributed0B5_
FN:166,_RNCNvNtCsgJXiKT19grP_17code_guardian_cli17advanced_handlers18handle_incremental0B5_
FN:167,_RNCNvNtCsgJXiKT19grP_17code_guardian_cli17advanced_handlers18handle_incrementals_0B5_
FN:199,_RNvNtCsgJXiKT19grP_17code_guardian_cli17advanced_handlers18handle_distributed
FN:100,_RNvNtCsgJXiKT19grP_17code_guardian_cli17advanced_handlers18handle_incremental
FN:7,_RNvNtCsgJXiKT19grP_17code_guardian_cli17advanced_handlers23handle_custom_detectors
FN:280,_RNCNCNCNCNvNtCsbqVo1DIGE6C_17code_guardian_cli17advanced_handlers18handle_distributed0000Csfep3jFmpOzf_23advanced_handlers_tests
FN:279,_RNCNCNCNvNtCsbqVo1DIGE6C_17code_guardian_cli17advanced_handlers18handle_distributed000Csfep3jFmpOzf_23advanced_handlers_tests
FN:278,_RNCNCNvNtCsbqVo1DIGE6C_17code_guardian_cli17advanced_handlers18handle_distributed00Csfep3jFmpOzf_23advanced_handlers_tests
FN:199,_RNCNvNtCsbqVo1DIGE6C_17code_guardian_cli17advanced_handlers18handle_distributed0Csfep3jFmpOzf_23advanced_handlers_tests
FN:280,_RNCNCNCNCNvNtCsbqVo1DIGE6C_17code_guardian_cli17advanced_handlers18handle_distributed0000Bb_
FN:279,_RNCNCNCNvNtCsbqVo1DIGE6C_17code_guardian_cli17advanced_handlers18handle_distributed000B9_
FN:278,_RNCNCNvNtCsbqVo1DIGE6C_17code_guardian_cli17advanced_handlers18handle_distributed00B7_
FN:199,_RNCNvNtCsbqVo1DIGE6C_17code_guardian_cli17advanced_handlers18handle_distributed0B5_
FN:199,_RNvNtCsbqVo1DIGE6C_17code_guardian_cli17advanced_handlers18handle_distributed
FN:100,_RNvNtCsbqVo1DIGE6C_17code_guardian_cli17advanced_handlers18handle_incremental
FN:7,_RNvNtCsbqVo1DIGE6C_17code_guardian_cli17advanced_handlers23handle_custom_detectors
FN:166,_RNCNvNtCsbqVo1DIGE6C_17code_guardian_cli17advanced_handlers18handle_incremental0B5_
FN:167,_RNCNvNtCsbqVo1DIGE6C_17code_guardian_cli17advanced_handlers18handle_incrementals_0B5_
FN:280,_RNCNCNCNCNvNtCsb8rEs8gTL6L_17code_guardian_cli17advanced_handlers18handle_distributed0000Bb_
FN:279,_RNCNCNCNvNtCsb8rEs8gTL6L_17code_guardian_cli17advanced_handlers18handle_distributed000B9_
FN:278,_RNCNCNvNtCsb8rEs8gTL6L_17code_guardian_cli17advanced_handlers18handle_distributed00B7_
FN:199,_RNCNvNtCsb8rEs8gTL6L_17code_guardian_cli17advanced_handlers18handle_distributed0B5_
FN:166,_RNCNvNtCsb8rEs8gTL6L_17code_guardian_cli17advanced_handlers18handle_incremental0B5_
FN:167,_RNCNvNtCsb8rEs8gTL6L_17code_guardian_cli17advanced_handlers18handle_incrementals_0B5_
FN:199,_RNvNtCsb8rEs8gTL6L_17code_guardian_cli17advanced_handlers18handle_distributed
FN:100,_RNvNtCsb8rEs8gTL6L_17code_guardian_cli17advanced_handlers18handle_incremental
FN:7,_RNvNtCsb8rEs8gTL6L_17code_guardian_cli17advanced_handlers23handle_custom_detectors
FN:280,_RNCNCNCNCNvNtCs69D8HmKEvzb_17code_guardian_cli17advanced_handlers18handle_distributed0000Bb_
FN:279,_RNCNCNCNvNtCs69D8HmKEvzb_17code_guardian_cli17advanced_handlers18handle_distributed000B9_
FN:278,_RNCNCNvNtCs69D8HmKEvzb_17code_guardian_cli17advanced_handlers18handle_distributed00B7_
FN:199,_RNCNvNtCs69D8HmKEvzb_17code_guardian_cli17advanced_handlers18handle_distributed0B5_
FN:166,_RNCNvNtCs69D8HmKEvzb_17code_guardian_cli17advanced_handlers18handle_incremental0B5_
FN:167,_RNCNvNtCs69D8HmKEvzb_17code_guardian_cli17advanced_handlers18handle_incrementals_0B5_
FN:199,_RNvNtCs69D8HmKEvzb_17code_guardian_cli17advanced_handlers18handle_distributed
FN:100,_RNvNtCs69D8HmKEvzb_17code_guardian_cli17advanced_handlers18handle_incremental
FN:7,_RNvNtCs69D8HmKEvzb_17code_guardian_cli17advanced_handlers23handle_custom_detectors
FNDA:2,_RNCNCNCNCNvNtCsgJXiKT19grP_17code_guardian_cli17advanced_handlers18handle_distributed0000Bb_
FNDA:2,_RNCNCNCNvNtCsgJXiKT19grP_17code_guardian_cli17advanced_handlers18handle_distributed000B9_
FNDA:2,_RNCNCNvNtCsgJXiKT19grP_17code_guardian_cli17advanced_handlers18handle_distributed00B7_
FNDA:2,_RNCNvNtCsgJXiKT19grP_17code_guardian_cli17advanced_handlers18handle_distributed0B5_
FNDA:0,_RNCNvNtCsgJXiKT19grP_17code_guardian_cli17advanced_handlers18handle_incremental0B5_
FNDA:0,_RNCNvNtCsgJXiKT19grP_17code_guardian_cli17advanced_handlers18handle_incrementals_0B5_
FNDA:2,_RNvNtCsgJXiKT19grP_17code_guardian_cli17advanced_handlers18handle_distributed
FNDA:2,_RNvNtCsgJXiKT19grP_17code_guardian_cli17advanced_handlers18handle_incremental
FNDA:5,_RNvNtCsgJXiKT19grP_17code_guardian_cli17advanced_handlers23handle_custom_detectors
FNDA:4,_RNCNCNCNCNvNtCsbqVo1DIGE6C_17code_guardian_cli17advanced_handlers18handle_distributed0000Csfep3jFmpOzf_23advanced_handlers_tests
FNDA:4,_RNCNCNCNvNtCsbqVo1DIGE6C_17code_guardian_cli17advanced_handlers18handle_distributed000Csfep3jFmpOzf_23advanced_handlers_tests
FNDA:4,_RNCNCNvNtCsbqVo1DIGE6C_17code_guardian_cli17advanced_handlers18handle_distributed00Csfep3jFmpOzf_23advanced_handlers_tests
FNDA:6,_RNCNvNtCsbqVo1DIGE6C_17code_guardian_cli17advanced_handlers18handle_distributed0Csfep3jFmpOzf_23advanced_handlers_tests
FNDA:0,_RNCNCNCNCNvNtCsbqVo1DIGE6C_17code_guardian_cli17advanced_handlers18handle_distributed0000Bb_
FNDA:0,_RNCNCNCNvNtCsbqVo1DIGE6C_17code_guardian_cli17advanced_handlers18handle_distributed000B9_
FNDA:0,_RNCNCNvNtCsbqVo1DIGE6C_17code_guardian_cli17advanced_handlers18handle_distributed00B7_
FNDA:0,_RNCNvNtCsbqVo1DIGE6C_17code_guardian_cli17advanced_handlers18handle_distributed0B5_
FNDA:6,_RNvNtCsbqVo1DIGE6C_17code_guardian_cli17advanced_handlers18handle_distributed
FNDA:6,_RNvNtCsbqVo1DIGE6C_17code_guardian_cli17advanced_handlers18handle_incremental
FNDA:5,_RNvNtCsbqVo1DIGE6C_17code_guardian_cli17advanced_handlers23handle_custom_detectors
FNDA:0,_RNCNvNtCsbqVo1DIGE6C_17code_guardian_cli17advanced_handlers18handle_incremental0B5_
FNDA:0,_RNCNvNtCsbqVo1DIGE6C_17code_guardian_cli17advanced_handlers18handle_incrementals_0B5_
FNDA:0,_RNCNCNCNCNvNtCsb8rEs8gTL6L_17code_guardian_cli17advanced_handlers18handle_distributed0000Bb_
FNDA:0,_RNCNCNCNvNtCsb8rEs8gTL6L_17code_guardian_cli17advanced_handlers18handle_distributed000B9_
FNDA:0,_RNCNCNvNtCsb8rEs8gTL6L_17code_guardian_cli17advanced_handlers18handle_distributed00B7_
FNDA:0,_RNCNvNtCsb8rEs8gTL6L_17code_guardian_cli17advanced_handlers18handle_distributed0B5_
FNDA:0,_RNCNvNtCsb8rEs8gTL6L_17code_guardian_cli17advanced_handlers18handle_incremental0B5_
FNDA:0,_RNCNvNtCsb8rEs8gTL6L_17code_guardian_cli17advanced_handlers18handle_incrementals_0B5_
FNDA:0,_RNvNtCsb8rEs8gTL6L_17code_guardian_cli17advanced_handlers18handle_distributed
FNDA:0,_RNvNtCsb8rEs8gTL6L_17code_guardian_cli17advanced_handlers18handle_incremental
FNDA:0,_RNvNtCsb8rEs8gTL6L_17code_guardian_cli17advanced_handlers23handle_custom_detectors
FNDA:0,_RNCNCNCNCNvNtCs69D8HmKEvzb_17code_guardian_cli17advanced_handlers18handle_distributed0000Bb_
FNDA:0,_RNCNCNCNvNtCs69D8HmKEvzb_17code_guardian_cli17advanced_handlers18handle_distributed000B9_
FNDA:0,_RNCNCNvNtCs69D8HmKEvzb_17code_guardian_cli17advanced_handlers18handle_distributed00B7_
FNDA:0,_RNCNvNtCs69D8HmKEvzb_17code_guardian_cli17advanced_handlers18handle_distributed0B5_
FNDA:0,_RNCNvNtCs69D8HmKEvzb_17code_guardian_cli17advanced_handlers18handle_incremental0B5_
FNDA:0,_RNCNvNtCs69D8HmKEvzb_17code_guardian_cli17advanced_handlers18handle_incrementals_0B5_
FNDA:0,_RNvNtCs69D8HmKEvzb_17code_guardian_cli17advanced_handlers18handle_distributed
FNDA:0,_RNvNtCs69D8HmKEvzb_17code_guardian_cli17advanced_handlers18handle_incremental
FNDA:0,_RNvNtCs69D8HmKEvzb_17code_guardian_cli17advanced_handlers23handle_custom_detectors
FNF:9
FNH:7
DA:7,10
DA:8,10
DA:10,1
DA:11,1
DA:13,1
DA:14,1
DA:15,1
DA:16,0
DA:18,0
DA:19,0
DA:20,0
DA:21,0
DA:22,0
DA:23,0
DA:24,0
DA:25,0
DA:26,0
DA:27,0
DA:31,4
DA:32,4
DA:33,4
DA:34,4
DA:35,4
DA:36,4
DA:37,4
DA:41,2
DA:42,2
DA:43,2
DA:45,1
DA:46,1
DA:47,1
DA:48,1
DA:49,1
DA:52,4
DA:53,3
DA:54,3
DA:56,3
DA:57,3
DA:59,0
DA:66,3
DA:67,3
DA:69,3
DA:70,3
DA:72,1
DA:73,1
DA:75,1
DA:77,1
DA:78,4
DA:79,3
DA:80,3
DA:81,0
DA:82,0
DA:83,0
DA:84,0
DA:85,0
DA:86,3
DA:89,1
DA:90,1
DA:91,1
DA:92,0
DA:93,0
DA:97,6
DA:98,10
DA:100,8
DA:101,8
DA:103,8
DA:105,3
DA:106,3
DA:107,3
DA:108,3
DA:109,0
DA:112,0
DA:113,0
DA:114,0
DA:115,0
DA:116,0
DA:120,0
DA:121,0
DA:122,0
DA:124,0
DA:125,0
DA:127,0
DA:128,0
DA:129,0
DA:130,0
DA:131,0
DA:132,0
DA:133,0
DA:134,0
DA:138,3
DA:139,0
DA:140,0
DA:141,0
DA:142,3
DA:143,3
DA:144,3
DA:148,2
DA:149,2
DA:150,2
DA:151,0
DA:153,0
DA:154,0
DA:156,0
DA:157,0
DA:158,0
DA:160,0
DA:161,0
DA:162,0
DA:164,0
DA:165,0
DA:166,0
DA:167,0
DA:169,0
DA:170,0
DA:171,0
DA:180,0
DA:181,0
DA:182,0
DA:184,0
DA:185,0
DA:186,0
DA:187,0
DA:188,0
DA:189,0
DA:190,0
DA:191,0
DA:192,0
DA:196,3
DA:197,8
DA:199,8
DA:200,8
DA:201,4
DA:202,4
DA:203,4
DA:207,4
DA:209,9
DA:210,9
DA:211,9
DA:212,9
DA:213,9
DA:214,9
DA:215,9
DA:216,9
DA:217,9
DA:218,9
DA:219,9
DA:220,9
DA:221,9
DA:222,9
DA:223,9
DA:224,9
DA:225,9
DA:227,4
DA:228,4
DA:229,4
DA:230,4
DA:231,4
DA:232,4
DA:235,4
DA:236,4
DA:237,4
DA:243,4
DA:244,4
DA:245,4
DA:247,4
DA:248,4
DA:250,4
DA:253,6
DA:254,6
DA:255,6
DA:256,6
DA:257,6
DA:258,6
DA:259,6
DA:260,6
DA:261,6
DA:262,6
DA:263,6
DA:266,4
DA:267,4
DA:268,4
DA:270,4
DA:271,4
DA:272,4
DA:276,4
DA:277,4
DA:278,6
DA:279,6
DA:280,6
DA:281,2
DA:283,4
DA:285,6
DA:286,6
DA:287,4
DA:289,4
DA:290,4
DA:292,4
DA:294,4
DA:295,4
DA:296,4
DA:297,4
DA:298,4
DA:301,4
DA:302,2
DA:303,2
DA:304,2
DA:305,2
DA:306,2
DA:307,2
DA:308,2
DA:309,2
DA:310,2
DA:311,2
DA:313,2
DA:314,0
DA:315,2
DA:316,2
DA:320,8
DA:321,8
BRF:0
BRH:0
LF:225
LH:148
end_of_record
SF:/workspaces/code-guardian/crates/cli/src/benchmark.rs
FN:62,_RNCNvNtCsgJXiKT19grP_17code_guardian_cli9benchmark13run_benchmark0B5_
FN:9,_RNvNtCsgJXiKT19grP_17code_guardian_cli9benchmark13run_benchmark
FN:124,_RNvNtCsgJXiKT19grP_17code_guardian_cli9benchmark22quick_performance_test
FN:62,_RNCNvNtCsbqVo1DIGE6C_17code_guardian_cli9benchmark13run_benchmark0B5_
FN:9,_RNvNtCsbqVo1DIGE6C_17code_guardian_cli9benchmark13run_benchmark
FN:124,_RNvNtCsbqVo1DIGE6C_17code_guardian_cli9benchmark22quick_performance_test
FN:62,_RNCNvNtCsb8rEs8gTL6L_17code_guardian_cli9benchmark13run_benchmark0B5_
FN:9,_RNvNtCsb8rEs8gTL6L_17code_guardian_cli9benchmark13run_benchmark
FN:124,_RNvNtCsb8rEs8gTL6L_17code_guardian_cli9benchmark22quick_performance_test
FN:62,_RNCNvNtCs69D8HmKEvzb_17code_guardian_cli9benchmark13run_benchmark0B5_
FN:9,_RNvNtCs69D8HmKEvzb_17code_guardian_cli9benchmark13run_benchmark
FN:124,_RNvNtCs69D8HmKEvzb_17code_guardian_cli9benchmark22quick_performance_test
FNDA:0,_RNCNvNtCsgJXiKT19grP_17code_guardian_cli9benchmark13run_benchmark0B5_
FNDA:0,_RNvNtCsgJXiKT19grP_17code_guardian_cli9benchmark13run_benchmark
FNDA:1,_RNvNtCsgJXiKT19grP_17code_guardian_cli9benchmark22quick_performance_test
FNDA:0,_RNCNvNtCsbqVo1DIGE6C_17code_guardian_cli9benchmark13run_benchmark0B5_
FNDA:1,_RNvNtCsbqVo1DIGE6C_17code_guardian_cli9benchmark13run_benchmark
FNDA:0,_RNvNtCsbqVo1DIGE6C_17code_guardian_cli9benchmark22quick_performance_test
FNDA:0,_RNCNvNtCsb8rEs8gTL6L_17code_guardian_cli9benchmark13run_benchmark0B5_
FNDA:0,_RNvNtCsb8rEs8gTL6L_17code_guardian_cli9benchmark13run_benchmark
FNDA:0,_RNvNtCsb8rEs8gTL6L_17code_guardian_cli9benchmark22quick_performance_test
FNDA:0,_RNCNvNtCs69D8HmKEvzb_17code_guardian_cli9benchmark13run_benchmark0B5_
FNDA:0,_RNvNtCs69D8HmKEvzb_17code_guardian_cli9benchmark13run_benchmark
FNDA:0,_RNvNtCs69D8HmKEvzb_17code_guardian_cli9benchmark22quick_performance_test
FNF:3
FNH:2
DA:9,1
DA:10,1
DA:11,1
DA:13,1
DA:14,1
DA:17,1
DA:18,1
DA:19,1
DA:20,1
DA:21,1
DA:22,1
DA:23,1
DA:24,1
DA:27,1
DA:28,1
DA:29,1
DA:30,1
DA:31,1
DA:32,1
DA:33,1
DA:34,1
DA:37,1
DA:38,1
DA:39,1
DA:40,1
DA:41,1
DA:42,1
DA:43,1
DA:44,1
DA:45,1
DA:46,1
DA:49,1
DA:50,1
DA:53,1
DA:54,1
DA:55,1
DA:58,1
DA:59,1
DA:60,1
DA:61,1
DA:62,1
DA:63,0
DA:64,0
DA:65,1
DA:66,0
DA:67,0
DA:68,0
DA:69,0
DA:70,0
DA:73,0
DA:74,0
DA:77,0
DA:80,0
DA:81,0
DA:83,0
DA:84,0
DA:85,0
DA:86,0
DA:87,0
DA:88,0
DA:89,0
DA:90,0
DA:92,0
DA:93,0
DA:94,0
DA:95,0
DA:96,0
DA:97,0
DA:99,0
DA:100,0
DA:101,0
DA:102,0
DA:103,0
DA:104,0
DA:106,0
DA:107,0
DA:108,0
DA:109,0
DA:110,0
DA:111,0
DA:112,0
DA:113,0
DA:114,0
DA:115,0
DA:117,0
DA:118,0
DA:120,0
DA:121,1
DA:124,1
DA:125,1
DA:126,1
DA:128,1
DA:129,1
DA:130,1
DA:131,1
DA:133,1
DA:134,1
DA:135,1
DA:136,1
DA:137,1
DA:138,1
DA:139,1
DA:140,1
DA:142,1
DA:143,1
DA:144,1
DA:147,1
DA:148,0
DA:149,0
DA:150,0
DA:151,1
DA:153,1
DA:154,1
BRF:0
BRH:0
LF:115
LH:65
end_of_record
SF:/workspaces/code-guardian/crates/cli/src/command_handlers.rs
FN:64,_RNvNtCsgJXiKT19grP_17code_guardian_cli16command_handlers10handle_git
FN:15,_RNvNtCsgJXiKT19grP_17code_guardian_cli16command_handlers14handle_history
FN:48,_RNvNtCsgJXiKT19grP_17code_guardian_cli16command_handlers16handle_benchmark
FN:40,_RNvNtCsgJXiKT19grP_17code_guardian_cli16command_handlers17handle_completion
FN:49,_RNCNvNtCsgJXiKT19grP_17code_guardian_cli16command_handlers16handle_benchmark0B5_
FN:49,_RNCNvNtCsbqVo1DIGE6C_17code_guardian_cli16command_handlers16handle_benchmark0B5_
FN:64,_RNvNtCsbqVo1DIGE6C_17code_guardian_cli16command_handlers10handle_git
FN:15,_RNvNtCsbqVo1DIGE6C_17code_guardian_cli16command_handlers14handle_history
FN:48,_RNvNtCsbqVo1DIGE6C_17code_guardian_cli16command_handlers16handle_benchmark
FN:40,_RNvNtCsbqVo1DIGE6C_17code_guardian_cli16command_handlers17handle_completion
FN:49,_RNCNvNtCsb8rEs8gTL6L_17code_guardian_cli16command_handlers16handle_benchmark0B5_
FN:64,_RNvNtCsb8rEs8gTL6L_17code_guardian_cli16command_handlers10handle_git
FN:15,_RNvNtCsb8rEs8gTL6L_17code_guardian_cli16command_handlers14handle_history
FN:48,_RNvNtCsb8rEs8gTL6L_17code_guardian_cli16command_handlers16handle_benchmark
FN:40,_RNvNtCsb8rEs8gTL6L_17code_guardian_cli16command_handlers17handle_completion
FN:49,_RNCNvNtCs69D8HmKEvzb_17code_guardian_cli16command_handlers16handle_benchmark0B5_
FN:64,_RNvNtCs69D8HmKEvzb_17code_guardian_cli16command_handlers10handle_git
FN:15,_RNvNtCs69D8HmKEvzb_17code_guardian_cli16command_handlers14handle_history
FN:48,_RNvNtCs69D8HmKEvzb_17code_guardian_cli16command_handlers16handle_benchmark
FN:40,_RNvNtCs69D8HmKEvzb_17code_guardian_cli16command_handlers17handle_completion
FNDA:0,_RNvNtCsgJXiKT19grP_17code_guardian_cli16command_handlers10handle_git
FNDA:1,_RNvNtCsgJXiKT19grP_17code_guardian_cli16command_handlers14handle_history
FNDA:1,_RNvNtCsgJXiKT19grP_17code_guardian_cli16command_handlers16handle_benchmark
FNDA:1,_RNvNtCsgJXiKT19grP_17code_guardian_cli16command_handlers17handle_completion
FNDA:0,_RNCNvNtCsgJXiKT19grP_17code_guardian_cli16command_handlers16handle_benchmark0B5_
FNDA:0,_RNCNvNtCsbqVo1DIGE6C_17code_guardian_cli16command_handlers16handle_benchmark0B5_
FNDA:0,_RNvNtCsbqVo1DIGE6C_17code_guardian_cli16command_handlers10handle_git
FNDA:1,_RNvNtCsbqVo1DIGE6C_17code_guardian_cli16command_handlers14handle_history
FNDA:1,_RNvNtCsbqVo1DIGE6C_17code_guardian_cli16command_handlers16handle_benchmark
FNDA:0,_RNvNtCsbqVo1DIGE6C_17code_guardian_cli16command_handlers17handle_completion
FNDA:0,_RNCNvNtCsb8rEs8gTL6L_17code_guardian_cli16command_handlers16handle_benchmark0B5_
FNDA:0,_RNvNtCsb8rEs8gTL6L_17code_guardian_cli16command_handlers10handle_git
FNDA:0,_RNvNtCsb8rEs8gTL6L_17code_guardian_cli16command_handlers14handle_history
FNDA:0,_RNvNtCsb8rEs8gTL6L_17code_guardian_cli16command_handlers16handle_benchmark
FNDA:0,_RNvNtCsb8rEs8gTL6L_17code_guardian_cli16command_handlers17handle_completion
FNDA:0,_RNCNvNtCs69D8HmKEvzb_17code_guardian_cli16command_handlers16handle_benchmark0B5_
FNDA:0,_RNvNtCs69D8HmKEvzb_17code_guardian_cli16command_handlers10handle_git
FNDA:0,_RNvNtCs69D8HmKEvzb_17code_guardian_cli16command_handlers14handle_history
FNDA:0,_RNvNtCs69D8HmKEvzb_17code_guardian_cli16command_handlers16handle_benchmark
FNDA:0,_RNvNtCs69D8HmKEvzb_17code_guardian_cli16command_handlers17handle_completion
FNF:5
FNH:3
DA:15,2
DA:16,2
DA:17,2
DA:18,1
DA:20,1
DA:21,0
DA:22,0
DA:23,1
DA:25,1
DA:26,2
DA:27,1
DA:28,1
DA:29,1
DA:30,1
DA:31,1
DA:32,1
DA:33,1
DA:34,1
DA:35,1
DA:36,1
DA:37,2
DA:40,1
DA:41,1
DA:42,1
DA:43,1
DA:44,1
DA:45,1
DA:48,2
DA:49,2
DA:51,2
DA:52,1
DA:54,1
DA:56,2
DA:64,0
DA:65,0
DA:66,0
DA:67,0
DA:69,0
DA:70,0
DA:71,0
DA:72,0
DA:74,0
DA:75,0
DA:77,0
DA:78,0
DA:79,0
DA:81,0
DA:82,0
DA:84,0
DA:85,0
DA:86,0
DA:87,0
DA:89,0
DA:90,0
DA:91,0
DA:93,0
DA:94,0
DA:96,0
DA:97,0
DA:98,0
DA:99,0
DA:101,0
DA:102,0
DA:104,0
DA:105,0
DA:106,0
DA:107,0
DA:108,0
DA:109,0
DA:110,0
DA:112,0
DA:115,0
BRF:0
BRH:0
LF:73
LH:30
end_of_record
SF:/workspaces/code-guardian/crates/cli/src/comparison_handlers.rs
FN:25,_RNvNtCsgJXiKT19grP_17code_guardian_cli19comparison_handlers13compare_scans
FN:9,_RNvNtCsgJXiKT19grP_17code_guardian_cli19comparison_handlers14handle_compare
FN:31,_RNCNvNtCsgJXiKT19grP_17code_guardian_cli19comparison_handlers13compare_scans0B5_
FN:36,_RNCNvNtCsgJXiKT19grP_17code_guardian_cli19comparison_handlers13compare_scanss_0B5_
FN:25,_RNvNtCsbqVo1DIGE6C_17code_guardian_cli19comparison_handlers13compare_scans
FN:9,_RNvNtCsbqVo1DIGE6C_17code_guardian_cli19comparison_handlers14handle_compare
FN:31,_RNCNvNtCsbqVo1DIGE6C_17code_guardian_cli19comparison_handlers13compare_scans0B5_
FN:36,_RNCNvNtCsbqVo1DIGE6C_17code_guardian_cli19comparison_handlers13compare_scanss_0B5_
FN:31,_RNCNvNtCsb8rEs8gTL6L_17code_guardian_cli19comparison_handlers13compare_scans0B5_
FN:36,_RNCNvNtCsb8rEs8gTL6L_17code_guardian_cli19comparison_handlers13compare_scanss_0B5_
FN:25,_RNvNtCsb8rEs8gTL6L_17code_guardian_cli19comparison_handlers13compare_scans
FN:9,_RNvNtCsb8rEs8gTL6L_17code_guardian_cli19comparison_handlers14handle_compare
FN:31,_RNCNvNtCs69D8HmKEvzb_17code_guardian_cli19comparison_handlers13compare_scans0B5_
FN:36,_RNCNvNtCs69D8HmKEvzb_17code_guardian_cli19comparison_handlers13compare_scanss_0B5_
FN:25,_RNvNtCs69D8HmKEvzb_17code_guardian_cli19comparison_handlers13compare_scans
FN:9,_RNvNtCs69D8HmKEvzb_17code_guardian_cli19comparison_handlers14handle_compare
FNDA:2,_RNvNtCsgJXiKT19grP_17code_guardian_cli19comparison_handlers13compare_scans
FNDA:2,_RNvNtCsgJXiKT19grP_17code_guardian_cli19comparison_handlers14handle_compare
FNDA:2,_RNCNvNtCsgJXiKT19grP_17code_guardian_cli19comparison_handlers13compare_scans0B5_
FNDA:4,_RNCNvNtCsgJXiKT19grP_17code_guardian_cli19comparison_handlers13compare_scanss_0B5_
FNDA:0,_RNvNtCsbqVo1DIGE6C_17code_guardian_cli19comparison_handlers13compare_scans
FNDA:0,_RNvNtCsbqVo1DIGE6C_17code_guardian_cli19comparison_handlers14handle_compare
FNDA:0,_RNCNvNtCsbqVo1DIGE6C_17code_guardian_cli19comparison_handlers13compare_scans0B5_
FNDA:0,_RNCNvNtCsbqVo1DIGE6C_17code_guardian_cli19comparison_handlers13compare_scanss_0B5_
FNDA:0,_RNCNvNtCsb8rEs8gTL6L_17code_guardian_cli19comparison_handlers13compare_scans0B5_
FNDA:0,_RNCNvNtCsb8rEs8gTL6L_17code_guardian_cli19comparison_handlers13compare_scanss_0B5_
FNDA:0,_RNvNtCsb8rEs8gTL6L_17code_guardian_cli19comparison_handlers13compare_scans
FNDA:0,_RNvNtCsb8rEs8gTL6L_17code_guardian_cli19comparison_handlers14handle_compare
FNDA:0,_RNCNvNtCs69D8HmKEvzb_17code_guardian_cli19comparison_handlers13compare_scans0B5_
FNDA:0,_RNCNvNtCs69D8HmKEvzb_17code_guardian_cli19comparison_handlers13compare_scanss_0B5_
FNDA:0,_RNvNtCs69D8HmKEvzb_17code_guardian_cli19comparison_handlers13compare_scans
FNDA:0,_RNvNtCs69D8HmKEvzb_17code_guardian_cli19comparison_handlers14handle_compare
FNF:4
FNH:4
DA:9,2
DA:10,2
DA:11,2
DA:12,2
DA:13,2
DA:14,2
DA:15,2
DA:16,2
DA:17,2
DA:18,2
DA:19,2
DA:20,0
DA:22,2
DA:23,2
DA:25,2
DA:28,2
DA:29,2
DA:30,2
DA:31,2
DA:32,2
DA:33,2
DA:34,2
DA:35,2
DA:36,4
DA:37,2
DA:38,2
DA:39,2
BRF:0
BRH:0
LF:29
LH:28
end_of_record
SF:/workspaces/code-guardian/crates/cli/src/git_integration.rs
FN:54,_RNCNvMNtCsgJXiKT19grP_17code_guardian_cli15git_integrationNtB4_14GitIntegration11is_git_repo0B6_
FN:24,_RNCNvMNtCsgJXiKT19grP_17code_guardian_cli15git_integrationNtB4_14GitIntegration16get_staged_files0B6_
FN:26,_RNCNvMNtCsgJXiKT19grP_17code_guardian_cli15git_integrationNtB4_14GitIntegration16get_staged_filess0_0B6_
FN:25,_RNCNvMNtCsgJXiKT19grP_17code_guardian_cli15git_integrationNtB4_14GitIntegration16get_staged_filess_0B6_
FN:182,_RNCNvNtCsgJXiKT19grP_17code_guardian_cli15git_integration14parse_git_diff0B5_
FN:60,_RNvMNtCsgJXiKT19grP_17code_guardian_cli15git_integrationNtB2_14GitIntegration16get_staged_lines
FN:159,_RNvNtCsgJXiKT19grP_17code_guardian_cli15git_integration14parse_git_diff
FN:49,_RNvMNtCsgJXiKT19grP_17code_guardian_cli15git_integrationNtB2_14GitIntegration11is_git_repo
FN:33,_RNvMNtCsgJXiKT19grP_17code_guardian_cli15git_integrationNtB2_14GitIntegration13get_repo_root
FN:10,_RNvMNtCsgJXiKT19grP_17code_guardian_cli15git_integrationNtB2_14GitIntegration16get_staged_files
FN:76,_RNvMNtCsgJXiKT19grP_17code_guardian_cli15git_integrationNtB2_14GitIntegration23install_pre_commit_hook
FN:117,_RNvMNtCsgJXiKT19grP_17code_guardian_cli15git_integrationNtB2_14GitIntegration25uninstall_pre_commit_hook
FN:54,_RNCNvMNtCsbqVo1DIGE6C_17code_guardian_cli15git_integrationNtB4_14GitIntegration11is_git_repo0B6_
FN:24,_RNCNvMNtCsbqVo1DIGE6C_17code_guardian_cli15git_integrationNtB4_14GitIntegration16get_staged_files0B6_
FN:26,_RNCNvMNtCsbqVo1DIGE6C_17code_guardian_cli15git_integrationNtB4_14GitIntegration16get_staged_filess0_0B6_
FN:25,_RNCNvMNtCsbqVo1DIGE6C_17code_guardian_cli15git_integrationNtB4_14GitIntegration16get_staged_filess_0B6_
FN:182,_RNCNvNtCsbqVo1DIGE6C_17code_guardian_cli15git_integration14parse_git_diff0B5_
FN:49,_RNvMNtCsbqVo1DIGE6C_17code_guardian_cli15git_integrationNtB2_14GitIntegration11is_git_repo
FN:33,_RNvMNtCsbqVo1DIGE6C_17code_guardian_cli15git_integrationNtB2_14GitIntegration13get_repo_root
FN:10,_RNvMNtCsbqVo1DIGE6C_17code_guardian_cli15git_integrationNtB2_14GitIntegration16get_staged_files
FN:60,_RNvMNtCsbqVo1DIGE6C_17code_guardian_cli15git_integrationNtB2_14GitIntegration16get_staged_lines
FN:76,_RNvMNtCsbqVo1DIGE6C_17code_guardian_cli15git_integrationNtB2_14GitIntegration23install_pre_commit_hook
FN:117,_RNvMNtCsbqVo1DIGE6C_17code_guardian_cli15git_integrationNtB2_14GitIntegration25uninstall_pre_commit_hook
FN:159,_RNvNtCsbqVo1DIGE6C_17code_guardian_cli15git_integration14parse_git_diff
FN:24,_RNCNvMNtCsb8rEs8gTL6L_17code_guardian_cli15git_integrationNtB4_14GitIntegration16get_staged_files0B6_
FN:26,_RNCNvMNtCsb8rEs8gTL6L_17code_guardian_cli15git_integrationNtB4_14GitIntegration16get_staged_filess0_0B6_
FN:25,_RNCNvMNtCsb8rEs8gTL6L_17code_guardian_cli15git_integrationNtB4_14GitIntegration16get_staged_filess_0B6_
FN:182,_RNCNvNtCsb8rEs8gTL6L_17code_guardian_cli15git_integration14parse_git_diff0B5_
FN:33,_RNvMNtCsb8rEs8gTL6L_17code_guardian_cli15git_integrationNtB2_14GitIntegration13get_repo_root
FN:10,_RNvMNtCsb8rEs8gTL6L_17code_guardian_cli15git_integrationNtB2_14GitIntegration16get_staged_files
FN:60,_RNvMNtCsb8rEs8gTL6L_17code_guardian_cli15git_integrationNtB2_14GitIntegration16get_staged_lines
FN:76,_RNvMNtCsb8rEs8gTL6L_17code_guardian_cli15git_integrationNtB2_14GitIntegration23install_pre_commit_hook
FN:117,_RNvMNtCsb8rEs8gTL6L_17code_guardian_cli15git_integrationNtB2_14GitIntegration25uninstall_pre_commit_hook
FN:159,_RNvNtCsb8rEs8gTL6L_17code_guardian_cli15git_integration14parse_git_diff
FN:49,_RNvMNtCsb8rEs8gTL6L_17code_guardian_cli15git_integrationNtB2_14GitIntegration11is_git_repo
FN:258,_RNvNtNtCsb8rEs8gTL6L_17code_guardian_cli15git_integration5testss_15test_line_range
FN:252,_RNvNtNtCsb8rEs8gTL6L_17code_guardian_cli15git_integration5testss_16test_is_git_repo
FN:233,_RNvNtNtCsb8rEs8gTL6L_17code_guardian_cli15git_integration5testss_26test_git_integration_basic
FN:54,_RNCNvMNtCsb8rEs8gTL6L_17code_guardian_cli15git_integrationNtB4_14GitIntegration11is_git_repo0B6_
FN:49,_RNvMNtCs69D8HmKEvzb_17code_guardian_cli15git_integrationNtB2_14GitIntegration11is_git_repo
FN:24,_RNCNvMNtCs69D8HmKEvzb_17code_guardian_cli15git_integrationNtB4_14GitIntegration16get_staged_files0B6_
FN:26,_RNCNvMNtCs69D8HmKEvzb_17code_guardian_cli15git_integrationNtB4_14GitIntegration16get_staged_filess0_0B6_
FN:25,_RNCNvMNtCs69D8HmKEvzb_17code_guardian_cli15git_integrationNtB4_14GitIntegration16get_staged_filess_0B6_
FN:182,_RNCNvNtCs69D8HmKEvzb_17code_guardian_cli15git_integration14parse_git_diff0B5_
FN:33,_RNvMNtCs69D8HmKEvzb_17code_guardian_cli15git_integrationNtB2_14GitIntegration13get_repo_root
FN:10,_RNvMNtCs69D8HmKEvzb_17code_guardian_cli15git_integrationNtB2_14GitIntegration16get_staged_files
FN:60,_RNvMNtCs69D8HmKEvzb_17code_guardian_cli15git_integrationNtB2_14GitIntegration16get_staged_lines
FN:76,_RNvMNtCs69D8HmKEvzb_17code_guardian_cli15git_integrationNtB2_14GitIntegration23install_pre_commit_hook
FN:117,_RNvMNtCs69D8HmKEvzb_17code_guardian_cli15git_integrationNtB2_14GitIntegration25uninstall_pre_commit_hook
FN:159,_RNvNtCs69D8HmKEvzb_17code_guardian_cli15git_integration14parse_git_diff
FN:258,_RNvNtNtCs69D8HmKEvzb_17code_guardian_cli15git_integration5testss_15test_line_range
FN:252,_RNvNtNtCs69D8HmKEvzb_17code_guardian_cli15git_integration5testss_16test_is_git_repo
FN:233,_RNvNtNtCs69D8HmKEvzb_17code_guardian_cli15git_integration5testss_26test_git_integration_basic
FN:54,_RNCNvMNtCs69D8HmKEvzb_17code_guardian_cli15git_integrationNtB4_14GitIntegration11is_git_repo0B6_
FNDA:0,_RNCNvMNtCsgJXiKT19grP_17code_guardian_cli15git_integrationNtB4_14GitIntegration11is_git_repo0B6_
FNDA:0,_RNCNvMNtCsgJXiKT19grP_17code_guardian_cli15git_integrationNtB4_14GitIntegration16get_staged_files0B6_
FNDA:0,_RNCNvMNtCsgJXiKT19grP_17code_guardian_cli15git_integrationNtB4_14GitIntegration16get_staged_filess0_0B6_
FNDA:0,_RNCNvMNtCsgJXiKT19grP_17code_guardian_cli15git_integrationNtB4_14GitIntegration16get_staged_filess_0B6_
FNDA:0,_RNCNvNtCsgJXiKT19grP_17code_guardian_cli15git_integration14parse_git_diff0B5_
FNDA:0,_RNvMNtCsgJXiKT19grP_17code_guardian_cli15git_integrationNtB2_14GitIntegration16get_staged_lines
FNDA:0,_RNvNtCsgJXiKT19grP_17code_guardian_cli15git_integration14parse_git_diff
FNDA:0,_RNvMNtCsgJXiKT19grP_17code_guardian_cli15git_integrationNtB2_14GitIntegration11is_git_repo
FNDA:0,_RNvMNtCsgJXiKT19grP_17code_guardian_cli15git_integrationNtB2_14GitIntegration13get_repo_root
FNDA:0,_RNvMNtCsgJXiKT19grP_17code_guardian_cli15git_integrationNtB2_14GitIntegration16get_staged_files
FNDA:0,_RNvMNtCsgJXiKT19grP_17code_guardian_cli15git_integrationNtB2_14GitIntegration23install_pre_commit_hook
FNDA:0,_RNvMNtCsgJXiKT19grP_17code_guardian_cli15git_integrationNtB2_14GitIntegration25uninstall_pre_commit_hook
FNDA:6,_RNCNvMNtCsbqVo1DIGE6C_17code_guardian_cli15git_integrationNtB4_14GitIntegration11is_git_repo0B6_
FNDA:0,_RNCNvMNtCsbqVo1DIGE6C_17code_guardian_cli15git_integrationNtB4_14GitIntegration16get_staged_files0B6_
FNDA:0,_RNCNvMNtCsbqVo1DIGE6C_17code_guardian_cli15git_integrationNtB4_14GitIntegration16get_staged_filess0_0B6_
FNDA:0,_RNCNvMNtCsbqVo1DIGE6C_17code_guardian_cli15git_integrationNtB4_14GitIntegration16get_staged_filess_0B6_
FNDA:0,_RNCNvNtCsbqVo1DIGE6C_17code_guardian_cli15git_integration14parse_git_diff0B5_
FNDA:7,_RNvMNtCsbqVo1DIGE6C_17code_guardian_cli15git_integrationNtB2_14GitIntegration11is_git_repo
FNDA:5,_RNvMNtCsbqVo1DIGE6C_17code_guardian_cli15git_integrationNtB2_14GitIntegration13get_repo_root
FNDA:5,_RNvMNtCsbqVo1DIGE6C_17code_guardian_cli15git_integrationNtB2_14GitIntegration16get_staged_files
FNDA:4,_RNvMNtCsbqVo1DIGE6C_17code_guardian_cli15git_integrationNtB2_14GitIntegration16get_staged_lines
FNDA:3,_RNvMNtCsbqVo1DIGE6C_17code_guardian_cli15git_integrationNtB2_14GitIntegration23install_pre_commit_hook
FNDA:3,_RNvMNtCsbqVo1DIGE6C_17code_guardian_cli15git_integrationNtB2_14GitIntegration25uninstall_pre_commit_hook
FNDA:1,_RNvNtCsbqVo1DIGE6C_17code_guardian_cli15git_integration14parse_git_diff
FNDA:0,_RNCNvMNtCsb8rEs8gTL6L_17code_guardian_cli15git_integrationNtB4_14GitIntegration16get_staged_files0B6_
FNDA:0,_RNCNvMNtCsb8rEs8gTL6L_17code_guardian_cli15git_integrationNtB4_14GitIntegration16get_staged_filess0_0B6_
FNDA:0,_RNCNvMNtCsb8rEs8gTL6L_17code_guardian_cli15git_integrationNtB4_14GitIntegration16get_staged_filess_0B6_
FNDA:0,_RNCNvNtCsb8rEs8gTL6L_17code_guardian_cli15git_integration14parse_git_diff0B5_
FNDA:0,_RNvMNtCsb8rEs8gTL6L_17code_guardian_cli15git_integrationNtB2_14GitIntegration13get_repo_root
FNDA:0,_RNvMNtCsb8rEs8gTL6L_17code_guardian_cli15git_integrationNtB2_14GitIntegration16get_staged_files
FNDA:0,_RNvMNtCsb8rEs8gTL6L_17code_guardian_cli15git_integrationNtB2_14GitIntegration16get_staged_lines
FNDA:0,_RNvMNtCsb8rEs8gTL6L_17code_guardian_cli15git_integrationNtB2_14GitIntegration23install_pre_commit_hook
FNDA:0,_RNvMNtCsb8rEs8gTL6L_17code_guardian_cli15git_integrationNtB2_14GitIntegration25uninstall_pre_commit_hook
FNDA:0,_RNvNtCsb8rEs8gTL6L_17code_guardian_cli15git_integration14parse_git_diff
FNDA:1,_RNvMNtCsb8rEs8gTL6L_17code_guardian_cli15git_integrationNtB2_14GitIntegration11is_git_repo
FNDA:1,_RNvNtNtCsb8rEs8gTL6L_17code_guardian_cli15git_integration5testss_15test_line_range
FNDA:1,_RNvNtNtCsb8rEs8gTL6L_17code_guardian_cli15git_integration5testss_16test_is_git_repo
FNDA:1,_RNvNtNtCsb8rEs8gTL6L_17code_guardian_cli15git_integration5testss_26test_git_integration_basic
FNDA:1,_RNCNvMNtCsb8rEs8gTL6L_17code_guardian_cli15git_integrationNtB4_14GitIntegration11is_git_repo0B6_
FNDA:1,_RNvMNtCs69D8HmKEvzb_17code_guardian_cli15git_integrationNtB2_14GitIntegration11is_git_repo
FNDA:0,_RNCNvMNtCs69D8HmKEvzb_17code_guardian_cli15git_integrationNtB4_14GitIntegration16get_staged_files0B6_
FNDA:0,_RNCNvMNtCs69D8HmKEvzb_17code_guardian_cli15git_integrationNtB4_14GitIntegration16get_staged_filess0_0B6_
FNDA:0,_RNCNvMNtCs69D8HmKEvzb_17code_guardian_cli15git_integrationNtB4_14GitIntegration16get_staged_filess_0B6_
FNDA:0,_RNCNvNtCs69D8HmKEvzb_17code_guardian_cli15git_integration14parse_git_diff0B5_
FNDA:0,_RNvMNtCs69D8HmKEvzb_17code_guardian_cli15git_integrationNtB2_14GitIntegration13get_repo_root
FNDA:0,_RNvMNtCs69D8HmKEvzb_17code_guardian_cli15git_integrationNtB2_14GitIntegration16get_staged_files
FNDA:0,_RNvMNtCs69D8HmKEvzb_17code_guardian_cli15git_integrationNtB2_14GitIntegration16get_staged_lines
FNDA:0,_RNvMNtCs69D8HmKEvzb_17code_guardian_cli15git_integrationNtB2_14GitIntegration23install_pre_commit_hook
FNDA:0,_RNvMNtCs69D8HmKEvzb_17code_guardian_cli15git_integrationNtB2_14GitIntegration25uninstall_pre_commit_hook
FNDA:0,_RNvNtCs69D8HmKEvzb_17code_guardian_cli15git_integration14parse_git_diff
FNDA:1,_RNvNtNtCs69D8HmKEvzb_17code_guardian_cli15git_integration5testss_15test_line_range
FNDA:1,_RNvNtNtCs69D8HmKEvzb_17code_guardian_cli15git_integration5testss_16test_is_git_repo
FNDA:1,_RNvNtNtCs69D8HmKEvzb_17code_guardian_cli15git_integration5testss_26test_git_integration_basic
FNDA:1,_RNCNvMNtCs69D8HmKEvzb_17code_guardian_cli15git_integrationNtB4_14GitIntegration11is_git_repo0B6_
FNF:15
FNH:11
DA:10,5
DA:11,5
DA:12,5
DA:13,5
DA:14,5
DA:16,4
DA:17,2
DA:18,2
DA:19,2
DA:21,2
DA:22,2
DA:23,2
DA:24,2
DA:25,2
DA:26,2
DA:27,2
DA:29,2
DA:30,5
DA:33,5
DA:34,5
DA:35,5
DA:36,5
DA:37,5
DA:39,4
DA:40,2
DA:41,2
DA:43,2
DA:44,2
DA:45,2
DA:46,5
DA:49,9
DA:50,9
DA:51,9
DA:52,9
DA:53,9
DA:54,9
DA:55,9
DA:56,9
DA:60,4
DA:61,4
DA:62,4
DA:63,4
DA:64,4
DA:66,4
DA:67,3
DA:68,3
DA:69,1
DA:71,1
DA:72,1
DA:73,4
DA:76,3
DA:77,3
DA:78,3
DA:81,3
DA:84,3
DA:85,3
DA:86,3
DA:87,3
DA:88,3
DA:89,3
DA:90,3
DA:91,3
DA:92,3
DA:93,3
DA:94,3
DA:95,3
DA:96,3
DA:97,3
DA:99,3
DA:105,3
DA:106,2
DA:107,2
DA:110,2
DA:111,2
DA:113,2
DA:114,3
DA:117,3
DA:118,3
DA:120,3
DA:122,2
DA:123,2
DA:124,2
DA:125,2
DA:126,0
DA:127,0
DA:128,0
DA:129,0
DA:130,0
DA:131,0
DA:132,1
DA:133,1
DA:134,1
DA:136,3
DA:137,3
DA:159,1
DA:160,1
DA:161,1
DA:162,1
DA:163,1
DA:165,1
DA:166,0
DA:168,0
DA:169,0
DA:170,0
DA:171,0
DA:172,0
DA:173,0
DA:174,0
DA:175,0
DA:177,0
DA:178,0
DA:179,0
DA:180,0
DA:182,0
DA:183,0
DA:184,0
DA:186,0
DA:187,0
DA:188,0
DA:189,0
DA:191,0
DA:192,0
DA:193,0
DA:194,0
DA:195,0
DA:196,0
DA:199,0
DA:200,0
DA:201,0
DA:202,0
DA:204,0
DA:205,0
DA:206,0
DA:207,0
DA:208,0
DA:209,0
DA:210,0
DA:211,0
DA:212,0
DA:216,1
DA:217,0
DA:218,0
DA:219,0
DA:220,0
DA:221,0
DA:222,1
DA:224,1
DA:225,1
DA:233,2
DA:235,2
DA:236,2
DA:237,2
DA:240,2
DA:241,2
DA:242,2
DA:243,2
DA:244,2
DA:245,2
DA:247,2
DA:248,2
DA:249,2
DA:252,2
DA:253,2
DA:254,2
DA:255,2
DA:258,2
DA:259,2
DA:260,2
DA:261,2
DA:262,2
BRF:0
BRH:0
LF:175
LH:121
end_of_record
SF:/workspaces/code-guardian/crates/cli/src/main.rs
FN:27,_RNvCsgJXiKT19grP_17code_guardian_cli4main
FN:27,_RNCNvCsgJXiKT19grP_17code_guardian_cli4main0B3_
FN:27,_RNCNvCs69D8HmKEvzb_17code_guardian_cli4main0B3_
FN:27,_RNvCs69D8HmKEvzb_17code_guardian_cli4main
FNDA:31,_RNvCsgJXiKT19grP_17code_guardian_cli4main
FNDA:31,_RNCNvCsgJXiKT19grP_17code_guardian_cli4main0B3_
FNDA:0,_RNCNvCs69D8HmKEvzb_17code_guardian_cli4main0B3_
FNDA:0,_RNvCs69D8HmKEvzb_17code_guardian_cli4main
FNF:2
FNH:2
DA:27,31
DA:29,31
DA:30,31
DA:31,31
DA:33,31
DA:35,31
DA:36,31
DA:37,31
DA:38,31
DA:39,31
DA:40,31
DA:41,31
DA:42,31
DA:43,31
DA:44,31
DA:45,31
DA:46,31
DA:47,31
DA:48,31
DA:49,31
DA:50,31
DA:51,31
DA:52,31
DA:53,31
DA:54,10
DA:55,10
DA:56,10
DA:57,10
DA:58,10
DA:59,10
DA:60,10
DA:61,10
DA:62,10
DA:63,10
DA:64,10
DA:65,10
DA:66,10
DA:67,10
DA:68,10
DA:69,10
DA:70,31
DA:71,31
DA:72,31
DA:73,31
DA:74,31
DA:75,31
DA:76,31
DA:77,31
DA:78,31
DA:79,31
DA:80,31
DA:81,31
DA:82,31
DA:83,31
DA:84,31
DA:85,31
DA:86,31
DA:87,31
DA:88,31
DA:89,31
DA:90,31
DA:91,31
DA:92,31
DA:93,31
DA:94,31
DA:95,31
DA:96,31
DA:97,31
DA:98,31
DA:99,31
DA:100,31
DA:101,31
DA:102,31
DA:103,31
DA:104,31
DA:105,31
DA:106,31
DA:107,31
DA:108,31
DA:109,31
DA:110,31
DA:111,31
DA:112,31
DA:113,31
DA:114,31
DA:115,31
DA:116,31
DA:117,31
DA:118,31
DA:119,31
DA:120,31
DA:121,31
DA:122,31
DA:123,31
DA:124,31
DA:125,31
DA:126,31
DA:127,31
BRF:0
BRH:0
LF:180
LH:145
end_of_record
SF:/workspaces/code-guardian/crates/cli/src/production_handlers.rs
FN:284,_RNCNCNvNtCsgJXiKT19grP_17code_guardian_cli19production_handlers16handle_lang_scan00B7_
FN:212,_RNCNvNtCsgJXiKT19grP_17code_guardian_cli19production_handlers14handle_ci_gate0B5_
FN:281,_RNCNvNtCsgJXiKT19grP_17code_guardian_cli19production_handlers16handle_lang_scan0B5_
FN:140,_RNCNvNtCsgJXiKT19grP_17code_guardian_cli19production_handlers17handle_pre_commit0B5_
FN:172,_RNCNvNtCsgJXiKT19grP_17code_guardian_cli19production_handlers17handle_pre_commits0_0B5_
FN:161,_RNCNvNtCsgJXiKT19grP_17code_guardian_cli19production_handlers17handle_pre_commits_0B5_
FN:326,_RNCNvNtCsgJXiKT19grP_17code_guardian_cli19production_handlers18filter_by_severity0B5_
FN:309,_RNvNtCsgJXiKT19grP_17code_guardian_cli19production_handlers12handle_watch
FN:182,_RNvNtCsgJXiKT19grP_17code_guardian_cli19production_handlers14handle_ci_gate
FN:254,_RNvNtCsgJXiKT19grP_17code_guardian_cli19production_handlers16handle_lang_scan
FN:357,_RNvNtCsgJXiKT19grP_17code_guardian_cli19production_handlers16is_high_severity
FN:333,_RNvNtCsgJXiKT19grP_17code_guardian_cli19production_handlers17count_by_severity
FN:91,_RNvNtCsgJXiKT19grP_17code_guardian_cli19production_handlers17handle_pre_commit
FN:323,_RNvNtCsgJXiKT19grP_17code_guardian_cli19production_handlers18filter_by_severity
FN:387,_RNvNtCsgJXiKT19grP_17code_guardian_cli19production_handlers20generate_json_output
FN:353,_RNvNtCsgJXiKT19grP_17code_guardian_cli19production_handlers20is_critical_severity
FN:399,_RNvNtCsgJXiKT19grP_17code_guardian_cli19production_handlers23generate_summary_output
FN:12,_RNvNtCsgJXiKT19grP_17code_guardian_cli19production_handlers23handle_production_check
FN:342,_RNvNtCsgJXiKT19grP_17code_guardian_cli19production_handlers24get_severity_for_pattern
FN:361,_RNvNtCsgJXiKT19grP_17code_guardian_cli19production_handlers27map_languages_to_extensions
FN:417,_RNvNtCsgJXiKT19grP_17code_guardian_cli19production_handlers31generate_production_text_output
FN:284,_RNCNCNvNtCsbqVo1DIGE6C_17code_guardian_cli19production_handlers16handle_lang_scan00B7_
FN:212,_RNCNvNtCsbqVo1DIGE6C_17code_guardian_cli19production_handlers14handle_ci_gate0B5_
FN:281,_RNCNvNtCsbqVo1DIGE6C_17code_guardian_cli19production_handlers16handle_lang_scan0B5_
FN:140,_RNCNvNtCsbqVo1DIGE6C_17code_guardian_cli19production_handlers17handle_pre_commit0B5_
FN:172,_RNCNvNtCsbqVo1DIGE6C_17code_guardian_cli19production_handlers17handle_pre_commits0_0B5_
FN:161,_RNCNvNtCsbqVo1DIGE6C_17code_guardian_cli19production_handlers17handle_pre_commits_0B5_
FN:326,_RNCNvNtCsbqVo1DIGE6C_17code_guardian_cli19production_handlers18filter_by_severity0B5_
FN:309,_RNvNtCsbqVo1DIGE6C_17code_guardian_cli19production_handlers12handle_watch
FN:182,_RNvNtCsbqVo1DIGE6C_17code_guardian_cli19production_handlers14handle_ci_gate
FN:254,_RNvNtCsbqVo1DIGE6C_17code_guardian_cli19production_handlers16handle_lang_scan
FN:357,_RNvNtCsbqVo1DIGE6C_17code_guardian_cli19production_handlers16is_high_severity
FN:333,_RNvNtCsbqVo1DIGE6C_17code_guardian_cli19production_handlers17count_by_severity
FN:91,_RNvNtCsbqVo1DIGE6C_17code_guardian_cli19production_handlers17handle_pre_commit
FN:323,_RNvNtCsbqVo1DIGE6C_17code_guardian_cli19production_handlers18filter_by_severity
FN:387,_RNvNtCsbqVo1DIGE6C_17code_guardian_cli19production_handlers20generate_json_output
FN:353,_RNvNtCsbqVo1DIGE6C_17code_guardian_cli19production_handlers20is_critical_severity
FN:399,_RNvNtCsbqVo1DIGE6C_17code_guardian_cli19production_handlers23generate_summary_output
FN:12,_RNvNtCsbqVo1DIGE6C_17code_guardian_cli19production_handlers23handle_production_check
FN:342,_RNvNtCsbqVo1DIGE6C_17code_guardian_cli19production_handlers24get_severity_for_pattern
FN:361,_RNvNtCsbqVo1DIGE6C_17code_guardian_cli19production_handlers27map_languages_to_extensions
FN:417,_RNvNtCsbqVo1DIGE6C_17code_guardian_cli19production_handlers31generate_production_text_output
FN:284,_RNCNCNvNtCsb8rEs8gTL6L_17code_guardian_cli19production_handlers16handle_lang_scan00B7_
FN:212,_RNCNvNtCsb8rEs8gTL6L_17code_guardian_cli19production_handlers14handle_ci_gate0B5_
FN:281,_RNCNvNtCsb8rEs8gTL6L_17code_guardian_cli19production_handlers16handle_lang_scan0B5_
FN:140,_RNCNvNtCsb8rEs8gTL6L_17code_guardian_cli19production_handlers17handle_pre_commit0B5_
FN:172,_RNCNvNtCsb8rEs8gTL6L_17code_guardian_cli19production_handlers17handle_pre_commits0_0B5_
FN:161,_RNCNvNtCsb8rEs8gTL6L_17code_guardian_cli19production_handlers17handle_pre_commits_0B5_
FN:326,_RNCNvNtCsb8rEs8gTL6L_17code_guardian_cli19production_handlers18filter_by_severity0B5_
FN:309,_RNvNtCsb8rEs8gTL6L_17code_guardian_cli19production_handlers12handle_watch
FN:182,_RNvNtCsb8rEs8gTL6L_17code_guardian_cli19production_handlers14handle_ci_gate
FN:254,_RNvNtCsb8rEs8gTL6L_17code_guardian_cli19production_handlers16handle_lang_scan
FN:91,_RNvNtCsb8rEs8gTL6L_17code_guardian_cli19production_handlers17handle_pre_commit
FN:323,_RNvNtCsb8rEs8gTL6L_17code_guardian_cli19production_handlers18filter_by_severity
FN:387,_RNvNtCsb8rEs8gTL6L_17code_guardian_cli19production_handlers20generate_json_output
FN:399,_RNvNtCsb8rEs8gTL6L_17code_guardian_cli19production_handlers23generate_summary_output
FN:12,_RNvNtCsb8rEs8gTL6L_17code_guardian_cli19production_handlers23handle_production_check
FN:417,_RNvNtCsb8rEs8gTL6L_17code_guardian_cli19production_handlers31generate_production_text_output
FN:581,_RNvNtNtCsb8rEs8gTL6L_17code_guardian_cli19production_handlers5testss_21test_is_high_severity
FN:573,_RNvNtNtCsb8rEs8gTL6L_17code_guardian_cli19production_handlers5testss_25test_is_critical_severity
FN:591,_RNvNtNtCsb8rEs8gTL6L_17code_guardian_cli19production_handlers5testss_28test_count_by_severity_empty
FN:564,_RNvNtNtCsb8rEs8gTL6L_17code_guardian_cli19production_handlers5testss_29test_get_severity_for_pattern
FN:552,_RNvNtNtCsb8rEs8gTL6L_17code_guardian_cli19production_handlers5testss_32test_map_languages_to_extensions
FN:598,_RNvNtNtCsb8rEs8gTL6L_17code_guardian_cli19production_handlers5testss_35test_language_mapping_comprehensive
FN:357,_RNvNtCsb8rEs8gTL6L_17code_guardian_cli19production_handlers16is_high_severity
FN:333,_RNvNtCsb8rEs8gTL6L_17code_guardian_cli19production_handlers17count_by_severity
FN:353,_RNvNtCsb8rEs8gTL6L_17code_guardian_cli19production_handlers20is_critical_severity
FN:342,_RNvNtCsb8rEs8gTL6L_17code_guardian_cli19production_handlers24get_severity_for_pattern
FN:361,_RNvNtCsb8rEs8gTL6L_17code_guardian_cli19production_handlers27map_languages_to_extensions
FN:581,_RNvNtNtCs69D8HmKEvzb_17code_guardian_cli19production_handlers5testss_21test_is_high_severity
FN:573,_RNvNtNtCs69D8HmKEvzb_17code_guardian_cli19production_handlers5testss_25test_is_critical_severity
FN:591,_RNvNtNtCs69D8HmKEvzb_17code_guardian_cli19production_handlers5testss_28test_count_by_severity_empty
FN:564,_RNvNtNtCs69D8HmKEvzb_17code_guardian_cli19production_handlers5testss_29test_get_severity_for_pattern
FN:552,_RNvNtNtCs69D8HmKEvzb_17code_guardian_cli19production_handlers5testss_32test_map_languages_to_extensions
FN:598,_RNvNtNtCs69D8HmKEvzb_17code_guardian_cli19production_handlers5testss_35test_language_mapping_comprehensive
FN:357,_RNvNtCs69D8HmKEvzb_17code_guardian_cli19production_handlers16is_high_severity
FN:333,_RNvNtCs69D8HmKEvzb_17code_guardian_cli19production_handlers17count_by_severity
FN:353,_RNvNtCs69D8HmKEvzb_17code_guardian_cli19production_handlers20is_critical_severity
FN:342,_RNvNtCs69D8HmKEvzb_17code_guardian_cli19production_handlers24get_severity_for_pattern
FN:361,_RNvNtCs69D8HmKEvzb_17code_guardian_cli19production_handlers27map_languages_to_extensions
FN:284,_RNCNCNvNtCs69D8HmKEvzb_17code_guardian_cli19production_handlers16handle_lang_scan00B7_
FN:212,_RNCNvNtCs69D8HmKEvzb_17code_guardian_cli19production_handlers14handle_ci_gate0B5_
FN:281,_RNCNvNtCs69D8HmKEvzb_17code_guardian_cli19production_handlers16handle_lang_scan0B5_
FN:140,_RNCNvNtCs69D8HmKEvzb_17code_guardian_cli19production_handlers17handle_pre_commit0B5_
FN:172,_RNCNvNtCs69D8HmKEvzb_17code_guardian_cli19production_handlers17handle_pre_commits0_0B5_
FN:161,_RNCNvNtCs69D8HmKEvzb_17code_guardian_cli19production_handlers17handle_pre_commits_0B5_
FN:326,_RNCNvNtCs69D8HmKEvzb_17code_guardian_cli19production_handlers18filter_by_severity0B5_
FN:309,_RNvNtCs69D8HmKEvzb_17code_guardian_cli19production_handlers12handle_watch
FN:182,_RNvNtCs69D8HmKEvzb_17code_guardian_cli19production_handlers14handle_ci_gate
FN:254,_RNvNtCs69D8HmKEvzb_17code_guardian_cli19production_handlers16handle_lang_scan
FN:91,_RNvNtCs69D8HmKEvzb_17code_guardian_cli19production_handlers17handle_pre_commit
FN:323,_RNvNtCs69D8HmKEvzb_17code_guardian_cli19production_handlers18filter_by_severity
FN:387,_RNvNtCs69D8HmKEvzb_17code_guardian_cli19production_handlers20generate_json_output
FN:399,_RNvNtCs69D8HmKEvzb_17code_guardian_cli19production_handlers23generate_summary_output
FN:12,_RNvNtCs69D8HmKEvzb_17code_guardian_cli19production_handlers23handle_production_check
FN:417,_RNvNtCs69D8HmKEvzb_17code_guardian_cli19production_handlers31generate_production_text_output
FNDA:0,_RNCNCNvNtCsgJXiKT19grP_17code_guardian_cli19production_handlers16handle_lang_scan00B7_
FNDA:0,_RNCNvNtCsgJXiKT19grP_17code_guardian_cli19production_handlers14handle_ci_gate0B5_
FNDA:0,_RNCNvNtCsgJXiKT19grP_17code_guardian_cli19production_handlers16handle_lang_scan0B5_
FNDA:0,_RNCNvNtCsgJXiKT19grP_17code_guardian_cli19production_handlers17handle_pre_commit0B5_
FNDA:0,_RNCNvNtCsgJXiKT19grP_17code_guardian_cli19production_handlers17handle_pre_commits0_0B5_
FNDA:0,_RNCNvNtCsgJXiKT19grP_17code_guardian_cli19production_handlers17handle_pre_commits_0B5_
FNDA:0,_RNCNvNtCsgJXiKT19grP_17code_guardian_cli19production_handlers18filter_by_severity0B5_
FNDA:0,_RNvNtCsgJXiKT19grP_17code_guardian_cli19production_handlers12handle_watch
FNDA:0,_RNvNtCsgJXiKT19grP_17code_guardian_cli19production_handlers14handle_ci_gate
FNDA:0,_RNvNtCsgJXiKT19grP_17code_guardian_cli19production_handlers16handle_lang_scan
FNDA:0,_RNvNtCsgJXiKT19grP_17code_guardian_cli19production_handlers16is_high_severity
FNDA:0,_RNvNtCsgJXiKT19grP_17code_guardian_cli19production_handlers17count_by_severity
FNDA:0,_RNvNtCsgJXiKT19grP_17code_guardian_cli19production_handlers17handle_pre_commit
FNDA:0,_RNvNtCsgJXiKT19grP_17code_guardian_cli19production_handlers18filter_by_severity
FNDA:0,_RNvNtCsgJXiKT19grP_17code_guardian_cli19production_handlers20generate_json_output
FNDA:0,_RNvNtCsgJXiKT19grP_17code_guardian_cli19production_handlers20is_critical_severity
FNDA:0,_RNvNtCsgJXiKT19grP_17code_guardian_cli19production_handlers23generate_summary_output
FNDA:0,_RNvNtCsgJXiKT19grP_17code_guardian_cli19production_handlers23handle_production_check
FNDA:0,_RNvNtCsgJXiKT19grP_17code_guardian_cli19production_handlers24get_severity_for_pattern
FNDA:0,_RNvNtCsgJXiKT19grP_17code_guardian_cli19production_handlers27map_languages_to_extensions
FNDA:0,_RNvNtCsgJXiKT19grP_17code_guardian_cli19production_handlers31generate_production_text_output
FNDA:0,_RNCNCNvNtCsbqVo1DIGE6C_17code_guardian_cli19production_handlers16handle_lang_scan00B7_
FNDA:0,_RNCNvNtCsbqVo1DIGE6C_17code_guardian_cli19production_handlers14handle_ci_gate0B5_
FNDA:0,_RNCNvNtCsbqVo1DIGE6C_17code_guardian_cli19production_handlers16handle_lang_scan0B5_
FNDA:0,_RNCNvNtCsbqVo1DIGE6C_17code_guardian_cli19production_handlers17handle_pre_commit0B5_
FNDA:0,_RNCNvNtCsbqVo1DIGE6C_17code_guardian_cli19production_handlers17handle_pre_commits0_0B5_
FNDA:0,_RNCNvNtCsbqVo1DIGE6C_17code_guardian_cli19production_handlers17handle_pre_commits_0B5_
FNDA:0,_RNCNvNtCsbqVo1DIGE6C_17code_guardian_cli19production_handlers18filter_by_severity0B5_
FNDA:2,_RNvNtCsbqVo1DIGE6C_17code_guardian_cli19production_handlers12handle_watch
FNDA:3,_RNvNtCsbqVo1DIGE6C_17code_guardian_cli19production_handlers14handle_ci_gate
FNDA:3,_RNvNtCsbqVo1DIGE6C_17code_guardian_cli19production_handlers16handle_lang_scan
FNDA:0,_RNvNtCsbqVo1DIGE6C_17code_guardian_cli19production_handlers16is_high_severity
FNDA:16,_RNvNtCsbqVo1DIGE6C_17code_guardian_cli19production_handlers17count_by_severity
FNDA:3,_RNvNtCsbqVo1DIGE6C_17code_guardian_cli19production_handlers17handle_pre_commit
FNDA:1,_RNvNtCsbqVo1DIGE6C_17code_guardian_cli19production_handlers18filter_by_severity
FNDA:7,_RNvNtCsbqVo1DIGE6C_17code_guardian_cli19production_handlers20generate_json_output
FNDA:0,_RNvNtCsbqVo1DIGE6C_17code_guardian_cli19production_handlers20is_critical_severity
FNDA:2,_RNvNtCsbqVo1DIGE6C_17code_guardian_cli19production_handlers23generate_summary_output
FNDA:7,_RNvNtCsbqVo1DIGE6C_17code_guardian_cli19production_handlers23handle_production_check
FNDA:0,_RNvNtCsbqVo1DIGE6C_17code_guardian_cli19production_handlers24get_severity_for_pattern
FNDA:3,_RNvNtCsbqVo1DIGE6C_17code_guardian_cli19production_handlers27map_languages_to_extensions
FNDA:1,_RNvNtCsbqVo1DIGE6C_17code_guardian_cli19production_handlers31generate_production_text_output
FNDA:0,_RNCNCNvNtCsb8rEs8gTL6L_17code_guardian_cli19production_handlers16handle_lang_scan00B7_
FNDA:0,_RNCNvNtCsb8rEs8gTL6L_17code_guardian_cli19production_handlers14handle_ci_gate0B5_
FNDA:0,_RNCNvNtCsb8rEs8gTL6L_17code_guardian_cli19production_handlers16handle_lang_scan0B5_
FNDA:0,_RNCNvNtCsb8rEs8gTL6L_17code_guardian_cli19production_handlers17handle_pre_commit0B5_
FNDA:0,_RNCNvNtCsb8rEs8gTL6L_17code_guardian_cli19production_handlers17handle_pre_commits0_0B5_
FNDA:0,_RNCNvNtCsb8rEs8gTL6L_17code_guardian_cli19production_handlers17handle_pre_commits_0B5_
FNDA:0,_RNCNvNtCsb8rEs8gTL6L_17code_guardian_cli19production_handlers18filter_by_severity0B5_
FNDA:0,_RNvNtCsb8rEs8gTL6L_17code_guardian_cli19production_handlers12handle_watch
FNDA:0,_RNvNtCsb8rEs8gTL6L_17code_guardian_cli19production_handlers14handle_ci_gate
FNDA:0,_RNvNtCsb8rEs8gTL6L_17code_guardian_cli19production_handlers16handle_lang_scan
FNDA:0,_RNvNtCsb8rEs8gTL6L_17code_guardian_cli19production_handlers17handle_pre_commit
FNDA:0,_RNvNtCsb8rEs8gTL6L_17code_guardian_cli19production_handlers18filter_by_severity
FNDA:0,_RNvNtCsb8rEs8gTL6L_17code_guardian_cli19production_handlers20generate_json_output
FNDA:0,_RNvNtCsb8rEs8gTL6L_17code_guardian_cli19production_handlers23generate_summary_output
FNDA:0,_RNvNtCsb8rEs8gTL6L_17code_guardian_cli19production_handlers23handle_production_check
FNDA:0,_RNvNtCsb8rEs8gTL6L_17code_guardian_cli19production_handlers31generate_production_text_output
FNDA:1,_RNvNtNtCsb8rEs8gTL6L_17code_guardian_cli19production_handlers5testss_21test_is_high_severity
FNDA:1,_RNvNtNtCsb8rEs8gTL6L_17code_guardian_cli19production_handlers5testss_25test_is_critical_severity
FNDA:1,_RNvNtNtCsb8rEs8gTL6L_17code_guardian_cli19production_handlers5testss_28test_count_by_severity_empty
FNDA:1,_RNvNtNtCsb8rEs8gTL6L_17code_guardian_cli19production_handlers5testss_29test_get_severity_for_pattern
FNDA:1,_RNvNtNtCsb8rEs8gTL6L_17code_guardian_cli19production_handlers5testss_32test_map_languages_to_extensions
FNDA:1,_RNvNtNtCsb8rEs8gTL6L_17code_guardian_cli19production_handlers5testss_35test_language_mapping_comprehensive
FNDA:6,_RNvNtCsb8rEs8gTL6L_17code_guardian_cli19production_handlers16is_high_severity
FNDA:1,_RNvNtCsb8rEs8gTL6L_17code_guardian_cli19production_handlers17count_by_severity
FNDA:4,_RNvNtCsb8rEs8gTL6L_17code_guardian_cli19production_handlers20is_critical_severity
FNDA:5,_RNvNtCsb8rEs8gTL6L_17code_guardian_cli19production_handlers24get_severity_for_pattern
FNDA:6,_RNvNtCsb8rEs8gTL6L_17code_guardian_cli19production_handlers27map_languages_to_extensions
FNDA:1,_RNvNtNtCs69D8HmKEvzb_17code_guardian_cli19production_handlers5testss_21test_is_high_severity
FNDA:1,_RNvNtNtCs69D8HmKEvzb_17code_guardian_cli19production_handlers5testss_25test_is_critical_severity
FNDA:1,_RNvNtNtCs69D8HmKEvzb_17code_guardian_cli19production_handlers5testss_28test_count_by_severity_empty
FNDA:1,_RNvNtNtCs69D8HmKEvzb_17code_guardian_cli19production_handlers5testss_29test_get_severity_for_pattern
FNDA:1,_RNvNtNtCs69D8HmKEvzb_17code_guardian_cli19production_handlers5testss_32test_map_languages_to_extensions
FNDA:1,_RNvNtNtCs69D8HmKEvzb_17code_guardian_cli19production_handlers5testss_35test_language_mapping_comprehensive
FNDA:6,_RNvNtCs69D8HmKEvzb_17code_guardian_cli19production_handlers16is_high_severity
FNDA:1,_RNvNtCs69D8HmKEvzb_17code_guardian_cli19production_handlers17count_by_severity
FNDA:4,_RNvNtCs69D8HmKEvzb_17code_guardian_cli19production_handlers20is_critical_severity
FNDA:5,_RNvNtCs69D8HmKEvzb_17code_guardian_cli19production_handlers24get_severity_for_pattern
FNDA:6,_RNvNtCs69D8HmKEvzb_17code_guardian_cli19production_handlers27map_languages_to_extensions
FNDA:0,_RNCNCNvNtCs69D8HmKEvzb_17code_guardian_cli19production_handlers16handle_lang_scan00B7_
FNDA:0,_RNCNvNtCs69D8HmKEvzb_17code_guardian_cli19production_handlers14handle_ci_gate0B5_
FNDA:0,_RNCNvNtCs69D8HmKEvzb_17code_guardian_cli19production_handlers16handle_lang_scan0B5_
FNDA:0,_RNCNvNtCs69D8HmKEvzb_17code_guardian_cli19production_handlers17handle_pre_commit0B5_
FNDA:0,_RNCNvNtCs69D8HmKEvzb_17code_guardian_cli19production_handlers17handle_pre_commits0_0B5_
FNDA:0,_RNCNvNtCs69D8HmKEvzb_17code_guardian_cli19production_handlers17handle_pre_commits_0B5_
FNDA:0,_RNCNvNtCs69D8HmKEvzb_17code_guardian_cli19production_handlers18filter_by_severity0B5_
FNDA:0,_RNvNtCs69D8HmKEvzb_17code_guardian_cli19production_handlers12handle_watch
FNDA:0,_RNvNtCs69D8HmKEvzb_17code_guardian_cli19production_handlers14handle_ci_gate
FNDA:0,_RNvNtCs69D8HmKEvzb_17code_guardian_cli19production_handlers16handle_lang_scan
FNDA:0,_RNvNtCs69D8HmKEvzb_17code_guardian_cli19production_handlers17handle_pre_commit
FNDA:0,_RNvNtCs69D8HmKEvzb_17code_guardian_cli19production_handlers18filter_by_severity
FNDA:0,_RNvNtCs69D8HmKEvzb_17code_guardian_cli19production_handlers20generate_json_output
FNDA:0,_RNvNtCs69D8HmKEvzb_17code_guardian_cli19production_handlers23generate_summary_output
FNDA:0,_RNvNtCs69D8HmKEvzb_17code_guardian_cli19production_handlers23handle_production_check
FNDA:0,_RNvNtCs69D8HmKEvzb_17code_guardian_cli19production_handlers31generate_production_text_output
FNF:27
FNH:20
DA:12,7
DA:13,7
DA:14,7
DA:15,7
DA:16,7
DA:17,7
DA:18,7
DA:19,7
DA:20,7
DA:21,7
DA:22,7
DA:24,7
DA:27,7
DA:28,7
DA:31,7
DA:34,7
DA:35,6
DA:37,1
DA:41,7
DA:44,7
DA:45,7
DA:46,2
DA:47,1
DA:51,7
DA:52,1
DA:53,1
DA:54,6
DA:55,6
DA:56,6
DA:59,7
DA:60,7
DA:62,7
DA:63,0
DA:64,0
DA:67,0
DA:68,7
DA:70,7
DA:71,0
DA:72,0
DA:75,0
DA:76,7
DA:78,7
DA:79,0
DA:80,0
DA:81,0
DA:82,0
DA:83,7
DA:84,7
DA:85,7
DA:87,7
DA:88,7
DA:91,3
DA:92,3
DA:94,3
DA:96,1
DA:97,1
DA:98,1
DA:99,1
DA:102,2
DA:105,3
DA:107,3
DA:109,0
DA:110,0
DA:111,0
DA:114,0
DA:115,0
DA:117,0
DA:118,0
DA:119,0
DA:120,0
DA:122,0
DA:123,0
DA:124,0
DA:125,0
DA:126,0
DA:127,0
DA:130,0
DA:131,0
DA:132,0
DA:135,0
DA:136,0
DA:138,0
DA:139,0
DA:140,0
DA:141,0
DA:142,0
DA:143,0
DA:144,0
DA:146,0
DA:149,3
DA:152,3
DA:153,3
DA:154,3
DA:156,3
DA:157,0
DA:158,0
DA:161,0
DA:162,0
DA:163,0
DA:164,0
DA:165,3
DA:167,3
DA:168,0
DA:169,0
DA:172,0
DA:173,0
DA:174,0
DA:175,3
DA:177,3
DA:178,3
DA:179,3
DA:182,3
DA:183,3
DA:184,3
DA:185,3
DA:186,3
DA:187,3
DA:188,3
DA:189,3
DA:191,3
DA:192,3
DA:193,3
DA:195,3
DA:196,3
DA:197,3
DA:200,3
DA:201,3
DA:202,3
DA:203,3
DA:204,3
DA:205,3
DA:207,3
DA:208,3
DA:209,3
DA:211,3
DA:212,0
DA:213,0
DA:214,0
DA:215,0
DA:216,0
DA:217,0
DA:218,3
DA:221,3
DA:223,3
DA:224,1
DA:225,1
DA:226,2
DA:229,3
DA:230,3
DA:231,3
DA:233,3
DA:234,0
DA:235,0
DA:238,0
DA:239,3
DA:241,3
DA:242,0
DA:243,0
DA:246,0
DA:247,3
DA:249,3
DA:250,3
DA:251,3
DA:254,3
DA:255,3
DA:256,3
DA:257,3
DA:258,3
DA:259,3
DA:260,3
DA:261,3
DA:262,3
DA:264,3
DA:266,3
DA:267,3
DA:269,3
DA:270,1
DA:272,2
DA:275,3
DA:276,3
DA:279,3
DA:280,3
DA:281,3
DA:282,0
DA:283,0
DA:284,0
DA:285,0
DA:286,3
DA:288,3
DA:290,3
DA:291,3
DA:292,2
DA:293,2
DA:295,1
DA:296,1
DA:297,1
DA:298,1
DA:299,0
DA:300,0
DA:301,0
DA:302,0
DA:305,3
DA:306,3
DA:309,2
DA:310,2
DA:311,2
DA:312,2
DA:313,2
DA:314,2
DA:315,2
DA:316,2
DA:317,2
DA:318,2
DA:319,2
DA:323,1
DA:324,1
DA:325,1
DA:326,1
DA:327,0
DA:328,0
DA:329,0
DA:330,1
DA:331,1
DA:333,18
DA:334,18
DA:335,18
DA:336,0
DA:337,0
DA:338,0
DA:339,18
DA:340,18
DA:342,10
DA:343,10
DA:344,10
DA:345,8
DA:346,6
DA:347,4
DA:348,4
DA:350,10
DA:351,10
DA:353,8
DA:354,8
DA:355,8
DA:357,12
DA:358,12
DA:359,12
DA:361,15
DA:362,15
DA:363,35
DA:364,20
DA:365,20
DA:366,15
DA:367,13
DA:368,8
DA:369,2
DA:370,0
DA:371,0
DA:372,0
DA:373,0
DA:374,0
DA:375,0
DA:376,0
DA:377,0
DA:378,0
DA:379,0
DA:380,0
DA:381,0
DA:384,15
DA:385,15
DA:387,7
DA:388,7
DA:389,7
DA:390,7
DA:391,7
DA:392,7
DA:393,7
DA:394,7
DA:396,7
DA:397,7
DA:399,2
DA:400,2
DA:401,2
DA:402,2
DA:404,2
DA:405,0
DA:406,0
DA:407,0
DA:408,0
DA:409,0
DA:410,0
DA:412,0
DA:414,2
DA:415,2
DA:417,1
DA:418,1
DA:419,1
DA:420,1
DA:421,1
DA:423,1
DA:424,1
DA:425,1
DA:426,1
DA:429,1
DA:430,1
DA:431,1
DA:432,1
DA:434,1
DA:435,0
DA:436,0
DA:437,0
DA:438,0
DA:439,0
DA:440,0
DA:445,1
DA:446,0
DA:447,0
DA:448,0
DA:449,0
DA:450,0
DA:451,0
DA:452,0
DA:453,0
DA:454,0
DA:455,0
DA:456,0
DA:457,0
DA:458,0
DA:459,0
DA:460,0
DA:461,1
DA:463,1
DA:464,0
DA:465,0
DA:466,0
DA:467,0
DA:468,0
DA:469,0
DA:470,0
DA:471,0
DA:472,0
DA:473,0
DA:474,0
DA:475,0
DA:476,0
DA:477,0
DA:478,0
DA:479,1
DA:481,1
DA:482,0
DA:483,0
DA:484,0
DA:485,0
DA:486,0
DA:487,0
DA:488,0
DA:489,0
DA:490,0
DA:491,0
DA:492,0
DA:493,0
DA:494,0
DA:495,0
DA:496,0
DA:497,1
DA:499,1
DA:500,0
DA:501,0
DA:502,0
DA:503,0
DA:504,0
DA:505,0
DA:506,0
DA:507,0
DA:508,0
DA:509,0
DA:510,0
DA:511,0
DA:512,0
DA:513,0
DA:514,0
DA:515,0
DA:516,0
DA:517,0
DA:518,0
DA:519,0
DA:520,0
DA:521,0
DA:522,1
DA:525,1
DA:526,1
DA:527,1
DA:528,1
DA:529,1
DA:530,1
DA:531,1
DA:532,1
DA:533,1
DA:534,1
DA:535,1
DA:536,1
DA:537,1
DA:538,1
DA:539,1
DA:540,1
DA:541,1
DA:542,1
DA:544,1
DA:545,1
DA:552,2
DA:553,2
DA:554,2
DA:556,2
DA:557,2
DA:558,2
DA:559,2
DA:560,2
DA:561,2
DA:564,2
DA:565,2
DA:566,2
DA:567,2
DA:568,2
DA:569,2
DA:570,2
DA:573,2
DA:574,2
DA:575,2
DA:576,2
DA:577,2
DA:578,2
DA:581,2
DA:582,2
DA:583,2
DA:584,2
DA:585,2
DA:586,2
DA:587,2
DA:588,2
DA:591,2
DA:592,2
DA:593,2
DA:594,2
DA:595,2
DA:598,2
DA:599,2
DA:600,2
DA:601,2
DA:602,2
DA:603,2
DA:604,2
DA:607,12
DA:608,10
DA:609,10
DA:611,24
DA:612,14
DA:613,14
DA:614,0
DA:620,2
BRF:0
BRH:0
LF:464
LH:290
end_of_record
SF:/workspaces/code-guardian/crates/cli/src/report_handlers.rs
FN:24,_RNvNtCsgJXiKT19grP_17code_guardian_cli15report_handlers13get_formatter
FN:10,_RNvNtCsgJXiKT19grP_17code_guardian_cli15report_handlers13handle_report
FN:24,_RNvNtCsbqVo1DIGE6C_17code_guardian_cli15report_handlers13get_formatter
FN:10,_RNvNtCsbqVo1DIGE6C_17code_guardian_cli15report_handlers13handle_report
FN:24,_RNvNtCsb8rEs8gTL6L_17code_guardian_cli15report_handlers13get_formatter
FN:10,_RNvNtCsb8rEs8gTL6L_17code_guardian_cli15report_handlers13handle_report
FN:24,_RNvNtCs69D8HmKEvzb_17code_guardian_cli15report_handlers13get_formatter
FN:10,_RNvNtCs69D8HmKEvzb_17code_guardian_cli15report_handlers13handle_report
FNDA:9,_RNvNtCsgJXiKT19grP_17code_guardian_cli15report_handlers13get_formatter
FNDA:7,_RNvNtCsgJXiKT19grP_17code_guardian_cli15report_handlers13handle_report
FNDA:1,_RNvNtCsbqVo1DIGE6C_17code_guardian_cli15report_handlers13get_formatter
FNDA:1,_RNvNtCsbqVo1DIGE6C_17code_guardian_cli15report_handlers13handle_report
FNDA:0,_RNvNtCsb8rEs8gTL6L_17code_guardian_cli15report_handlers13get_formatter
FNDA:0,_RNvNtCsb8rEs8gTL6L_17code_guardian_cli15report_handlers13handle_report
FNDA:0,_RNvNtCs69D8HmKEvzb_17code_guardian_cli15report_handlers13get_formatter
FNDA:0,_RNvNtCs69D8HmKEvzb_17code_guardian_cli15report_handlers13handle_report
FNF:2
FNH:2
DA:10,8
DA:11,8
DA:12,7
DA:13,7
DA:14,7
DA:15,7
DA:16,6
DA:17,6
DA:18,6
DA:19,1
DA:21,7
DA:22,8
DA:24,10
DA:25,10
DA:26,10
DA:27,7
DA:28,4
DA:29,3
DA:30,2
DA:31,1
DA:33,10
BRF:0
BRH:0
LF:21
LH:21
end_of_record
SF:/workspaces/code-guardian/crates/cli/src/scan_handlers.rs
FN:32,_RNvNtCsgJXiKT19grP_17code_guardian_cli13scan_handlers11handle_scan
FN:143,_RNCNCNCNvNtCsgJXiKT19grP_17code_guardian_cli13scan_handlers11handle_scan0s_00B9_
FN:61,_RNCNCNvNtCsgJXiKT19grP_17code_guardian_cli13scan_handlers11handle_scan00B7_
FN:176,_RNCNCNvNtCsgJXiKT19grP_17code_guardian_cli13scan_handlers11handle_scan0s0_0B7_
FN:142,_RNCNCNvNtCsgJXiKT19grP_17code_guardian_cli13scan_handlers11handle_scan0s_0B7_
FN:32,_RNCNvNtCsgJXiKT19grP_17code_guardian_cli13scan_handlers11handle_scan0B5_
FN:143,_RNCNCNCNvNtCsbqVo1DIGE6C_17code_guardian_cli13scan_handlers11handle_scan0s_00B9_
FN:61,_RNCNCNvNtCsbqVo1DIGE6C_17code_guardian_cli13scan_handlers11handle_scan00B7_
FN:176,_RNCNCNvNtCsbqVo1DIGE6C_17code_guardian_cli13scan_handlers11handle_scan0s0_0B7_
FN:142,_RNCNCNvNtCsbqVo1DIGE6C_17code_guardian_cli13scan_handlers11handle_scan0s_0B7_
FN:32,_RNCNvNtCsbqVo1DIGE6C_17code_guardian_cli13scan_handlers11handle_scan0B5_
FN:32,_RNvNtCsbqVo1DIGE6C_17code_guardian_cli13scan_handlers11handle_scan
FN:143,_RNCNCNCNvNtCsb8rEs8gTL6L_17code_guardian_cli13scan_handlers11handle_scan0s_00B9_
FN:61,_RNCNCNvNtCsb8rEs8gTL6L_17code_guardian_cli13scan_handlers11handle_scan00B7_
FN:176,_RNCNCNvNtCsb8rEs8gTL6L_17code_guardian_cli13scan_handlers11handle_scan0s0_0B7_
FN:142,_RNCNCNvNtCsb8rEs8gTL6L_17code_guardian_cli13scan_handlers11handle_scan0s_0B7_
FN:32,_RNCNvNtCsb8rEs8gTL6L_17code_guardian_cli13scan_handlers11handle_scan0B5_
FN:32,_RNvNtCsb8rEs8gTL6L_17code_guardian_cli13scan_handlers11handle_scan
FN:143,_RNCNCNCNvNtCs69D8HmKEvzb_17code_guardian_cli13scan_handlers11handle_scan0s_00B9_
FN:61,_RNCNCNvNtCs69D8HmKEvzb_17code_guardian_cli13scan_handlers11handle_scan00B7_
FN:176,_RNCNCNvNtCs69D8HmKEvzb_17code_guardian_cli13scan_handlers11handle_scan0s0_0B7_
FN:142,_RNCNCNvNtCs69D8HmKEvzb_17code_guardian_cli13scan_handlers11handle_scan0s_0B7_
FN:32,_RNCNvNtCs69D8HmKEvzb_17code_guardian_cli13scan_handlers11handle_scan0B5_
FN:32,_RNvNtCs69D8HmKEvzb_17code_guardian_cli13scan_handlers11handle_scan
FN:143,_RNCNCNCNvNtCsbqVo1DIGE6C_17code_guardian_cli13scan_handlers11handle_scan0s_00Cs9djzN8x3YgW_26integration_workflow_tests
FN:61,_RNCNCNvNtCsbqVo1DIGE6C_17code_guardian_cli13scan_handlers11handle_scan00Cs9djzN8x3YgW_26integration_workflow_tests
FN:176,_RNCNCNvNtCsbqVo1DIGE6C_17code_guardian_cli13scan_handlers11handle_scan0s0_0Cs9djzN8x3YgW_26integration_workflow_tests
FN:142,_RNCNCNvNtCsbqVo1DIGE6C_17code_guardian_cli13scan_handlers11handle_scan0s_0Cs9djzN8x3YgW_26integration_workflow_tests
FN:32,_RNCNvNtCsbqVo1DIGE6C_17code_guardian_cli13scan_handlers11handle_scan0Cs9djzN8x3YgW_26integration_workflow_tests
FNDA:10,_RNvNtCsgJXiKT19grP_17code_guardian_cli13scan_handlers11handle_scan
FNDA:3,_RNCNCNCNvNtCsgJXiKT19grP_17code_guardian_cli13scan_handlers11handle_scan0s_00B9_
FNDA:0,_RNCNCNvNtCsgJXiKT19grP_17code_guardian_cli13scan_handlers11handle_scan00B7_
FNDA:0,_RNCNCNvNtCsgJXiKT19grP_17code_guardian_cli13scan_handlers11handle_scan0s0_0B7_
FNDA:3,_RNCNCNvNtCsgJXiKT19grP_17code_guardian_cli13scan_handlers11handle_scan0s_0B7_
FNDA:10,_RNCNvNtCsgJXiKT19grP_17code_guardian_cli13scan_handlers11handle_scan0B5_
FNDA:0,_RNCNCNCNvNtCsbqVo1DIGE6C_17code_guardian_cli13scan_handlers11handle_scan0s_00B9_
FNDA:0,_RNCNCNvNtCsbqVo1DIGE6C_17code_guardian_cli13scan_handlers11handle_scan00B7_
FNDA:0,_RNCNCNvNtCsbqVo1DIGE6C_17code_guardian_cli13scan_handlers11handle_scan0s0_0B7_
FNDA:0,_RNCNCNvNtCsbqVo1DIGE6C_17code_guardian_cli13scan_handlers11handle_scan0s_0B7_
FNDA:0,_RNCNvNtCsbqVo1DIGE6C_17code_guardian_cli13scan_handlers11handle_scan0B5_
FNDA:14,_RNvNtCsbqVo1DIGE6C_17code_guardian_cli13scan_handlers11handle_scan
FNDA:0,_RNCNCNCNvNtCsb8rEs8gTL6L_17code_guardian_cli13scan_handlers11handle_scan0s_00B9_
FNDA:0,_RNCNCNvNtCsb8rEs8gTL6L_17code_guardian_cli13scan_handlers11handle_scan00B7_
FNDA:0,_RNCNCNvNtCsb8rEs8gTL6L_17code_guardian_cli13scan_handlers11handle_scan0s0_0B7_
FNDA:0,_RNCNCNvNtCsb8rEs8gTL6L_17code_guardian_cli13scan_handlers11handle_scan0s_0B7_
FNDA:0,_RNCNvNtCsb8rEs8gTL6L_17code_guardian_cli13scan_handlers11handle_scan0B5_
FNDA:0,_RNvNtCsb8rEs8gTL6L_17code_guardian_cli13scan_handlers11handle_scan
FNDA:0,_RNCNCNCNvNtCs69D8HmKEvzb_17code_guardian_cli13scan_handlers11handle_scan0s_00B9_
FNDA:0,_RNCNCNvNtCs69D8HmKEvzb_17code_guardian_cli13scan_handlers11handle_scan00B7_
FNDA:0,_RNCNCNvNtCs69D8HmKEvzb_17code_guardian_cli13scan_handlers11handle_scan0s0_0B7_
FNDA:0,_RNCNCNvNtCs69D8HmKEvzb_17code_guardian_cli13scan_handlers11handle_scan0s_0B7_
FNDA:0,_RNCNvNtCs69D8HmKEvzb_17code_guardian_cli13scan_handlers11handle_scan0B5_
FNDA:0,_RNvNtCs69D8HmKEvzb_17code_guardian_cli13scan_handlers11handle_scan
FNDA:0,_RNCNCNCNvNtCsbqVo1DIGE6C_17code_guardian_cli13scan_handlers11handle_scan0s_00Cs9djzN8x3YgW_26integration_workflow_tests
FNDA:0,_RNCNCNvNtCsbqVo1DIGE6C_17code_guardian_cli13scan_handlers11handle_scan00Cs9djzN8x3YgW_26integration_workflow_tests
FNDA:2,_RNCNCNvNtCsbqVo1DIGE6C_17code_guardian_cli13scan_handlers11handle_scan0s0_0Cs9djzN8x3YgW_26integration_workflow_tests
FNDA:0,_RNCNCNvNtCsbqVo1DIGE6C_17code_guardian_cli13scan_handlers11handle_scan0s_0Cs9djzN8x3YgW_26integration_workflow_tests
FNDA:14,_RNCNvNtCsbqVo1DIGE6C_17code_guardian_cli13scan_handlers11handle_scan0Cs9djzN8x3YgW_26integration_workflow_tests
FNF:6
FNH:5
DA:32,24
DA:33,24
DA:34,2
DA:35,2
DA:36,2
DA:37,2
DA:38,22
DA:39,22
DA:40,0
DA:41,0
DA:42,0
DA:43,0
DA:44,22
DA:45,22
DA:47,21
DA:48,2
DA:49,19
DA:50,21
DA:51,2
DA:52,19
DA:53,21
DA:54,2
DA:55,19
DA:56,21
DA:57,5
DA:58,16
DA:59,21
DA:60,21
DA:61,21
DA:62,21
DA:65,21
DA:66,21
DA:67,1
DA:68,1
DA:69,20
DA:72,21
DA:75,21
DA:76,21
DA:77,1
DA:78,1
DA:79,1
DA:80,1
DA:81,1
DA:82,20
DA:84,21
DA:85,2
DA:86,2
DA:87,2
DA:89,19
DA:92,21
DA:94,4
DA:95,0
DA:96,4
DA:98,4
DA:99,4
DA:100,4
DA:103,4
DA:104,4
DA:105,4
DA:106,4
DA:107,4
DA:108,4
DA:109,4
DA:110,4
DA:112,4
DA:113,17
DA:115,1
DA:116,0
DA:117,1
DA:119,1
DA:122,5
DA:123,4
DA:124,4
DA:125,4
DA:126,4
DA:127,4
DA:128,4
DA:129,4
DA:130,4
DA:131,4
DA:132,4
DA:135,2
DA:136,2
DA:137,2
DA:140,1
DA:141,1
DA:142,3
DA:143,3
DA:144,3
DA:145,2
DA:147,1
DA:149,3
DA:150,3
DA:151,1
DA:153,1
DA:154,1
DA:157,1
DA:158,1
DA:159,1
DA:160,1
DA:161,1
DA:162,1
DA:163,1
DA:164,1
DA:166,1
DA:167,16
DA:169,2
DA:170,1
DA:171,1
DA:173,2
DA:174,2
DA:176,2
DA:177,2
DA:178,2
DA:179,2
DA:181,2
DA:182,14
DA:184,2
DA:185,0
DA:186,2
DA:188,2
DA:189,2
DA:190,2
DA:193,12
DA:194,1
DA:195,11
DA:197,12
DA:198,12
DA:199,12
DA:202,21
DA:203,2
DA:204,19
DA:205,21
DA:206,21
DA:207,21
DA:208,21
DA:209,21
DA:210,21
DA:211,21
DA:212,21
DA:213,21
DA:216,21
DA:217,2
DA:218,2
DA:219,2
DA:220,2
DA:221,2
DA:222,2
DA:224,2
DA:225,1
DA:226,1
DA:227,1
DA:228,1
DA:230,2
DA:231,2
DA:232,2
DA:233,2
DA:234,2
DA:235,2
DA:238,0
DA:239,2
DA:240,19
DA:242,21
DA:243,21
DA:244,21
DA:245,24
BRF:0
BRH:0
LF:172
LH:151
end_of_record
SF:/workspaces/code-guardian/crates/cli/src/stack_presets.rs
FN:7,_RNvNtCsgJXiKT19grP_17code_guardian_cli13stack_presets19handle_stack_preset
FN:7,_RNvNtCsbqVo1DIGE6C_17code_guardian_cli13stack_presets19handle_stack_preset
FN:7,_RNvNtCsb8rEs8gTL6L_17code_guardian_cli13stack_presets19handle_stack_preset
FN:7,_RNvNtCs69D8HmKEvzb_17code_guardian_cli13stack_presets19handle_stack_preset
FNDA:0,_RNvNtCsgJXiKT19grP_17code_guardian_cli13stack_presets19handle_stack_preset
FNDA:0,_RNvNtCsbqVo1DIGE6C_17code_guardian_cli13stack_presets19handle_stack_preset
FNDA:0,_RNvNtCsb8rEs8gTL6L_17code_guardian_cli13stack_presets19handle_stack_preset
FNDA:0,_RNvNtCs69D8HmKEvzb_17code_guardian_cli13stack_presets19handle_stack_preset
FNF:1
FNH:0
DA:7,0
DA:8,0
DA:9,0
DA:10,0
DA:11,0
DA:12,0
DA:13,0
DA:14,0
DA:15,0
DA:16,0
DA:18,0
DA:20,0
DA:21,0
DA:22,0
DA:23,0
DA:24,0
DA:25,0
DA:26,0
DA:27,0
DA:29,0
DA:31,0
DA:32,0
DA:33,0
DA:34,0
DA:35,0
DA:36,0
DA:37,0
DA:38,0
DA:40,0
DA:42,0
DA:43,0
DA:44,0
DA:45,0
DA:46,0
DA:47,0
DA:48,0
DA:50,0
DA:52,0
DA:53,0
DA:54,0
DA:55,0
DA:56,0
DA:57,0
DA:59,0
DA:62,0
BRF:0
BRH:0
LF:45
LH:0
end_of_record
SF:/workspaces/code-guardian/crates/cli/src/utils.rs
FN:6,_RNCNvNtCsgJXiKT19grP_17code_guardian_cli5utils11get_db_path0B5_
FN:5,_RNvNtCsgJXiKT19grP_17code_guardian_cli5utils11get_db_path
FN:10,_RNvNtCsgJXiKT19grP_17code_guardian_cli5utils26get_detectors_from_profile
FN:5,_RNvNtCsbqVo1DIGE6C_17code_guardian_cli5utils11get_db_path
FN:10,_RNvNtCsbqVo1DIGE6C_17code_guardian_cli5utils26get_detectors_from_profile
FN:6,_RNCNvNtCsbqVo1DIGE6C_17code_guardian_cli5utils11get_db_path0B5_
FN:5,_RNvNtCsb8rEs8gTL6L_17code_guardian_cli5utils11get_db_path
FN:10,_RNvNtCsb8rEs8gTL6L_17code_guardian_cli5utils26get_detectors_from_profile
FN:41,_RNvNtNtCsb8rEs8gTL6L_17code_guardian_cli5utils5testss_26test_get_db_path_with_none
FN:34,_RNvNtNtCsb8rEs8gTL6L_17code_guardian_cli5utils5testss_35test_get_db_path_with_provided_path
FN:90,_RNvNtNtCsb8rEs8gTL6L_17code_guardian_cli5utils5testss_36test_get_detectors_from_profile_rust
FN:47,_RNvNtNtCsb8rEs8gTL6L_17code_guardian_cli5utils5testss_37test_get_detectors_from_profile_basic
FN:99,_RNvNtNtCsb8rEs8gTL6L_17code_guardian_cli5utils5testss_39test_get_detectors_from_profile_unknown
FN:117,_RNvNtNtCsb8rEs8gTL6L_17code_guardian_cli5utils5testss_40test_all_profiles_return_valid_detectors
FN:72,_RNvNtNtCsb8rEs8gTL6L_17code_guardian_cli5utils5testss_40test_get_detectors_from_profile_security
FN:81,_RNvNtNtCsb8rEs8gTL6L_17code_guardian_cli5utils5testss_43test_get_detectors_from_profile_performance
FN:56,_RNvNtNtCsb8rEs8gTL6L_17code_guardian_cli5utils5testss_45test_get_detectors_from_profile_comprehensive
FN:6,_RNCNvNtCsb8rEs8gTL6L_17code_guardian_cli5utils11get_db_path0B5_
FN:41,_RNvNtNtCs69D8HmKEvzb_17code_guardian_cli5utils5testss_26test_get_db_path_with_none
FN:34,_RNvNtNtCs69D8HmKEvzb_17code_guardian_cli5utils5testss_35test_get_db_path_with_provided_path
FN:90,_RNvNtNtCs69D8HmKEvzb_17code_guardian_cli5utils5testss_36test_get_detectors_from_profile_rust
FN:47,_RNvNtNtCs69D8HmKEvzb_17code_guardian_cli5utils5testss_37test_get_detectors_from_profile_basic
FN:99,_RNvNtNtCs69D8HmKEvzb_17code_guardian_cli5utils5testss_39test_get_detectors_from_profile_unknown
FN:117,_RNvNtNtCs69D8HmKEvzb_17code_guardian_cli5utils5testss_40test_all_profiles_return_valid_detectors
FN:72,_RNvNtNtCs69D8HmKEvzb_17code_guardian_cli5utils5testss_40test_get_detectors_from_profile_security
FN:81,_RNvNtNtCs69D8HmKEvzb_17code_guardian_cli5utils5testss_43test_get_detectors_from_profile_performance
FN:56,_RNvNtNtCs69D8HmKEvzb_17code_guardian_cli5utils5testss_45test_get_detectors_from_profile_comprehensive
FN:6,_RNCNvNtCs69D8HmKEvzb_17code_guardian_cli5utils11get_db_path0B5_
FN:5,_RNvNtCs69D8HmKEvzb_17code_guardian_cli5utils11get_db_path
FN:10,_RNvNtCs69D8HmKEvzb_17code_guardian_cli5utils26get_detectors_from_profile
FNDA:0,_RNCNvNtCsgJXiKT19grP_17code_guardian_cli5utils11get_db_path0B5_
FNDA:9,_RNvNtCsgJXiKT19grP_17code_guardian_cli5utils11get_db_path
FNDA:10,_RNvNtCsgJXiKT19grP_17code_guardian_cli5utils26get_detectors_from_profile
FNDA:2,_RNvNtCsbqVo1DIGE6C_17code_guardian_cli5utils11get_db_path
FNDA:12,_RNvNtCsbqVo1DIGE6C_17code_guardian_cli5utils26get_detectors_from_profile
FNDA:0,_RNCNvNtCsbqVo1DIGE6C_17code_guardian_cli5utils11get_db_path0B5_
FNDA:2,_RNvNtCsb8rEs8gTL6L_17code_guardian_cli5utils11get_db_path
FNDA:13,_RNvNtCsb8rEs8gTL6L_17code_guardian_cli5utils26get_detectors_from_profile
FNDA:1,_RNvNtNtCsb8rEs8gTL6L_17code_guardian_cli5utils5testss_26test_get_db_path_with_none
FNDA:1,_RNvNtNtCsb8rEs8gTL6L_17code_guardian_cli5utils5testss_35test_get_db_path_with_provided_path
FNDA:1,_RNvNtNtCsb8rEs8gTL6L_17code_guardian_cli5utils5testss_36test_get_detectors_from_profile_rust
FNDA:1,_RNvNtNtCsb8rEs8gTL6L_17code_guardian_cli5utils5testss_37test_get_detectors_from_profile_basic
FNDA:1,_RNvNtNtCsb8rEs8gTL6L_17code_guardian_cli5utils5testss_39test_get_detectors_from_profile_unknown
FNDA:1,_RNvNtNtCsb8rEs8gTL6L_17code_guardian_cli5utils5testss_40test_all_profiles_return_valid_detectors
FNDA:1,_RNvNtNtCsb8rEs8gTL6L_17code_guardian_cli5utils5testss_40test_get_detectors_from_profile_security
FNDA:1,_RNvNtNtCsb8rEs8gTL6L_17code_guardian_cli5utils5testss_43test_get_detectors_from_profile_performance
FNDA:1,_RNvNtNtCsb8rEs8gTL6L_17code_guardian_cli5utils5testss_45test_get_detectors_from_profile_comprehensive
FNDA:1,_RNCNvNtCsb8rEs8gTL6L_17code_guardian_cli5utils11get_db_path0B5_
FNDA:1,_RNvNtNtCs69D8HmKEvzb_17code_guardian_cli5utils5testss_26test_get_db_path_with_none
FNDA:1,_RNvNtNtCs69D8HmKEvzb_17code_guardian_cli5utils5testss_35test_get_db_path_with_provided_path
FNDA:1,_RNvNtNtCs69D8HmKEvzb_17code_guardian_cli5utils5testss_36test_get_detectors_from_profile_rust
FNDA:1,_RNvNtNtCs69D8HmKEvzb_17code_guardian_cli5utils5testss_37test_get_detectors_from_profile_basic
FNDA:1,_RNvNtNtCs69D8HmKEvzb_17code_guardian_cli5utils5testss_39test_get_detectors_from_profile_unknown
FNDA:1,_RNvNtNtCs69D8HmKEvzb_17code_guardian_cli5utils5testss_40test_all_profiles_return_valid_detectors
FNDA:1,_RNvNtNtCs69D8HmKEvzb_17code_guardian_cli5utils5testss_40test_get_detectors_from_profile_security
FNDA:1,_RNvNtNtCs69D8HmKEvzb_17code_guardian_cli5utils5testss_43test_get_detectors_from_profile_performance
FNDA:1,_RNvNtNtCs69D8HmKEvzb_17code_guardian_cli5utils5testss_45test_get_detectors_from_profile_comprehensive
FNDA:1,_RNCNvNtCs69D8HmKEvzb_17code_guardian_cli5utils11get_db_path0B5_
FNDA:2,_RNvNtCs69D8HmKEvzb_17code_guardian_cli5utils11get_db_path
FNDA:13,_RNvNtCs69D8HmKEvzb_17code_guardian_cli5utils26get_detectors_from_profile
FNF:12
FNH:12
DA:5,15
DA:6,15
DA:7,15
DA:10,48
DA:11,48
DA:12,48
DA:13,23
DA:14,17
DA:15,12
DA:16,6
DA:17,2
DA:18,2
DA:19,2
DA:20,2
DA:22,2
DA:23,2
DA:26,48
DA:34,2
DA:35,2
DA:36,2
DA:37,2
DA:38,2
DA:41,2
DA:42,2
DA:43,2
DA:44,2
DA:47,2
DA:48,2
DA:49,2
DA:50,2
DA:51,0
DA:53,2
DA:56,2
DA:57,2
DA:58,2
DA:59,2
DA:60,0
DA:64,2
DA:65,2
DA:66,2
DA:67,0
DA:69,2
DA:72,2
DA:73,2
DA:74,2
DA:75,2
DA:76,0
DA:78,2
DA:81,2
DA:82,2
DA:83,2
DA:84,2
DA:85,0
DA:87,2
DA:90,2
DA:91,2
DA:92,2
DA:93,2
DA:94,0
DA:96,2
DA:99,2
DA:101,2
DA:102,2
DA:103,2
DA:104,0
DA:108,2
DA:109,2
DA:110,2
DA:111,2
DA:112,0
DA:114,2
DA:117,2
DA:118,2
DA:120,12
DA:121,10
DA:122,10
DA:123,10
DA:124,0
DA:128,2
BRF:0
BRH:0
LF:80
LH:71
end_of_record
SF:/workspaces/code-guardian/crates/core/src/cache.rs
FN:39,_RNCNvXININtCs2kADRy9cGvI_18code_guardian_core5caches_0ppEINtB7_13InMemoryCacheppEINtB7_5CacheppE3get0B9_
FN:26,_RNvMNtCs2kADRy9cGvI_18code_guardian_core5cacheINtB2_13InMemoryCacheppE3newB4_
FN:56,_RNvXININtCs2kADRy9cGvI_18code_guardian_core5caches0_0ppEINtB5_13InMemoryCacheppENtNtCs66KPHxksi63_4core7default7Default7defaultB7_
FN:38,_RNvXININtCs2kADRy9cGvI_18code_guardian_core5caches_0ppEINtB5_13InMemoryCacheppEINtB5_5CacheppE3getB7_
FN:42,_RNvXININtCs2kADRy9cGvI_18code_guardian_core5caches_0ppEINtB5_13InMemoryCacheppEINtB5_5CacheppE3setB7_
FN:46,_RNvXININtCs2kADRy9cGvI_18code_guardian_core5caches_0ppEINtB5_13InMemoryCacheppEINtB5_5CacheppE5clearB7_
FN:39,_RNCNvXs_NtCscyrExoi8aIO_18code_guardian_core5cacheINtB6_13InMemoryCacheNtNtCs8Ty2CzGA6U3_5alloc6string6StringB17_EINtB6_5CacheB17_B17_E3get0B8_
FN:39,_RNCNvXs_NtCscyrExoi8aIO_18code_guardian_core5cacheINtB6_13InMemoryCacheNtNtCs8Ty2CzGA6U3_5alloc6string6StringlEINtB6_5CacheB17_lE3get0B8_
FN:39,_RNCNvXs_NtCscyrExoi8aIO_18code_guardian_core5cacheINtB6_13InMemoryCachelINtNtCs8Ty2CzGA6U3_5alloc3vec3VecNtNtB1d_6string6StringEEINtB6_5CachelB18_E3get0B8_
FN:26,_RNvMNtCscyrExoi8aIO_18code_guardian_core5cacheINtB2_13InMemoryCacheNtNtCs8Ty2CzGA6U3_5alloc6string6StringB13_E3newB4_
FN:26,_RNvMNtCscyrExoi8aIO_18code_guardian_core5cacheINtB2_13InMemoryCacheNtNtCs8Ty2CzGA6U3_5alloc6string6StringlE3newB4_
FN:26,_RNvMNtCscyrExoi8aIO_18code_guardian_core5cacheINtB2_13InMemoryCachelINtNtCs8Ty2CzGA6U3_5alloc3vec3VecNtNtB19_6string6StringEE3newB4_
FN:56,_RNvXs0_NtCscyrExoi8aIO_18code_guardian_core5cacheINtB5_13InMemoryCacheNtNtCs8Ty2CzGA6U3_5alloc6string6StringlENtNtCs66KPHxksi63_4core7default7Default7defaultB7_
FN:38,_RNvXs_NtCscyrExoi8aIO_18code_guardian_core5cacheINtB4_13InMemoryCacheNtNtCs8Ty2CzGA6U3_5alloc6string6StringB15_EINtB4_5CacheB15_B15_E3getB6_
FN:42,_RNvXs_NtCscyrExoi8aIO_18code_guardian_core5cacheINtB4_13InMemoryCacheNtNtCs8Ty2CzGA6U3_5alloc6string6StringB15_EINtB4_5CacheB15_B15_E3setB6_
FN:46,_RNvXs_NtCscyrExoi8aIO_18code_guardian_core5cacheINtB4_13InMemoryCacheNtNtCs8Ty2CzGA6U3_5alloc6string6StringB15_EINtB4_5CacheB15_B15_E5clearB6_
FN:38,_RNvXs_NtCscyrExoi8aIO_18code_guardian_core5cacheINtB4_13InMemoryCacheNtNtCs8Ty2CzGA6U3_5alloc6string6StringlEINtB4_5CacheB15_lE3getB6_
FN:42,_RNvXs_NtCscyrExoi8aIO_18code_guardian_core5cacheINtB4_13InMemoryCacheNtNtCs8Ty2CzGA6U3_5alloc6string6StringlEINtB4_5CacheB15_lE3setB6_
FN:38,_RNvXs_NtCscyrExoi8aIO_18code_guardian_core5cacheINtB4_13InMemoryCachelINtNtCs8Ty2CzGA6U3_5alloc3vec3VecNtNtB1b_6string6StringEEINtB4_5CachelB16_E3getB6_
FN:42,_RNvXs_NtCscyrExoi8aIO_18code_guardian_core5cacheINtB4_13InMemoryCachelINtNtCs8Ty2CzGA6U3_5alloc3vec3VecNtNtB1b_6string6StringEEINtB4_5CachelB16_E3setB6_
FN:133,_RNCNvNtNtCscyrExoi8aIO_18code_guardian_core5cache5testss_28test_cache_concurrent_access0B7_
FN:87,_RNvNtNtCscyrExoi8aIO_18code_guardian_core5cache5testss_16test_cache_clear
FN:114,_RNvNtNtCscyrExoi8aIO_18code_guardian_core5cache5testss_18test_cache_default
FN:123,_RNvNtNtCscyrExoi8aIO_18code_guardian_core5cache5testss_28test_cache_concurrent_access
FN:103,_RNvNtNtCscyrExoi8aIO_18code_guardian_core5cache5testss_31test_cache_with_different_types
FN:66,_RNvNtNtCscyrExoi8aIO_18code_guardian_core5cache5testss_37test_in_memory_cache_basic_operations
FNDA:0,_RNCNvXININtCs2kADRy9cGvI_18code_guardian_core5caches_0ppEINtB7_13InMemoryCacheppEINtB7_5CacheppE3get0B9_
FNDA:0,_RNvMNtCs2kADRy9cGvI_18code_guardian_core5cacheINtB2_13InMemoryCacheppE3newB4_
FNDA:0,_RNvXININtCs2kADRy9cGvI_18code_guardian_core5caches0_0ppEINtB5_13InMemoryCacheppENtNtCs66KPHxksi63_4core7default7Default7defaultB7_
FNDA:0,_RNvXININtCs2kADRy9cGvI_18code_guardian_core5caches_0ppEINtB5_13InMemoryCacheppEINtB5_5CacheppE3getB7_
FNDA:0,_RNvXININtCs2kADRy9cGvI_18code_guardian_core5caches_0ppEINtB5_13InMemoryCacheppEINtB5_5CacheppE3setB7_
FNDA:0,_RNvXININtCs2kADRy9cGvI_18code_guardian_core5caches_0ppEINtB5_13InMemoryCacheppEINtB5_5CacheppE5clearB7_
FNDA:26,_RNCNvXs_NtCscyrExoi8aIO_18code_guardian_core5cacheINtB6_13InMemoryCacheNtNtCs8Ty2CzGA6U3_5alloc6string6StringB17_EINtB6_5CacheB17_B17_E3get0B8_
FNDA:1,_RNCNvXs_NtCscyrExoi8aIO_18code_guardian_core5cacheINtB6_13InMemoryCacheNtNtCs8Ty2CzGA6U3_5alloc6string6StringlEINtB6_5CacheB17_lE3get0B8_
FNDA:1,_RNCNvXs_NtCscyrExoi8aIO_18code_guardian_core5cacheINtB6_13InMemoryCachelINtNtCs8Ty2CzGA6U3_5alloc3vec3VecNtNtB1d_6string6StringEEINtB6_5CachelB18_E3get0B8_
FNDA:3,_RNvMNtCscyrExoi8aIO_18code_guardian_core5cacheINtB2_13InMemoryCacheNtNtCs8Ty2CzGA6U3_5alloc6string6StringB13_E3newB4_
FNDA:1,_RNvMNtCscyrExoi8aIO_18code_guardian_core5cacheINtB2_13InMemoryCacheNtNtCs8Ty2CzGA6U3_5alloc6string6StringlE3newB4_
FNDA:1,_RNvMNtCscyrExoi8aIO_18code_guardian_core5cacheINtB2_13InMemoryCachelINtNtCs8Ty2CzGA6U3_5alloc3vec3VecNtNtB19_6string6StringEE3newB4_
FNDA:1,_RNvXs0_NtCscyrExoi8aIO_18code_guardian_core5cacheINtB5_13InMemoryCacheNtNtCs8Ty2CzGA6U3_5alloc6string6StringlENtNtCs66KPHxksi63_4core7default7Default7defaultB7_
FNDA:29,_RNvXs_NtCscyrExoi8aIO_18code_guardian_core5cacheINtB4_13InMemoryCacheNtNtCs8Ty2CzGA6U3_5alloc6string6StringB15_EINtB4_5CacheB15_B15_E3getB6_
FNDA:15,_RNvXs_NtCscyrExoi8aIO_18code_guardian_core5cacheINtB4_13InMemoryCacheNtNtCs8Ty2CzGA6U3_5alloc6string6StringB15_EINtB4_5CacheB15_B15_E3setB6_
FNDA:1,_RNvXs_NtCscyrExoi8aIO_18code_guardian_core5cacheINtB4_13InMemoryCacheNtNtCs8Ty2CzGA6U3_5alloc6string6StringB15_EINtB4_5CacheB15_B15_E5clearB6_
FNDA:2,_RNvXs_NtCscyrExoi8aIO_18code_guardian_core5cacheINtB4_13InMemoryCacheNtNtCs8Ty2CzGA6U3_5alloc6string6StringlEINtB4_5CacheB15_lE3getB6_
FNDA:1,_RNvXs_NtCscyrExoi8aIO_18code_guardian_core5cacheINtB4_13InMemoryCacheNtNtCs8Ty2CzGA6U3_5alloc6string6StringlEINtB4_5CacheB15_lE3setB6_
FNDA:2,_RNvXs_NtCscyrExoi8aIO_18code_guardian_core5cacheINtB4_13InMemoryCachelINtNtCs8Ty2CzGA6U3_5alloc3vec3VecNtNtB1b_6string6StringEEINtB4_5CachelB16_E3getB6_
FNDA:1,_RNvXs_NtCscyrExoi8aIO_18code_guardian_core5cacheINtB4_13InMemoryCachelINtNtCs8Ty2CzGA6U3_5alloc3vec3VecNtNtB1b_6string6StringEEINtB4_5CachelB16_E3setB6_
FNDA:10,_RNCNvNtNtCscyrExoi8aIO_18code_guardian_core5cache5testss_28test_cache_concurrent_access0B7_
FNDA:1,_RNvNtNtCscyrExoi8aIO_18code_guardian_core5cache5testss_16test_cache_clear
FNDA:1,_RNvNtNtCscyrExoi8aIO_18code_guardian_core5cache5testss_18test_cache_default
FNDA:1,_RNvNtNtCscyrExoi8aIO_18code_guardian_core5cache5testss_28test_cache_concurrent_access
FNDA:1,_RNvNtNtCscyrExoi8aIO_18code_guardian_core5cache5testss_31test_cache_with_different_types
FNDA:1,_RNvNtNtCscyrExoi8aIO_18code_guardian_core5cache5testss_37test_in_memory_cache_basic_operations
FNF:12
FNH:12
DA:26,5
DA:27,5
DA:28,5
DA:29,5
DA:30,5
DA:38,33
DA:39,33
DA:40,33
DA:42,17
DA:43,17
DA:44,17
DA:46,1
DA:47,1
DA:48,1
DA:56,1
DA:57,1
DA:58,1
DA:66,1
DA:67,1
DA:70,1
DA:73,1
DA:74,1
DA:77,1
DA:78,1
DA:81,1
DA:82,1
DA:83,1
DA:84,1
DA:87,1
DA:88,1
DA:90,1
DA:91,1
DA:93,1
DA:94,1
DA:96,1
DA:98,1
DA:99,1
DA:100,1
DA:103,1
DA:104,1
DA:106,1
DA:107,1
DA:109,1
DA:110,1
DA:111,1
DA:114,1
DA:115,1
DA:116,1
DA:118,1
DA:119,1
DA:120,1
DA:123,1
DA:127,1
DA:128,1
DA:131,11
DA:132,10
DA:133,10
DA:134,10
DA:135,10
DA:136,10
DA:137,10
DA:138,10
DA:139,10
DA:140,10
DA:143,11
DA:144,10
DA:145,10
DA:148,11
DA:149,10
DA:150,10
DA:151,10
DA:153,1
BRF:0
BRH:0
LF:74
LH:74
end_of_record
SF:/workspaces/code-guardian/crates/core/src/config.rs
FN:29,_RINvNtCs2kADRy9cGvI_18code_guardian_core6config11load_configNtNtCsiKSG5X70Gj7_3std4path7PathBufECsgJXiKT19grP_17code_guardian_cli
FN:45,_RNCINvNtCs2kADRy9cGvI_18code_guardian_core6config11load_configNtNtCsiKSG5X70Gj7_3std4path7PathBufE0CsgJXiKT19grP_17code_guardian_cli
FN:16,_RNvXNtCs2kADRy9cGvI_18code_guardian_core6configNtB2_6ConfigNtNtCs66KPHxksi63_4core7default7Default7default
FN:29,_RINvNtCs2kADRy9cGvI_18code_guardian_core6config11load_configpEB4_
FN:45,_RNCINvNtCs2kADRy9cGvI_18code_guardian_core6config11load_configpE0B6_
FN:16,_RNvXNtCscyrExoi8aIO_18code_guardian_core6configNtB2_6ConfigNtNtCs66KPHxksi63_4core7default7Default7default
FN:75,_RNvNtNtCscyrExoi8aIO_18code_guardian_core6config5testss_19test_default_config
FN:112,_RNvNtNtCscyrExoi8aIO_18code_guardian_core6config5testss_21test_load_config_json
FN:87,_RNvNtNtCscyrExoi8aIO_18code_guardian_core6config5testss_21test_load_config_toml
FN:137,_RNvNtNtCscyrExoi8aIO_18code_guardian_core6config5testss_24test_load_config_no_file
FN:150,_RNvNtNtCscyrExoi8aIO_18code_guardian_core6config5testss_35test_load_config_unsupported_format
FN:29,_RINvNtCscyrExoi8aIO_18code_guardian_core6config11load_configRNtNtCsiKSG5X70Gj7_3std4path7PathBufEB4_
FN:29,_RINvNtCscyrExoi8aIO_18code_guardian_core6config11load_configReEB4_
FN:45,_RNCINvNtCscyrExoi8aIO_18code_guardian_core6config11load_configRNtNtCsiKSG5X70Gj7_3std4path7PathBufE0B6_
FN:45,_RNCINvNtCscyrExoi8aIO_18code_guardian_core6config11load_configReE0B6_
FN:29,_RINvNtCs2kADRy9cGvI_18code_guardian_core6config11load_configNtNtCsiKSG5X70Gj7_3std4path7PathBufECs9djzN8x3YgW_26integration_workflow_tests
FN:45,_RNCINvNtCs2kADRy9cGvI_18code_guardian_core6config11load_configNtNtCsiKSG5X70Gj7_3std4path7PathBufE0Cs9djzN8x3YgW_26integration_workflow_tests
FNDA:9,_RINvNtCs2kADRy9cGvI_18code_guardian_core6config11load_configNtNtCsiKSG5X70Gj7_3std4path7PathBufECsgJXiKT19grP_17code_guardian_cli
FNDA:0,_RNCINvNtCs2kADRy9cGvI_18code_guardian_core6config11load_configNtNtCsiKSG5X70Gj7_3std4path7PathBufE0CsgJXiKT19grP_17code_guardian_cli
FNDA:0,_RNvXNtCs2kADRy9cGvI_18code_guardian_core6configNtB2_6ConfigNtNtCs66KPHxksi63_4core7default7Default7default
FNDA:0,_RINvNtCs2kADRy9cGvI_18code_guardian_core6config11load_configpEB4_
FNDA:0,_RNCINvNtCs2kADRy9cGvI_18code_guardian_core6config11load_configpE0B6_
FNDA:2,_RNvXNtCscyrExoi8aIO_18code_guardian_core6configNtB2_6ConfigNtNtCs66KPHxksi63_4core7default7Default7default
FNDA:1,_RNvNtNtCscyrExoi8aIO_18code_guardian_core6config5testss_19test_default_config
FNDA:1,_RNvNtNtCscyrExoi8aIO_18code_guardian_core6config5testss_21test_load_config_json
FNDA:1,_RNvNtNtCscyrExoi8aIO_18code_guardian_core6config5testss_21test_load_config_toml
FNDA:1,_RNvNtNtCscyrExoi8aIO_18code_guardian_core6config5testss_24test_load_config_no_file
FNDA:1,_RNvNtNtCscyrExoi8aIO_18code_guardian_core6config5testss_35test_load_config_unsupported_format
FNDA:3,_RINvNtCscyrExoi8aIO_18code_guardian_core6config11load_configRNtNtCsiKSG5X70Gj7_3std4path7PathBufEB4_
FNDA:1,_RINvNtCscyrExoi8aIO_18code_guardian_core6config11load_configReEB4_
FNDA:3,_RNCINvNtCscyrExoi8aIO_18code_guardian_core6config11load_configRNtNtCsiKSG5X70Gj7_3std4path7PathBufE0B6_
FNDA:0,_RNCINvNtCscyrExoi8aIO_18code_guardian_core6config11load_configReE0B6_
FNDA:13,_RINvNtCs2kADRy9cGvI_18code_guardian_core6config11load_configNtNtCsiKSG5X70Gj7_3std4path7PathBufECs9djzN8x3YgW_26integration_workflow_tests
FNDA:2,_RNCINvNtCs2kADRy9cGvI_18code_guardian_core6config11load_configNtNtCsiKSG5X70Gj7_3std4path7PathBufE0Cs9djzN8x3YgW_26integration_workflow_tests
FNF:8
FNH:8
DA:16,2
DA:17,2
DA:18,2
DA:19,2
DA:20,2
DA:21,2
DA:22,2
DA:23,2
DA:24,2
DA:25,2
DA:26,2
DA:29,26
DA:30,26
DA:33,26
DA:34,26
DA:35,26
DA:36,26
DA:37,26
DA:38,26
DA:39,26
DA:42,26
DA:43,5
DA:44,5
DA:45,5
DA:46,5
DA:47,5
DA:48,3
DA:49,3
DA:50,2
DA:51,1
DA:52,1
DA:54,1
DA:55,1
DA:56,1
DA:57,1
DA:60,0
DA:61,21
DA:63,25
DA:64,24
DA:65,24
DA:66,26
DA:75,1
DA:76,1
DA:77,1
DA:78,1
DA:79,1
DA:80,1
DA:81,1
DA:82,1
DA:83,1
DA:84,1
DA:87,1
DA:88,1
DA:89,1
DA:90,1
DA:91,1
DA:92,1
DA:93,1
DA:94,1
DA:95,1
DA:96,1
DA:97,1
DA:98,1
DA:99,1
DA:101,1
DA:102,1
DA:103,1
DA:104,1
DA:105,1
DA:106,1
DA:107,1
DA:108,1
DA:109,1
DA:112,1
DA:113,1
DA:114,1
DA:115,1
DA:116,1
DA:117,1
DA:118,1
DA:119,1
DA:120,1
DA:121,1
DA:122,1
DA:123,1
DA:124,1
DA:126,1
DA:127,1
DA:128,1
DA:129,1
DA:130,1
DA:131,1
DA:132,1
DA:133,1
DA:134,1
DA:137,1
DA:138,1
DA:139,1
DA:140,1
DA:141,1
DA:142,1
DA:143,1
DA:144,1
DA:145,1
DA:146,1
DA:147,1
DA:150,1
DA:151,1
DA:152,1
DA:153,1
DA:155,1
DA:156,1
DA:157,1
BRF:0
BRH:0
LF:114
LH:112
end_of_record
SF:/workspaces/code-guardian/crates/core/src/custom_detectors.rs
FN:183,_RINvMs2_NtCs2kADRy9cGvI_18code_guardian_core16custom_detectorsNtB6_21CustomDetectorManager12save_to_fileRNtNtCsiKSG5X70Gj7_3std4path7PathBufECsgJXiKT19grP_17code_guardian_cli
FN:155,_RINvMs2_NtCs2kADRy9cGvI_18code_guardian_core16custom_detectorsNtB6_21CustomDetectorManager14load_from_fileRNtNtCsiKSG5X70Gj7_3std4path7PathBufECsgJXiKT19grP_17code_guardian_cli
FN:187,_RNCINvMs2_NtCs2kADRy9cGvI_18code_guardian_core16custom_detectorsNtB8_21CustomDetectorManager12save_to_fileRNtNtCsiKSG5X70Gj7_3std4path7PathBufE0CsgJXiKT19grP_17code_guardian_cli
FN:191,_RNCINvMs2_NtCs2kADRy9cGvI_18code_guardian_core16custom_detectorsNtB8_21CustomDetectorManager12save_to_fileRNtNtCsiKSG5X70Gj7_3std4path7PathBufEs_0CsgJXiKT19grP_17code_guardian_cli
FN:160,_RNCINvMs2_NtCs2kADRy9cGvI_18code_guardian_core16custom_detectorsNtB8_21CustomDetectorManager14load_from_fileRNtNtCsiKSG5X70Gj7_3std4path7PathBufE0CsgJXiKT19grP_17code_guardian_cli
FN:183,_RINvMs2_NtCs2kADRy9cGvI_18code_guardian_core16custom_detectorsNtB6_21CustomDetectorManager12save_to_filepEB8_
FN:155,_RINvMs2_NtCs2kADRy9cGvI_18code_guardian_core16custom_detectorsNtB6_21CustomDetectorManager14load_from_filepEB8_
FN:187,_RNCINvMs2_NtCs2kADRy9cGvI_18code_guardian_core16custom_detectorsNtB8_21CustomDetectorManager12save_to_filepE0Ba_
FN:191,_RNCINvMs2_NtCs2kADRy9cGvI_18code_guardian_core16custom_detectorsNtB8_21CustomDetectorManager12save_to_filepEs_0Ba_
FN:160,_RNCINvMs2_NtCs2kADRy9cGvI_18code_guardian_core16custom_detectorsNtB8_21CustomDetectorManager14load_from_filepE0Ba_
FN:133,_RNCNvMs1_NtCs2kADRy9cGvI_18code_guardian_core16custom_detectorsNtB7_14CustomDetector27extract_message_from_groups0B9_
FN:231,_RNCNvMs2_NtCs2kADRy9cGvI_18code_guardian_core16custom_detectorsNtB7_21CustomDetectorManager13get_detectors0B9_
FN:232,_RNCNvMs2_NtCs2kADRy9cGvI_18code_guardian_core16custom_detectorsNtB7_21CustomDetectorManager13get_detectorss_0B9_
FN:238,_RNCNvMs2_NtCs2kADRy9cGvI_18code_guardian_core16custom_detectorsNtB7_21CustomDetectorManager14list_detectors0B9_
FN:76,_RNCNvMs_NtCs2kADRy9cGvI_18code_guardian_core16custom_detectorsNtB6_14CustomDetector19should_process_file0B8_
FN:80,_RNCNvMs_NtCs2kADRy9cGvI_18code_guardian_core16custom_detectorsNtB6_14CustomDetector19should_process_files_0B8_
FN:60,_RNCNvMs_NtCs2kADRy9cGvI_18code_guardian_core16custom_detectorsNtB6_14CustomDetector3new0B8_
FN:122,_RNvMs1_NtCs2kADRy9cGvI_18code_guardian_core16custom_detectorsNtB5_14CustomDetector27extract_message_from_groups
FN:209,_RNvMs2_NtCs2kADRy9cGvI_18code_guardian_core16custom_detectorsNtB5_21CustomDetectorManager12add_detector
FN:228,_RNvMs2_NtCs2kADRy9cGvI_18code_guardian_core16custom_detectorsNtB5_21CustomDetectorManager13get_detectors
FN:237,_RNvMs2_NtCs2kADRy9cGvI_18code_guardian_core16custom_detectorsNtB5_21CustomDetectorManager14list_detectors
FN:262,_RNvMs2_NtCs2kADRy9cGvI_18code_guardian_core16custom_detectorsNtB5_21CustomDetectorManager15create_examples
FN:218,_RNvMs2_NtCs2kADRy9cGvI_18code_guardian_core16custom_detectorsNtB5_21CustomDetectorManager15remove_detector
FN:242,_RNvMs2_NtCs2kADRy9cGvI_18code_guardian_core16custom_detectorsNtB5_21CustomDetectorManager20set_detector_enabled
FN:147,_RNvMs2_NtCs2kADRy9cGvI_18code_guardian_core16custom_detectorsNtB5_21CustomDetectorManager3new
FN:71,_RNvMs_NtCs2kADRy9cGvI_18code_guardian_core16custom_detectorsNtB4_14CustomDetector19should_process_file
FN:50,_RNvMs_NtCs2kADRy9cGvI_18code_guardian_core16custom_detectorsNtB4_14CustomDetector3new
FN:66,_RNvMs_NtCs2kADRy9cGvI_18code_guardian_core16custom_detectorsNtB4_14CustomDetector6config
FN:321,_RNvNtCs2kADRy9cGvI_18code_guardian_core16custom_detectors16find_line_column
FN:43,_RNvXNtCs2kADRy9cGvI_18code_guardian_core16custom_detectorsNtB2_14CustomDetectorNtNtCs66KPHxksi63_4core5clone5Clone5clone
FN:88,_RNvXs0_NtCs2kADRy9cGvI_18code_guardian_core16custom_detectorsNtB5_14CustomDetectorNtB7_15PatternDetector6detect
FN:315,_RNvXs3_NtCs2kADRy9cGvI_18code_guardian_core16custom_detectorsNtB5_21CustomDetectorManagerNtNtCs66KPHxksi63_4core7default7Default7default
FN:183,_RINvMs2_NtCs2kADRy9cGvI_18code_guardian_core16custom_detectorsNtB6_21CustomDetectorManager12save_to_fileRNtNtCsiKSG5X70Gj7_3std4path7PathBufECsbqVo1DIGE6C_17code_guardian_cli
FN:155,_RINvMs2_NtCs2kADRy9cGvI_18code_guardian_core16custom_detectorsNtB6_21CustomDetectorManager14load_from_fileRNtNtCsiKSG5X70Gj7_3std4path7PathBufECsbqVo1DIGE6C_17code_guardian_cli
FN:187,_RNCINvMs2_NtCs2kADRy9cGvI_18code_guardian_core16custom_detectorsNtB8_21CustomDetectorManager12save_to_fileRNtNtCsiKSG5X70Gj7_3std4path7PathBufE0CsbqVo1DIGE6C_17code_guardian_cli
FN:191,_RNCINvMs2_NtCs2kADRy9cGvI_18code_guardian_core16custom_detectorsNtB8_21CustomDetectorManager12save_to_fileRNtNtCsiKSG5X70Gj7_3std4path7PathBufEs_0CsbqVo1DIGE6C_17code_guardian_cli
FN:160,_RNCINvMs2_NtCs2kADRy9cGvI_18code_guardian_core16custom_detectorsNtB8_21CustomDetectorManager14load_from_fileRNtNtCsiKSG5X70Gj7_3std4path7PathBufE0CsbqVo1DIGE6C_17code_guardian_cli
FN:423,_RNvNtNtCscyrExoi8aIO_18code_guardian_core16custom_detectors5testss_18test_complex_regex
FN:402,_RNvNtNtCscyrExoi8aIO_18code_guardian_core16custom_detectors5testss_18test_empty_pattern
FN:588,_RNvNtNtCscyrExoi8aIO_18code_guardian_core16custom_detectors5testss_18test_invalid_regex
FN:445,_RNvNtNtCscyrExoi8aIO_18code_guardian_core16custom_detectors5testss_18test_large_content
FN:542,_RNvNtNtCscyrExoi8aIO_18code_guardian_core16custom_detectors5testss_19test_capture_groups
FN:492,_RNvNtNtCscyrExoi8aIO_18code_guardian_core16custom_detectors5testss_21test_case_insensitive
FN:390,_RNvNtNtCscyrExoi8aIO_18code_guardian_core16custom_detectors5testss_21test_detector_manager
FN:566,_RNvNtNtCscyrExoi8aIO_18code_guardian_core16custom_detectors5testss_22test_disabled_detector
FN:470,_RNvNtNtCscyrExoi8aIO_18code_guardian_core16custom_detectors5testss_22test_multiline_pattern
FN:346,_RNvNtNtCscyrExoi8aIO_18code_guardian_core16custom_detectors5testss_29test_custom_detector_creation
FN:366,_RNvNtNtCscyrExoi8aIO_18code_guardian_core16custom_detectors5testss_29test_custom_detector_matching
FN:514,_RNvNtNtCscyrExoi8aIO_18code_guardian_core16custom_detectors5testss_29test_file_extension_filtering
FN:183,_RINvMs2_NtCscyrExoi8aIO_18code_guardian_core16custom_detectorsNtB6_21CustomDetectorManager12save_to_filepEB8_
FN:155,_RINvMs2_NtCscyrExoi8aIO_18code_guardian_core16custom_detectorsNtB6_21CustomDetectorManager14load_from_filepEB8_
FN:187,_RNCINvMs2_NtCscyrExoi8aIO_18code_guardian_core16custom_detectorsNtB8_21CustomDetectorManager12save_to_filepE0Ba_
FN:191,_RNCINvMs2_NtCscyrExoi8aIO_18code_guardian_core16custom_detectorsNtB8_21CustomDetectorManager12save_to_filepEs_0Ba_
FN:160,_RNCINvMs2_NtCscyrExoi8aIO_18code_guardian_core16custom_detectorsNtB8_21CustomDetectorManager14load_from_filepE0Ba_
FN:218,_RNvMs2_NtCscyrExoi8aIO_18code_guardian_core16custom_detectorsNtB5_21CustomDetectorManager15remove_detector
FN:242,_RNvMs2_NtCscyrExoi8aIO_18code_guardian_core16custom_detectorsNtB5_21CustomDetectorManager20set_detector_enabled
FN:315,_RNvXs3_NtCscyrExoi8aIO_18code_guardian_core16custom_detectorsNtB5_21CustomDetectorManagerNtNtCs66KPHxksi63_4core7default7Default7default
FN:133,_RNCNvMs1_NtCscyrExoi8aIO_18code_guardian_core16custom_detectorsNtB7_14CustomDetector27extract_message_from_groups0B9_
FN:231,_RNCNvMs2_NtCscyrExoi8aIO_18code_guardian_core16custom_detectorsNtB7_21CustomDetectorManager13get_detectors0B9_
FN:232,_RNCNvMs2_NtCscyrExoi8aIO_18code_guardian_core16custom_detectorsNtB7_21CustomDetectorManager13get_detectorss_0B9_
FN:238,_RNCNvMs2_NtCscyrExoi8aIO_18code_guardian_core16custom_detectorsNtB7_21CustomDetectorManager14list_detectors0B9_
FN:76,_RNCNvMs_NtCscyrExoi8aIO_18code_guardian_core16custom_detectorsNtB6_14CustomDetector19should_process_file0B8_
FN:80,_RNCNvMs_NtCscyrExoi8aIO_18code_guardian_core16custom_detectorsNtB6_14CustomDetector19should_process_files_0B8_
FN:60,_RNCNvMs_NtCscyrExoi8aIO_18code_guardian_core16custom_detectorsNtB6_14CustomDetector3new0B8_
FN:122,_RNvMs1_NtCscyrExoi8aIO_18code_guardian_core16custom_detectorsNtB5_14CustomDetector27extract_message_from_groups
FN:209,_RNvMs2_NtCscyrExoi8aIO_18code_guardian_core16custom_detectorsNtB5_21CustomDetectorManager12add_detector
FN:228,_RNvMs2_NtCscyrExoi8aIO_18code_guardian_core16custom_detectorsNtB5_21CustomDetectorManager13get_detectors
FN:237,_RNvMs2_NtCscyrExoi8aIO_18code_guardian_core16custom_detectorsNtB5_21CustomDetectorManager14list_detectors
FN:262,_RNvMs2_NtCscyrExoi8aIO_18code_guardian_core16custom_detectorsNtB5_21CustomDetectorManager15create_examples
FN:147,_RNvMs2_NtCscyrExoi8aIO_18code_guardian_core16custom_detectorsNtB5_21CustomDetectorManager3new
FN:71,_RNvMs_NtCscyrExoi8aIO_18code_guardian_core16custom_detectorsNtB4_14CustomDetector19should_process_file
FN:50,_RNvMs_NtCscyrExoi8aIO_18code_guardian_core16custom_detectorsNtB4_14CustomDetector3new
FN:66,_RNvMs_NtCscyrExoi8aIO_18code_guardian_core16custom_detectorsNtB4_14CustomDetector6config
FN:321,_RNvNtCscyrExoi8aIO_18code_guardian_core16custom_detectors16find_line_column
FN:43,_RNvXNtCscyrExoi8aIO_18code_guardian_core16custom_detectorsNtB2_14CustomDetectorNtNtCs66KPHxksi63_4core5clone5Clone5clone
FN:88,_RNvXs0_NtCscyrExoi8aIO_18code_guardian_core16custom_detectorsNtB5_14CustomDetectorNtB7_15PatternDetector6detect
FNDA:3,_RINvMs2_NtCs2kADRy9cGvI_18code_guardian_core16custom_detectorsNtB6_21CustomDetectorManager12save_to_fileRNtNtCsiKSG5X70Gj7_3std4path7PathBufECsgJXiKT19grP_17code_guardian_cli
FNDA:3,_RINvMs2_NtCs2kADRy9cGvI_18code_guardian_core16custom_detectorsNtB6_21CustomDetectorManager14load_from_fileRNtNtCsiKSG5X70Gj7_3std4path7PathBufECsgJXiKT19grP_17code_guardian_cli
FNDA:9,_RNCINvMs2_NtCs2kADRy9cGvI_18code_guardian_core16custom_detectorsNtB8_21CustomDetectorManager12save_to_fileRNtNtCsiKSG5X70Gj7_3std4path7PathBufE0CsgJXiKT19grP_17code_guardian_cli
FNDA:3,_RNCINvMs2_NtCs2kADRy9cGvI_18code_guardian_core16custom_detectorsNtB8_21CustomDetectorManager12save_to_fileRNtNtCsiKSG5X70Gj7_3std4path7PathBufEs_0CsgJXiKT19grP_17code_guardian_cli
FNDA:3,_RNCINvMs2_NtCs2kADRy9cGvI_18code_guardian_core16custom_detectorsNtB8_21CustomDetectorManager14load_from_fileRNtNtCsiKSG5X70Gj7_3std4path7PathBufE0CsgJXiKT19grP_17code_guardian_cli
FNDA:0,_RINvMs2_NtCs2kADRy9cGvI_18code_guardian_core16custom_detectorsNtB6_21CustomDetectorManager12save_to_filepEB8_
FNDA:0,_RINvMs2_NtCs2kADRy9cGvI_18code_guardian_core16custom_detectorsNtB6_21CustomDetectorManager14load_from_filepEB8_
FNDA:0,_RNCINvMs2_NtCs2kADRy9cGvI_18code_guardian_core16custom_detectorsNtB8_21CustomDetectorManager12save_to_filepE0Ba_
FNDA:0,_RNCINvMs2_NtCs2kADRy9cGvI_18code_guardian_core16custom_detectorsNtB8_21CustomDetectorManager12save_to_filepEs_0Ba_
FNDA:0,_RNCINvMs2_NtCs2kADRy9cGvI_18code_guardian_core16custom_detectorsNtB8_21CustomDetectorManager14load_from_filepE0Ba_
FNDA:0,_RNCNvMs1_NtCs2kADRy9cGvI_18code_guardian_core16custom_detectorsNtB7_14CustomDetector27extract_message_from_groups0B9_
FNDA:4,_RNCNvMs2_NtCs2kADRy9cGvI_18code_guardian_core16custom_detectorsNtB7_21CustomDetectorManager13get_detectors0B9_
FNDA:4,_RNCNvMs2_NtCs2kADRy9cGvI_18code_guardian_core16custom_detectorsNtB7_21CustomDetectorManager13get_detectorss_0B9_
FNDA:3,_RNCNvMs2_NtCs2kADRy9cGvI_18code_guardian_core16custom_detectorsNtB7_21CustomDetectorManager14list_detectors0B9_
FNDA:4,_RNCNvMs_NtCs2kADRy9cGvI_18code_guardian_core16custom_detectorsNtB6_14CustomDetector19should_process_file0B8_
FNDA:6,_RNCNvMs_NtCs2kADRy9cGvI_18code_guardian_core16custom_detectorsNtB6_14CustomDetector19should_process_files_0B8_
FNDA:0,_RNCNvMs_NtCs2kADRy9cGvI_18code_guardian_core16custom_detectorsNtB6_14CustomDetector3new0B8_
FNDA:0,_RNvMs1_NtCs2kADRy9cGvI_18code_guardian_core16custom_detectorsNtB5_14CustomDetector27extract_message_from_groups
FNDA:12,_RNvMs2_NtCs2kADRy9cGvI_18code_guardian_core16custom_detectorsNtB5_21CustomDetectorManager12add_detector
FNDA:22,_RNvMs2_NtCs2kADRy9cGvI_18code_guardian_core16custom_detectorsNtB5_21CustomDetectorManager13get_detectors
FNDA:2,_RNvMs2_NtCs2kADRy9cGvI_18code_guardian_core16custom_detectorsNtB5_21CustomDetectorManager14list_detectors
FNDA:4,_RNvMs2_NtCs2kADRy9cGvI_18code_guardian_core16custom_detectorsNtB5_21CustomDetectorManager15create_examples
FNDA:0,_RNvMs2_NtCs2kADRy9cGvI_18code_guardian_core16custom_detectorsNtB5_21CustomDetectorManager15remove_detector
FNDA:0,_RNvMs2_NtCs2kADRy9cGvI_18code_guardian_core16custom_detectorsNtB5_21CustomDetectorManager20set_detector_enabled
FNDA:31,_RNvMs2_NtCs2kADRy9cGvI_18code_guardian_core16custom_detectorsNtB5_21CustomDetectorManager3new
FNDA:5,_RNvMs_NtCs2kADRy9cGvI_18code_guardian_core16custom_detectorsNtB4_14CustomDetector19should_process_file
FNDA:23,_RNvMs_NtCs2kADRy9cGvI_18code_guardian_core16custom_detectorsNtB4_14CustomDetector3new
FNDA:19,_RNvMs_NtCs2kADRy9cGvI_18code_guardian_core16custom_detectorsNtB4_14CustomDetector6config
FNDA:0,_RNvNtCs2kADRy9cGvI_18code_guardian_core16custom_detectors16find_line_column
FNDA:4,_RNvXNtCs2kADRy9cGvI_18code_guardian_core16custom_detectorsNtB2_14CustomDetectorNtNtCs66KPHxksi63_4core5clone5Clone5clone
FNDA:5,_RNvXs0_NtCs2kADRy9cGvI_18code_guardian_core16custom_detectorsNtB5_14CustomDetectorNtB7_15PatternDetector6detect
FNDA:0,_RNvXs3_NtCs2kADRy9cGvI_18code_guardian_core16custom_detectorsNtB5_21CustomDetectorManagerNtNtCs66KPHxksi63_4core7default7Default7default
FNDA:1,_RINvMs2_NtCs2kADRy9cGvI_18code_guardian_core16custom_detectorsNtB6_21CustomDetectorManager12save_to_fileRNtNtCsiKSG5X70Gj7_3std4path7PathBufECsbqVo1DIGE6C_17code_guardian_cli
FNDA:3,_RINvMs2_NtCs2kADRy9cGvI_18code_guardian_core16custom_detectorsNtB6_21CustomDetectorManager14load_from_fileRNtNtCsiKSG5X70Gj7_3std4path7PathBufECsbqVo1DIGE6C_17code_guardian_cli
FNDA:3,_RNCINvMs2_NtCs2kADRy9cGvI_18code_guardian_core16custom_detectorsNtB8_21CustomDetectorManager12save_to_fileRNtNtCsiKSG5X70Gj7_3std4path7PathBufE0CsbqVo1DIGE6C_17code_guardian_cli
FNDA:1,_RNCINvMs2_NtCs2kADRy9cGvI_18code_guardian_core16custom_detectorsNtB8_21CustomDetectorManager12save_to_fileRNtNtCsiKSG5X70Gj7_3std4path7PathBufEs_0CsbqVo1DIGE6C_17code_guardian_cli
FNDA:1,_RNCINvMs2_NtCs2kADRy9cGvI_18code_guardian_core16custom_detectorsNtB8_21CustomDetectorManager14load_from_fileRNtNtCsiKSG5X70Gj7_3std4path7PathBufE0CsbqVo1DIGE6C_17code_guardian_cli
FNDA:1,_RNvNtNtCscyrExoi8aIO_18code_guardian_core16custom_detectors5testss_18test_complex_regex
FNDA:1,_RNvNtNtCscyrExoi8aIO_18code_guardian_core16custom_detectors5testss_18test_empty_pattern
FNDA:1,_RNvNtNtCscyrExoi8aIO_18code_guardian_core16custom_detectors5testss_18test_invalid_regex
FNDA:1,_RNvNtNtCscyrExoi8aIO_18code_guardian_core16custom_detectors5testss_18test_large_content
FNDA:1,_RNvNtNtCscyrExoi8aIO_18code_guardian_core16custom_detectors5testss_19test_capture_groups
FNDA:1,_RNvNtNtCscyrExoi8aIO_18code_guardian_core16custom_detectors5testss_21test_case_insensitive
FNDA:1,_RNvNtNtCscyrExoi8aIO_18code_guardian_core16custom_detectors5testss_21test_detector_manager
FNDA:1,_RNvNtNtCscyrExoi8aIO_18code_guardian_core16custom_detectors5testss_22test_disabled_detector
FNDA:1,_RNvNtNtCscyrExoi8aIO_18code_guardian_core16custom_detectors5testss_22test_multiline_pattern
FNDA:1,_RNvNtNtCscyrExoi8aIO_18code_guardian_core16custom_detectors5testss_29test_custom_detector_creation
FNDA:1,_RNvNtNtCscyrExoi8aIO_18code_guardian_core16custom_detectors5testss_29test_custom_detector_matching
FNDA:1,_RNvNtNtCscyrExoi8aIO_18code_guardian_core16custom_detectors5testss_29test_file_extension_filtering
FNDA:0,_RINvMs2_NtCscyrExoi8aIO_18code_guardian_core16custom_detectorsNtB6_21CustomDetectorManager12save_to_filepEB8_
FNDA:0,_RINvMs2_NtCscyrExoi8aIO_18code_guardian_core16custom_detectorsNtB6_21CustomDetectorManager14load_from_filepEB8_
FNDA:0,_RNCINvMs2_NtCscyrExoi8aIO_18code_guardian_core16custom_detectorsNtB8_21CustomDetectorManager12save_to_filepE0Ba_
FNDA:0,_RNCINvMs2_NtCscyrExoi8aIO_18code_guardian_core16custom_detectorsNtB8_21CustomDetectorManager12save_to_filepEs_0Ba_
FNDA:0,_RNCINvMs2_NtCscyrExoi8aIO_18code_guardian_core16custom_detectorsNtB8_21CustomDetectorManager14load_from_filepE0Ba_
FNDA:0,_RNvMs2_NtCscyrExoi8aIO_18code_guardian_core16custom_detectorsNtB5_21CustomDetectorManager15remove_detector
FNDA:0,_RNvMs2_NtCscyrExoi8aIO_18code_guardian_core16custom_detectorsNtB5_21CustomDetectorManager20set_detector_enabled
FNDA:0,_RNvXs3_NtCscyrExoi8aIO_18code_guardian_core16custom_detectorsNtB5_21CustomDetectorManagerNtNtCs66KPHxksi63_4core7default7Default7default
FNDA:0,_RNCNvMs1_NtCscyrExoi8aIO_18code_guardian_core16custom_detectorsNtB7_14CustomDetector27extract_message_from_groups0B9_
FNDA:3,_RNCNvMs2_NtCscyrExoi8aIO_18code_guardian_core16custom_detectorsNtB7_21CustomDetectorManager13get_detectors0B9_
FNDA:3,_RNCNvMs2_NtCscyrExoi8aIO_18code_guardian_core16custom_detectorsNtB7_21CustomDetectorManager13get_detectorss_0B9_
FNDA:3,_RNCNvMs2_NtCscyrExoi8aIO_18code_guardian_core16custom_detectorsNtB7_21CustomDetectorManager14list_detectors0B9_
FNDA:4,_RNCNvMs_NtCscyrExoi8aIO_18code_guardian_core16custom_detectorsNtB6_14CustomDetector19should_process_file0B8_
FNDA:4,_RNCNvMs_NtCscyrExoi8aIO_18code_guardian_core16custom_detectorsNtB6_14CustomDetector19should_process_files_0B8_
FNDA:1,_RNCNvMs_NtCscyrExoi8aIO_18code_guardian_core16custom_detectorsNtB6_14CustomDetector3new0B8_
FNDA:1,_RNvMs1_NtCscyrExoi8aIO_18code_guardian_core16custom_detectorsNtB5_14CustomDetector27extract_message_from_groups
FNDA:3,_RNvMs2_NtCscyrExoi8aIO_18code_guardian_core16custom_detectorsNtB5_21CustomDetectorManager12add_detector
FNDA:1,_RNvMs2_NtCscyrExoi8aIO_18code_guardian_core16custom_detectorsNtB5_21CustomDetectorManager13get_detectors
FNDA:2,_RNvMs2_NtCscyrExoi8aIO_18code_guardian_core16custom_detectorsNtB5_21CustomDetectorManager14list_detectors
FNDA:1,_RNvMs2_NtCscyrExoi8aIO_18code_guardian_core16custom_detectorsNtB5_21CustomDetectorManager15create_examples
FNDA:1,_RNvMs2_NtCscyrExoi8aIO_18code_guardian_core16custom_detectorsNtB5_21CustomDetectorManager3new
FNDA:8,_RNvMs_NtCscyrExoi8aIO_18code_guardian_core16custom_detectorsNtB4_14CustomDetector19should_process_file
FNDA:17,_RNvMs_NtCscyrExoi8aIO_18code_guardian_core16custom_detectorsNtB4_14CustomDetector3new
FNDA:6,_RNvMs_NtCscyrExoi8aIO_18code_guardian_core16custom_detectorsNtB4_14CustomDetector6config
FNDA:8,_RNvNtCscyrExoi8aIO_18code_guardian_core16custom_detectors16find_line_column
FNDA:3,_RNvXNtCscyrExoi8aIO_18code_guardian_core16custom_detectorsNtB2_14CustomDetectorNtNtCs66KPHxksi63_4core5clone5Clone5clone
FNDA:9,_RNvXs0_NtCscyrExoi8aIO_18code_guardian_core16custom_detectorsNtB5_14CustomDetectorNtB7_15PatternDetector6detect
FNF:39
FNH:35
DA:43,7
DA:44,7
DA:45,7
DA:50,40
DA:51,40
DA:54,40
DA:55,40
DA:56,40
DA:58,40
DA:59,40
DA:60,40
DA:62,39
DA:63,40
DA:66,25
DA:67,25
DA:68,25
DA:71,13
DA:72,13
DA:73,5
DA:74,8
DA:76,8
DA:77,8
DA:78,8
DA:79,8
DA:80,10
DA:82,0
DA:84,13
DA:88,14
DA:89,14
DA:90,6
DA:91,8
DA:93,8
DA:95,8
DA:96,8
DA:98,8
DA:101,8
DA:102,1
DA:104,7
DA:107,8
DA:108,8
DA:109,8
DA:110,8
DA:111,8
DA:112,8
DA:113,8
DA:114,0
DA:117,8
DA:118,14
DA:122,1
DA:123,1
DA:125,3
DA:126,2
DA:127,2
DA:128,2
DA:131,1
DA:132,0
DA:133,0
DA:135,1
DA:137,1
DA:147,32
DA:148,32
DA:149,32
DA:150,32
DA:151,32
DA:152,32
DA:155,6
DA:156,6
DA:157,6
DA:159,3
DA:160,4
DA:161,4
DA:162,0
DA:163,0
DA:164,0
DA:167,10
DA:168,7
DA:169,7
DA:172,3
DA:173,3
DA:174,3
DA:175,3
DA:176,3
DA:179,3
DA:180,6
DA:183,4
DA:184,4
DA:185,4
DA:186,4
DA:187,12
DA:188,4
DA:190,4
DA:191,4
DA:192,4
DA:193,0
DA:194,0
DA:195,0
DA:198,4
DA:199,4
DA:200,4
DA:201,4
DA:202,4
DA:205,4
DA:206,4
DA:209,15
DA:210,15
DA:211,15
DA:212,15
DA:213,15
DA:214,15
DA:215,15
DA:218,0
DA:219,0
DA:220,0
DA:221,0
DA:223,0
DA:225,0
DA:228,23
DA:229,23
DA:230,23
DA:231,23
DA:232,23
DA:233,23
DA:234,23
DA:237,4
DA:238,6
DA:239,4
DA:242,0
DA:243,0
DA:246,0
DA:247,0
DA:248,0
DA:249,0
DA:250,0
DA:251,0
DA:252,0
DA:255,0
DA:257,0
DA:259,0
DA:262,5
DA:263,5
DA:264,5
DA:265,5
DA:266,5
DA:267,5
DA:268,5
DA:269,5
DA:270,5
DA:271,5
DA:272,5
DA:273,5
DA:274,5
DA:275,5
DA:276,5
DA:277,5
DA:278,5
DA:279,5
DA:280,5
DA:281,5
DA:282,5
DA:283,5
DA:284,5
DA:285,5
DA:286,5
DA:287,5
DA:288,5
DA:289,5
DA:290,5
DA:291,5
DA:292,5
DA:293,5
DA:294,5
DA:295,5
DA:296,5
DA:297,5
DA:298,5
DA:299,5
DA:300,5
DA:301,5
DA:302,5
DA:303,5
DA:306,20
DA:307,15
DA:310,5
DA:311,5
DA:315,0
DA:316,0
DA:317,0
DA:321,8
DA:322,8
DA:323,8
DA:325,100039
DA:326,100039
DA:327,8
DA:328,100031
DA:330,100031
DA:331,10001
DA:332,10001
DA:333,90030
DA:334,90030
DA:335,90030
DA:338,8
DA:339,8
DA:346,1
DA:347,1
DA:348,1
DA:349,1
DA:350,1
DA:351,1
DA:352,1
DA:353,1
DA:354,1
DA:355,1
DA:356,1
DA:357,1
DA:358,1
DA:359,1
DA:361,1
DA:362,1
DA:363,1
DA:366,1
DA:367,1
DA:368,1
DA:369,1
DA:370,1
DA:371,1
DA:372,1
DA:373,1
DA:374,1
DA:375,1
DA:376,1
DA:377,1
DA:378,1
DA:379,1
DA:381,1
DA:382,1
DA:383,1
DA:385,1
DA:386,1
DA:387,1
DA:390,1
DA:391,1
DA:392,1
DA:394,1
DA:395,1
DA:397,1
DA:398,1
DA:399,1
DA:402,1
DA:403,1
DA:404,1
DA:405,1
DA:406,1
DA:407,1
DA:408,1
DA:409,1
DA:410,1
DA:411,1
DA:412,1
DA:413,1
DA:414,1
DA:415,1
DA:417,1
DA:419,1
DA:420,1
DA:423,1
DA:424,1
DA:425,1
DA:426,1
DA:427,1
DA:428,1
DA:429,1
DA:430,1
DA:431,1
DA:432,1
DA:433,1
DA:434,1
DA:435,1
DA:436,1
DA:438,1
DA:439,1
DA:440,1
DA:441,1
DA:442,1
DA:445,1
DA:446,1
DA:447,1
DA:448,1
DA:449,1
DA:450,1
DA:451,1
DA:452,1
DA:453,1
DA:454,1
DA:455,1
DA:456,1
DA:457,1
DA:458,1
DA:460,1
DA:461,1
DA:462,1
DA:463,1
DA:464,1
DA:465,1
DA:466,1
DA:467,1
DA:470,1
DA:471,1
DA:472,1
DA:473,1
DA:474,1
DA:475,1
DA:476,1
DA:477,1
DA:478,1
DA:479,1
DA:480,1
DA:481,1
DA:482,1
DA:483,1
DA:485,1
DA:486,1
DA:487,1
DA:488,1
DA:489,1
DA:492,1
DA:493,1
DA:494,1
DA:495,1
DA:496,1
DA:497,1
DA:498,1
DA:499,1
DA:500,1
DA:501,1
DA:502,1
DA:503,1
DA:504,1
DA:505,1
DA:507,1
DA:508,1
DA:509,1
DA:510,1
DA:511,1
DA:514,1
DA:515,1
DA:516,1
DA:517,1
DA:518,1
DA:519,1
DA:520,1
DA:521,1
DA:522,1
DA:523,1
DA:524,1
DA:525,1
DA:526,1
DA:527,1
DA:529,1
DA:530,1
DA:533,1
DA:534,1
DA:537,1
DA:538,1
DA:539,1
DA:542,1
DA:543,1
DA:544,1
DA:545,1
DA:546,1
DA:547,1
DA:548,1
DA:549,1
DA:550,1
DA:551,1
DA:552,1
DA:553,1
DA:554,1
DA:555,1
DA:557,1
DA:558,1
DA:559,1
DA:560,1
DA:561,1
DA:562,1
DA:563,1
DA:566,1
DA:567,1
DA:568,1
DA:569,1
DA:570,1
DA:571,1
DA:572,1
DA:573,1
DA:574,1
DA:575,1
DA:576,1
DA:577,1
DA:578,1
DA:579,1
DA:581,1
DA:582,1
DA:583,1
DA:584,1
DA:585,1
DA:588,1
DA:589,1
DA:590,1
DA:591,1
DA:592,1
DA:593,1
DA:594,1
DA:595,1
DA:596,1
DA:597,1
DA:598,1
DA:599,1
DA:600,1
DA:601,1
DA:603,1
DA:604,1
DA:605,1
BRF:0
BRH:0
LF:431
LH:399
end_of_record
SF:/workspaces/code-guardian/crates/core/src/detector_factory.rs
FN:158,_RNvMNtCs2kADRy9cGvI_18code_guardian_core16detector_factoryNtB2_15DetectorFactory15create_detector
FN:12,_RNvMNtCs2kADRy9cGvI_18code_guardian_core16detector_factoryNtB2_15DetectorFactory16create_detectors
FN:28,_RNvMNtCs2kADRy9cGvI_18code_guardian_core16detector_factoryNtB2_15DetectorFactory24create_default_detectors
FN:96,_RNvMNtCs2kADRy9cGvI_18code_guardian_core16detector_factoryNtB2_15DetectorFactory25create_security_detectors
FN:126,_RNvMNtCs2kADRy9cGvI_18code_guardian_core16detector_factoryNtB2_15DetectorFactory28create_llm_quality_detectors
FN:149,_RNvMNtCs2kADRy9cGvI_18code_guardian_core16detector_factoryNtB2_15DetectorFactory28create_performance_detectors
FN:106,_RNvMNtCs2kADRy9cGvI_18code_guardian_core16detector_factoryNtB2_15DetectorFactory29create_llm_security_detectors
FN:33,_RNvMNtCs2kADRy9cGvI_18code_guardian_core16detector_factoryNtB2_15DetectorFactory30create_comprehensive_detectors
FN:72,_RNvMNtCs2kADRy9cGvI_18code_guardian_core16detector_factoryNtB2_15DetectorFactory33create_production_ready_detectors
FN:121,_RNvMNtCs2kADRy9cGvI_18code_guardian_core16detector_factoryNtB2_15DetectorFactory34create_llm_comprehensive_detectors
FN:140,_RNvMNtCs2kADRy9cGvI_18code_guardian_core16detector_factoryNtB2_15DetectorFactory42create_production_ready_with_llm_detectors
FN:283,_RNvMs_NtCs2kADRy9cGvI_18code_guardian_core16detector_factoryNtB4_15DetectorProfile13get_detectors
FN:158,_RNvMNtCscyrExoi8aIO_18code_guardian_core16detector_factoryNtB2_15DetectorFactory15create_detector
FN:12,_RNvMNtCscyrExoi8aIO_18code_guardian_core16detector_factoryNtB2_15DetectorFactory16create_detectors
FN:28,_RNvMNtCscyrExoi8aIO_18code_guardian_core16detector_factoryNtB2_15DetectorFactory24create_default_detectors
FN:96,_RNvMNtCscyrExoi8aIO_18code_guardian_core16detector_factoryNtB2_15DetectorFactory25create_security_detectors
FN:126,_RNvMNtCscyrExoi8aIO_18code_guardian_core16detector_factoryNtB2_15DetectorFactory28create_llm_quality_detectors
FN:149,_RNvMNtCscyrExoi8aIO_18code_guardian_core16detector_factoryNtB2_15DetectorFactory28create_performance_detectors
FN:106,_RNvMNtCscyrExoi8aIO_18code_guardian_core16detector_factoryNtB2_15DetectorFactory29create_llm_security_detectors
FN:33,_RNvMNtCscyrExoi8aIO_18code_guardian_core16detector_factoryNtB2_15DetectorFactory30create_comprehensive_detectors
FN:72,_RNvMNtCscyrExoi8aIO_18code_guardian_core16detector_factoryNtB2_15DetectorFactory33create_production_ready_detectors
FN:121,_RNvMNtCscyrExoi8aIO_18code_guardian_core16detector_factoryNtB2_15DetectorFactory34create_llm_comprehensive_detectors
FN:140,_RNvMNtCscyrExoi8aIO_18code_guardian_core16detector_factoryNtB2_15DetectorFactory42create_production_ready_with_llm_detectors
FN:283,_RNvMs_NtCscyrExoi8aIO_18code_guardian_core16detector_factoryNtB4_15DetectorProfile13get_detectors
FN:320,_RNvNtNtCscyrExoi8aIO_18code_guardian_core16detector_factory5testss_22test_default_detectors
FN:338,_RNvNtNtCscyrExoi8aIO_18code_guardian_core16detector_factory5testss_22test_detector_profiles
FN:332,_RNvNtNtCscyrExoi8aIO_18code_guardian_core16detector_factory5testss_23test_security_detectors
FN:326,_RNvNtNtCscyrExoi8aIO_18code_guardian_core16detector_factory5testss_28test_comprehensive_detectors
FN:397,_RNvNtNtCscyrExoi8aIO_18code_guardian_core16detector_factory5testss_34test_custom_detector_invalid_regex
FN:346,_RNvNtNtCscyrExoi8aIO_18code_guardian_core16detector_factory5testss_34test_factory_with_custom_detectors
FN:362,_RNvNtNtCscyrExoi8aIO_18code_guardian_core16detector_factory5testss_37test_custom_detector_creation_success
FN:389,_RNvNtNtCscyrExoi8aIO_18code_guardian_core16detector_factory5testss_39test_custom_detector_creation_no_config
FN:377,_RNvNtNtCscyrExoi8aIO_18code_guardian_core16detector_factory5testss_45test_custom_detector_creation_missing_pattern
FNDA:0,_RNvMNtCs2kADRy9cGvI_18code_guardian_core16detector_factoryNtB2_15DetectorFactory15create_detector
FNDA:0,_RNvMNtCs2kADRy9cGvI_18code_guardian_core16detector_factoryNtB2_15DetectorFactory16create_detectors
FNDA:36,_RNvMNtCs2kADRy9cGvI_18code_guardian_core16detector_factoryNtB2_15DetectorFactory24create_default_detectors
FNDA:5,_RNvMNtCs2kADRy9cGvI_18code_guardian_core16detector_factoryNtB2_15DetectorFactory25create_security_detectors
FNDA:0,_RNvMNtCs2kADRy9cGvI_18code_guardian_core16detector_factoryNtB2_15DetectorFactory28create_llm_quality_detectors
FNDA:6,_RNvMNtCs2kADRy9cGvI_18code_guardian_core16detector_factoryNtB2_15DetectorFactory28create_performance_detectors
FNDA:0,_RNvMNtCs2kADRy9cGvI_18code_guardian_core16detector_factoryNtB2_15DetectorFactory29create_llm_security_detectors
FNDA:11,_RNvMNtCs2kADRy9cGvI_18code_guardian_core16detector_factoryNtB2_15DetectorFactory30create_comprehensive_detectors
FNDA:13,_RNvMNtCs2kADRy9cGvI_18code_guardian_core16detector_factoryNtB2_15DetectorFactory33create_production_ready_detectors
FNDA:0,_RNvMNtCs2kADRy9cGvI_18code_guardian_core16detector_factoryNtB2_15DetectorFactory34create_llm_comprehensive_detectors
FNDA:0,_RNvMNtCs2kADRy9cGvI_18code_guardian_core16detector_factoryNtB2_15DetectorFactory42create_production_ready_with_llm_detectors
FNDA:52,_RNvMs_NtCs2kADRy9cGvI_18code_guardian_core16detector_factoryNtB4_15DetectorProfile13get_detectors
FNDA:9,_RNvMNtCscyrExoi8aIO_18code_guardian_core16detector_factoryNtB2_15DetectorFactory15create_detector
FNDA:2,_RNvMNtCscyrExoi8aIO_18code_guardian_core16detector_factoryNtB2_15DetectorFactory16create_detectors
FNDA:2,_RNvMNtCscyrExoi8aIO_18code_guardian_core16detector_factoryNtB2_15DetectorFactory24create_default_detectors
FNDA:1,_RNvMNtCscyrExoi8aIO_18code_guardian_core16detector_factoryNtB2_15DetectorFactory25create_security_detectors
FNDA:0,_RNvMNtCscyrExoi8aIO_18code_guardian_core16detector_factoryNtB2_15DetectorFactory28create_llm_quality_detectors
FNDA:0,_RNvMNtCscyrExoi8aIO_18code_guardian_core16detector_factoryNtB2_15DetectorFactory28create_performance_detectors
FNDA:0,_RNvMNtCscyrExoi8aIO_18code_guardian_core16detector_factoryNtB2_15DetectorFactory29create_llm_security_detectors
FNDA:2,_RNvMNtCscyrExoi8aIO_18code_guardian_core16detector_factoryNtB2_15DetectorFactory30create_comprehensive_detectors
FNDA:1,_RNvMNtCscyrExoi8aIO_18code_guardian_core16detector_factoryNtB2_15DetectorFactory33create_production_ready_detectors
FNDA:0,_RNvMNtCscyrExoi8aIO_18code_guardian_core16detector_factoryNtB2_15DetectorFactory34create_llm_comprehensive_detectors
FNDA:0,_RNvMNtCscyrExoi8aIO_18code_guardian_core16detector_factoryNtB2_15DetectorFactory42create_production_ready_with_llm_detectors
FNDA:2,_RNvMs_NtCscyrExoi8aIO_18code_guardian_core16detector_factoryNtB4_15DetectorProfile13get_detectors
FNDA:1,_RNvNtNtCscyrExoi8aIO_18code_guardian_core16detector_factory5testss_22test_default_detectors
FNDA:1,_RNvNtNtCscyrExoi8aIO_18code_guardian_core16detector_factory5testss_22test_detector_profiles
FNDA:1,_RNvNtNtCscyrExoi8aIO_18code_guardian_core16detector_factory5testss_23test_security_detectors
FNDA:1,_RNvNtNtCscyrExoi8aIO_18code_guardian_core16detector_factory5testss_28test_comprehensive_detectors
FNDA:1,_RNvNtNtCscyrExoi8aIO_18code_guardian_core16detector_factory5testss_34test_custom_detector_invalid_regex
FNDA:1,_RNvNtNtCscyrExoi8aIO_18code_guardian_core16detector_factory5testss_34test_factory_with_custom_detectors
FNDA:1,_RNvNtNtCscyrExoi8aIO_18code_guardian_core16detector_factory5testss_37test_custom_detector_creation_success
FNDA:1,_RNvNtNtCscyrExoi8aIO_18code_guardian_core16detector_factory5testss_39test_custom_detector_creation_no_config
FNDA:1,_RNvNtNtCscyrExoi8aIO_18code_guardian_core16detector_factory5testss_45test_custom_detector_creation_missing_pattern
FNF:21
FNH:17
DA:12,2
DA:13,2
DA:14,8
DA:15,6
DA:16,5
DA:17,0
DA:18,1
DA:19,1
DA:24,2
DA:25,2
DA:28,38
DA:29,38
DA:30,38
DA:33,13
DA:34,13
DA:36,13
DA:37,13
DA:38,13
DA:39,13
DA:40,13
DA:41,13
DA:42,13
DA:44,13
DA:45,13
DA:46,13
DA:47,13
DA:48,13
DA:50,13
DA:51,13
DA:53,13
DA:55,13
DA:56,13
DA:57,13
DA:58,13
DA:59,13
DA:61,13
DA:62,13
DA:63,13
DA:64,13
DA:65,13
DA:66,13
DA:67,13
DA:69,13
DA:72,14
DA:73,14
DA:75,14
DA:76,14
DA:77,14
DA:78,14
DA:79,14
DA:81,14
DA:82,14
DA:83,14
DA:84,14
DA:85,14
DA:86,14
DA:87,14
DA:89,14
DA:90,14
DA:91,14
DA:93,14
DA:96,6
DA:97,6
DA:98,6
DA:99,6
DA:100,6
DA:101,6
DA:103,6
DA:106,0
DA:107,0
DA:108,0
DA:109,0
DA:110,0
DA:111,0
DA:112,0
DA:113,0
DA:114,0
DA:115,0
DA:116,0
DA:118,0
DA:121,0
DA:122,0
DA:123,0
DA:126,0
DA:127,0
DA:128,0
DA:129,0
DA:130,0
DA:131,0
DA:132,0
DA:133,0
DA:134,0
DA:135,0
DA:137,0
DA:140,0
DA:141,0
DA:142,0
DA:143,0
DA:144,0
DA:145,0
DA:146,0
DA:149,6
DA:150,6
DA:151,6
DA:152,6
DA:153,6
DA:155,6
DA:158,9
DA:159,9
DA:160,9
DA:161,9
DA:162,9
DA:163,2
DA:164,2
DA:165,0
DA:166,0
DA:167,0
DA:168,0
DA:169,0
DA:170,0
DA:171,0
DA:172,0
DA:173,0
DA:174,0
DA:175,0
DA:176,0
DA:177,0
DA:180,0
DA:181,0
DA:182,0
DA:183,0
DA:184,0
DA:187,0
DA:188,0
DA:189,0
DA:190,0
DA:191,0
DA:192,0
DA:193,0
DA:196,0
DA:197,0
DA:198,0
DA:200,0
DA:202,0
DA:203,0
DA:204,0
DA:205,0
DA:206,0
DA:209,0
DA:210,0
DA:211,0
DA:212,0
DA:213,0
DA:214,0
DA:215,0
DA:216,0
DA:217,0
DA:221,0
DA:223,0
DA:225,0
DA:227,0
DA:229,0
DA:232,0
DA:234,0
DA:237,0
DA:239,5
DA:240,5
DA:241,4
DA:242,3
DA:243,2
DA:245,1
DA:248,1
DA:252,9
DA:283,54
DA:284,54
DA:285,29
DA:286,10
DA:287,5
DA:288,6
DA:290,0
DA:292,0
DA:293,0
DA:295,0
DA:298,0
DA:300,4
DA:301,4
DA:302,4
DA:303,4
DA:304,4
DA:305,4
DA:306,4
DA:307,4
DA:308,4
DA:310,0
DA:312,54
DA:320,1
DA:321,1
DA:322,1
DA:323,1
DA:326,1
DA:327,1
DA:328,1
DA:329,1
DA:332,1
DA:333,1
DA:334,1
DA:335,1
DA:338,1
DA:339,1
DA:340,1
DA:342,1
DA:343,1
DA:346,1
DA:347,1
DA:348,1
DA:349,1
DA:350,1
DA:351,1
DA:352,1
DA:353,1
DA:355,1
DA:356,1
DA:358,1
DA:359,1
DA:362,1
DA:363,1
DA:364,1
DA:365,1
DA:366,1
DA:368,1
DA:369,1
DA:370,1
DA:372,1
DA:373,1
DA:374,1
DA:377,1
DA:378,1
DA:380,1
DA:381,1
DA:382,1
DA:384,1
DA:385,1
DA:386,1
DA:389,1
DA:390,1
DA:391,1
DA:392,1
DA:393,1
DA:394,1
DA:397,1
DA:398,1
DA:399,1
DA:400,1
DA:401,1
DA:402,1
DA:403,1
DA:404,1
DA:406,1
DA:408,1
DA:409,1
BRF:0
BRH:0
LF:260
LH:169
end_of_record
SF:/workspaces/code-guardian/crates/core/src/detectors.rs
FN:442,_RNCNvMsr_NtCs2kADRy9cGvI_18code_guardian_core9detectorsNtB7_23HighPerformanceDetector3new0B9_
FN:492,_RNCNvXss_NtCs2kADRy9cGvI_18code_guardian_core9detectorsNtB7_23HighPerformanceDetectorNtB9_15PatternDetector6detect0B9_
FN:416,_RNvMsp_NtCs2kADRy9cGvI_18code_guardian_core9detectorsNtB5_21CustomPatternDetector3new
FN:451,_RNvMsr_NtCs2kADRy9cGvI_18code_guardian_core9detectorsNtB5_23HighPerformanceDetector19for_common_patterns
FN:439,_RNvMsr_NtCs2kADRy9cGvI_18code_guardian_core9detectorsNtB5_23HighPerformanceDetector3new
FN:45,_RNvNtCs2kADRy9cGvI_18code_guardian_core9detectors27detect_pattern_with_context
FN:75,_RNvXNtCs2kADRy9cGvI_18code_guardian_core9detectorsNtB2_12TodoDetectorNtB4_15PatternDetector6detect
FN:93,_RNvXs0_NtCs2kADRy9cGvI_18code_guardian_core9detectorsNtB5_12HackDetectorNtB7_15PatternDetector6detect
FN:102,_RNvXs1_NtCs2kADRy9cGvI_18code_guardian_core9detectorsNtB5_11BugDetectorNtB7_15PatternDetector6detect
FN:111,_RNvXs2_NtCs2kADRy9cGvI_18code_guardian_core9detectorsNtB5_11XxxDetectorNtB7_15PatternDetector6detect
FN:120,_RNvXs3_NtCs2kADRy9cGvI_18code_guardian_core9detectorsNtB5_12NoteDetectorNtB7_15PatternDetector6detect
FN:129,_RNvXs4_NtCs2kADRy9cGvI_18code_guardian_core9detectorsNtB5_15WarningDetectorNtB7_15PatternDetector6detect
FN:138,_RNvXs5_NtCs2kADRy9cGvI_18code_guardian_core9detectorsNtB5_13PanicDetectorNtB7_15PatternDetector6detect
FN:153,_RNvXs6_NtCs2kADRy9cGvI_18code_guardian_core9detectorsNtB5_14UnwrapDetectorNtB7_15PatternDetector6detect
FN:168,_RNvXs7_NtCs2kADRy9cGvI_18code_guardian_core9detectorsNtB5_14ExpectDetectorNtB7_15PatternDetector6detect
FN:183,_RNvXs8_NtCs2kADRy9cGvI_18code_guardian_core9detectorsNtB5_21UnimplementedDetectorNtB7_15PatternDetector6detect
FN:203,_RNvXs9_NtCs2kADRy9cGvI_18code_guardian_core9detectorsNtB5_19UnreachableDetectorNtB7_15PatternDetector6detect
FN:84,_RNvXs_NtCs2kADRy9cGvI_18code_guardian_core9detectorsNtB4_13FixmeDetectorNtB6_15PatternDetector6detect
FN:223,_RNvXsa_NtCs2kADRy9cGvI_18code_guardian_core9detectorsNtB5_13CloneDetectorNtB7_15PatternDetector6detect
FN:238,_RNvXsb_NtCs2kADRy9cGvI_18code_guardian_core9detectorsNtB5_16ToStringDetectorNtB7_15PatternDetector6detect
FN:258,_RNvXsc_NtCs2kADRy9cGvI_18code_guardian_core9detectorsNtB5_14UnsafeDetectorNtB7_15PatternDetector6detect
FN:273,_RNvXsd_NtCs2kADRy9cGvI_18code_guardian_core9detectorsNtB5_11DevDetectorNtB7_15PatternDetector6detect
FN:282,_RNvXse_NtCs2kADRy9cGvI_18code_guardian_core9detectorsNtB5_13DebugDetectorNtB7_15PatternDetector6detect
FN:291,_RNvXsf_NtCs2kADRy9cGvI_18code_guardian_core9detectorsNtB5_12TestDetectorNtB7_15PatternDetector6detect
FN:306,_RNvXsg_NtCs2kADRy9cGvI_18code_guardian_core9detectorsNtB5_13PhaseDetectorNtB7_15PatternDetector6detect
FN:315,_RNvXsh_NtCs2kADRy9cGvI_18code_guardian_core9detectorsNtB5_15StagingDetectorNtB7_15PatternDetector6detect
FN:324,_RNvXsi_NtCs2kADRy9cGvI_18code_guardian_core9detectorsNtB5_18ConsoleLogDetectorNtB7_15PatternDetector6detect
FN:348,_RNvXsj_NtCs2kADRy9cGvI_18code_guardian_core9detectorsNtB5_13PrintDetectorNtB7_15PatternDetector6detect
FN:357,_RNvXsk_NtCs2kADRy9cGvI_18code_guardian_core9detectorsNtB5_13AlertDetectorNtB7_15PatternDetector6detect
FN:376,_RNvXsl_NtCs2kADRy9cGvI_18code_guardian_core9detectorsNtB5_16DebuggerDetectorNtB7_15PatternDetector6detect
FN:385,_RNvXsm_NtCs2kADRy9cGvI_18code_guardian_core9detectorsNtB5_17UnusedVarDetectorNtB7_15PatternDetector6detect
FN:394,_RNvXsn_NtCs2kADRy9cGvI_18code_guardian_core9detectorsNtB5_16DeadCodeDetectorNtB7_15PatternDetector6detect
FN:403,_RNvXso_NtCs2kADRy9cGvI_18code_guardian_core9detectorsNtB5_20ExperimentalDetectorNtB7_15PatternDetector6detect
FN:426,_RNvXsq_NtCs2kADRy9cGvI_18code_guardian_core9detectorsNtB5_21CustomPatternDetectorNtB7_15PatternDetector6detect
FN:477,_RNvXss_NtCs2kADRy9cGvI_18code_guardian_core9detectorsNtB5_23HighPerformanceDetectorNtB7_15PatternDetector6detect
FN:516,_RNvNtNtCscyrExoi8aIO_18code_guardian_core9detectors5testss_18test_hack_detector
FN:606,_RNvNtNtCscyrExoi8aIO_18code_guardian_core9detectors5testss_19test_phase_detector
FN:542,_RNvNtNtCscyrExoi8aIO_18code_guardian_core9detectors5testss_20test_unwrap_detector
FN:596,_RNvNtNtCscyrExoi8aIO_18code_guardian_core9detectors5testss_22test_debugger_detector
FN:635,_RNvNtNtCscyrExoi8aIO_18code_guardian_core9detectors5testss_24test_unused_var_detector
FN:579,_RNvNtNtCscyrExoi8aIO_18code_guardian_core9detectors5testss_25test_console_log_detector
FN:552,_RNvNtNtCscyrExoi8aIO_18code_guardian_core9detectors5testss_26test_case_insensitive_todo
FN:646,_RNvNtNtCscyrExoi8aIO_18code_guardian_core9detectors5testss_26test_experimental_detector
FN:561,_RNvNtNtCscyrExoi8aIO_18code_guardian_core9detectors5testss_28test_custom_pattern_detector
FN:526,_RNvNtNtCscyrExoi8aIO_18code_guardian_core9detectors5testss_29test_panic_detector_rust_only
FN:617,_RNvNtNtCscyrExoi8aIO_18code_guardian_core9detectors5testss_34test_print_detector_multi_language
FN:656,_RNvNtNtCscyrExoi8aIO_18code_guardian_core9detectors5testss_35test_test_detector_skips_test_files
FN:573,_RNvNtNtCscyrExoi8aIO_18code_guardian_core9detectors5testss_42test_custom_pattern_detector_invalid_regex
FN:442,_RNCNvMsr_NtCscyrExoi8aIO_18code_guardian_core9detectorsNtB7_23HighPerformanceDetector3new0B9_
FN:492,_RNCNvXss_NtCscyrExoi8aIO_18code_guardian_core9detectorsNtB7_23HighPerformanceDetectorNtB9_15PatternDetector6detect0B9_
FN:451,_RNvMsr_NtCscyrExoi8aIO_18code_guardian_core9detectorsNtB5_23HighPerformanceDetector19for_common_patterns
FN:439,_RNvMsr_NtCscyrExoi8aIO_18code_guardian_core9detectorsNtB5_23HighPerformanceDetector3new
FN:477,_RNvXss_NtCscyrExoi8aIO_18code_guardian_core9detectorsNtB5_23HighPerformanceDetectorNtB7_15PatternDetector6detect
FN:602,_RNCNvNtNtCscyrExoi8aIO_18code_guardian_core9detectors5testss_22test_debugger_detector0B7_
FN:642,_RNCNvNtNtCscyrExoi8aIO_18code_guardian_core9detectors5testss_24test_unused_var_detector0B7_
FN:652,_RNCNvNtNtCscyrExoi8aIO_18code_guardian_core9detectors5testss_26test_experimental_detector0B7_
FN:628,_RNCNvNtNtCscyrExoi8aIO_18code_guardian_core9detectors5testss_34test_print_detector_multi_language0B7_
FN:629,_RNCNvNtNtCscyrExoi8aIO_18code_guardian_core9detectors5testss_34test_print_detector_multi_languages0_0B7_
FN:630,_RNCNvNtNtCscyrExoi8aIO_18code_guardian_core9detectors5testss_34test_print_detector_multi_languages1_0B7_
FN:631,_RNCNvNtNtCscyrExoi8aIO_18code_guardian_core9detectors5testss_34test_print_detector_multi_languages2_0B7_
FN:625,_RNCNvNtNtCscyrExoi8aIO_18code_guardian_core9detectors5testss_34test_print_detector_multi_languages_0B7_
FN:416,_RNvMsp_NtCscyrExoi8aIO_18code_guardian_core9detectorsNtB5_21CustomPatternDetector3new
FN:45,_RNvNtCscyrExoi8aIO_18code_guardian_core9detectors27detect_pattern_with_context
FN:75,_RNvXNtCscyrExoi8aIO_18code_guardian_core9detectorsNtB2_12TodoDetectorNtB4_15PatternDetector6detect
FN:93,_RNvXs0_NtCscyrExoi8aIO_18code_guardian_core9detectorsNtB5_12HackDetectorNtB7_15PatternDetector6detect
FN:102,_RNvXs1_NtCscyrExoi8aIO_18code_guardian_core9detectorsNtB5_11BugDetectorNtB7_15PatternDetector6detect
FN:111,_RNvXs2_NtCscyrExoi8aIO_18code_guardian_core9detectorsNtB5_11XxxDetectorNtB7_15PatternDetector6detect
FN:120,_RNvXs3_NtCscyrExoi8aIO_18code_guardian_core9detectorsNtB5_12NoteDetectorNtB7_15PatternDetector6detect
FN:129,_RNvXs4_NtCscyrExoi8aIO_18code_guardian_core9detectorsNtB5_15WarningDetectorNtB7_15PatternDetector6detect
FN:138,_RNvXs5_NtCscyrExoi8aIO_18code_guardian_core9detectorsNtB5_13PanicDetectorNtB7_15PatternDetector6detect
FN:153,_RNvXs6_NtCscyrExoi8aIO_18code_guardian_core9detectorsNtB5_14UnwrapDetectorNtB7_15PatternDetector6detect
FN:168,_RNvXs7_NtCscyrExoi8aIO_18code_guardian_core9detectorsNtB5_14ExpectDetectorNtB7_15PatternDetector6detect
FN:183,_RNvXs8_NtCscyrExoi8aIO_18code_guardian_core9detectorsNtB5_21UnimplementedDetectorNtB7_15PatternDetector6detect
FN:203,_RNvXs9_NtCscyrExoi8aIO_18code_guardian_core9detectorsNtB5_19UnreachableDetectorNtB7_15PatternDetector6detect
FN:84,_RNvXs_NtCscyrExoi8aIO_18code_guardian_core9detectorsNtB4_13FixmeDetectorNtB6_15PatternDetector6detect
FN:223,_RNvXsa_NtCscyrExoi8aIO_18code_guardian_core9detectorsNtB5_13CloneDetectorNtB7_15PatternDetector6detect
FN:238,_RNvXsb_NtCscyrExoi8aIO_18code_guardian_core9detectorsNtB5_16ToStringDetectorNtB7_15PatternDetector6detect
FN:258,_RNvXsc_NtCscyrExoi8aIO_18code_guardian_core9detectorsNtB5_14UnsafeDetectorNtB7_15PatternDetector6detect
FN:273,_RNvXsd_NtCscyrExoi8aIO_18code_guardian_core9detectorsNtB5_11DevDetectorNtB7_15PatternDetector6detect
FN:282,_RNvXse_NtCscyrExoi8aIO_18code_guardian_core9detectorsNtB5_13DebugDetectorNtB7_15PatternDetector6detect
FN:291,_RNvXsf_NtCscyrExoi8aIO_18code_guardian_core9detectorsNtB5_12TestDetectorNtB7_15PatternDetector6detect
FN:306,_RNvXsg_NtCscyrExoi8aIO_18code_guardian_core9detectorsNtB5_13PhaseDetectorNtB7_15PatternDetector6detect
FN:315,_RNvXsh_NtCscyrExoi8aIO_18code_guardian_core9detectorsNtB5_15StagingDetectorNtB7_15PatternDetector6detect
FN:324,_RNvXsi_NtCscyrExoi8aIO_18code_guardian_core9detectorsNtB5_18ConsoleLogDetectorNtB7_15PatternDetector6detect
FN:348,_RNvXsj_NtCscyrExoi8aIO_18code_guardian_core9detectorsNtB5_13PrintDetectorNtB7_15PatternDetector6detect
FN:357,_RNvXsk_NtCscyrExoi8aIO_18code_guardian_core9detectorsNtB5_13AlertDetectorNtB7_15PatternDetector6detect
FN:376,_RNvXsl_NtCscyrExoi8aIO_18code_guardian_core9detectorsNtB5_16DebuggerDetectorNtB7_15PatternDetector6detect
FN:385,_RNvXsm_NtCscyrExoi8aIO_18code_guardian_core9detectorsNtB5_17UnusedVarDetectorNtB7_15PatternDetector6detect
FN:394,_RNvXsn_NtCscyrExoi8aIO_18code_guardian_core9detectorsNtB5_16DeadCodeDetectorNtB7_15PatternDetector6detect
FN:403,_RNvXso_NtCscyrExoi8aIO_18code_guardian_core9detectorsNtB5_20ExperimentalDetectorNtB7_15PatternDetector6detect
FN:426,_RNvXsq_NtCscyrExoi8aIO_18code_guardian_core9detectorsNtB5_21CustomPatternDetectorNtB7_15PatternDetector6detect
FNDA:0,_RNCNvMsr_NtCs2kADRy9cGvI_18code_guardian_core9detectorsNtB7_23HighPerformanceDetector3new0B9_
FNDA:0,_RNCNvXss_NtCs2kADRy9cGvI_18code_guardian_core9detectorsNtB7_23HighPerformanceDetectorNtB9_15PatternDetector6detect0B9_
FNDA:0,_RNvMsp_NtCs2kADRy9cGvI_18code_guardian_core9detectorsNtB5_21CustomPatternDetector3new
FNDA:0,_RNvMsr_NtCs2kADRy9cGvI_18code_guardian_core9detectorsNtB5_23HighPerformanceDetector19for_common_patterns
FNDA:0,_RNvMsr_NtCs2kADRy9cGvI_18code_guardian_core9detectorsNtB5_23HighPerformanceDetector3new
FNDA:575,_RNvNtCs2kADRy9cGvI_18code_guardian_core9detectors27detect_pattern_with_context
FNDA:99,_RNvXNtCs2kADRy9cGvI_18code_guardian_core9detectorsNtB2_12TodoDetectorNtB4_15PatternDetector6detect
FNDA:16,_RNvXs0_NtCs2kADRy9cGvI_18code_guardian_core9detectorsNtB5_12HackDetectorNtB7_15PatternDetector6detect
FNDA:16,_RNvXs1_NtCs2kADRy9cGvI_18code_guardian_core9detectorsNtB5_11BugDetectorNtB7_15PatternDetector6detect
FNDA:16,_RNvXs2_NtCs2kADRy9cGvI_18code_guardian_core9detectorsNtB5_11XxxDetectorNtB7_15PatternDetector6detect
FNDA:16,_RNvXs3_NtCs2kADRy9cGvI_18code_guardian_core9detectorsNtB5_12NoteDetectorNtB7_15PatternDetector6detect
FNDA:16,_RNvXs4_NtCs2kADRy9cGvI_18code_guardian_core9detectorsNtB5_15WarningDetectorNtB7_15PatternDetector6detect
FNDA:17,_RNvXs5_NtCs2kADRy9cGvI_18code_guardian_core9detectorsNtB5_13PanicDetectorNtB7_15PatternDetector6detect
FNDA:19,_RNvXs6_NtCs2kADRy9cGvI_18code_guardian_core9detectorsNtB5_14UnwrapDetectorNtB7_15PatternDetector6detect
FNDA:17,_RNvXs7_NtCs2kADRy9cGvI_18code_guardian_core9detectorsNtB5_14ExpectDetectorNtB7_15PatternDetector6detect
FNDA:16,_RNvXs8_NtCs2kADRy9cGvI_18code_guardian_core9detectorsNtB5_21UnimplementedDetectorNtB7_15PatternDetector6detect
FNDA:16,_RNvXs9_NtCs2kADRy9cGvI_18code_guardian_core9detectorsNtB5_19UnreachableDetectorNtB7_15PatternDetector6detect
FNDA:99,_RNvXs_NtCs2kADRy9cGvI_18code_guardian_core9detectorsNtB4_13FixmeDetectorNtB6_15PatternDetector6detect
FNDA:18,_RNvXsa_NtCs2kADRy9cGvI_18code_guardian_core9detectorsNtB5_13CloneDetectorNtB7_15PatternDetector6detect
FNDA:18,_RNvXsb_NtCs2kADRy9cGvI_18code_guardian_core9detectorsNtB5_16ToStringDetectorNtB7_15PatternDetector6detect
FNDA:17,_RNvXsc_NtCs2kADRy9cGvI_18code_guardian_core9detectorsNtB5_14UnsafeDetectorNtB7_15PatternDetector6detect
FNDA:16,_RNvXsd_NtCs2kADRy9cGvI_18code_guardian_core9detectorsNtB5_11DevDetectorNtB7_15PatternDetector6detect
FNDA:16,_RNvXse_NtCs2kADRy9cGvI_18code_guardian_core9detectorsNtB5_13DebugDetectorNtB7_15PatternDetector6detect
FNDA:16,_RNvXsf_NtCs2kADRy9cGvI_18code_guardian_core9detectorsNtB5_12TestDetectorNtB7_15PatternDetector6detect
FNDA:16,_RNvXsg_NtCs2kADRy9cGvI_18code_guardian_core9detectorsNtB5_13PhaseDetectorNtB7_15PatternDetector6detect
FNDA:16,_RNvXsh_NtCs2kADRy9cGvI_18code_guardian_core9detectorsNtB5_15StagingDetectorNtB7_15PatternDetector6detect
FNDA:16,_RNvXsi_NtCs2kADRy9cGvI_18code_guardian_core9detectorsNtB5_18ConsoleLogDetectorNtB7_15PatternDetector6detect
FNDA:16,_RNvXsj_NtCs2kADRy9cGvI_18code_guardian_core9detectorsNtB5_13PrintDetectorNtB7_15PatternDetector6detect
FNDA:16,_RNvXsk_NtCs2kADRy9cGvI_18code_guardian_core9detectorsNtB5_13AlertDetectorNtB7_15PatternDetector6detect
FNDA:16,_RNvXsl_NtCs2kADRy9cGvI_18code_guardian_core9detectorsNtB5_16DebuggerDetectorNtB7_15PatternDetector6detect
FNDA:16,_RNvXsm_NtCs2kADRy9cGvI_18code_guardian_core9detectorsNtB5_17UnusedVarDetectorNtB7_15PatternDetector6detect
FNDA:16,_RNvXsn_NtCs2kADRy9cGvI_18code_guardian_core9detectorsNtB5_16DeadCodeDetectorNtB7_15PatternDetector6detect
FNDA:16,_RNvXso_NtCs2kADRy9cGvI_18code_guardian_core9detectorsNtB5_20ExperimentalDetectorNtB7_15PatternDetector6detect
FNDA:0,_RNvXsq_NtCs2kADRy9cGvI_18code_guardian_core9detectorsNtB5_21CustomPatternDetectorNtB7_15PatternDetector6detect
FNDA:0,_RNvXss_NtCs2kADRy9cGvI_18code_guardian_core9detectorsNtB5_23HighPerformanceDetectorNtB7_15PatternDetector6detect
FNDA:1,_RNvNtNtCscyrExoi8aIO_18code_guardian_core9detectors5testss_18test_hack_detector
FNDA:1,_RNvNtNtCscyrExoi8aIO_18code_guardian_core9detectors5testss_19test_phase_detector
FNDA:1,_RNvNtNtCscyrExoi8aIO_18code_guardian_core9detectors5testss_20test_unwrap_detector
FNDA:1,_RNvNtNtCscyrExoi8aIO_18code_guardian_core9detectors5testss_22test_debugger_detector
FNDA:1,_RNvNtNtCscyrExoi8aIO_18code_guardian_core9detectors5testss_24test_unused_var_detector
FNDA:1,_RNvNtNtCscyrExoi8aIO_18code_guardian_core9detectors5testss_25test_console_log_detector
FNDA:1,_RNvNtNtCscyrExoi8aIO_18code_guardian_core9detectors5testss_26test_case_insensitive_todo
FNDA:1,_RNvNtNtCscyrExoi8aIO_18code_guardian_core9detectors5testss_26test_experimental_detector
FNDA:1,_RNvNtNtCscyrExoi8aIO_18code_guardian_core9detectors5testss_28test_custom_pattern_detector
FNDA:1,_RNvNtNtCscyrExoi8aIO_18code_guardian_core9detectors5testss_29test_panic_detector_rust_only
FNDA:1,_RNvNtNtCscyrExoi8aIO_18code_guardian_core9detectors5testss_34test_print_detector_multi_language
FNDA:1,_RNvNtNtCscyrExoi8aIO_18code_guardian_core9detectors5testss_35test_test_detector_skips_test_files
FNDA:1,_RNvNtNtCscyrExoi8aIO_18code_guardian_core9detectors5testss_42test_custom_pattern_detector_invalid_regex
FNDA:0,_RNCNvMsr_NtCscyrExoi8aIO_18code_guardian_core9detectorsNtB7_23HighPerformanceDetector3new0B9_
FNDA:0,_RNCNvXss_NtCscyrExoi8aIO_18code_guardian_core9detectorsNtB7_23HighPerformanceDetectorNtB9_15PatternDetector6detect0B9_
FNDA:0,_RNvMsr_NtCscyrExoi8aIO_18code_guardian_core9detectorsNtB5_23HighPerformanceDetector19for_common_patterns
FNDA:0,_RNvMsr_NtCscyrExoi8aIO_18code_guardian_core9detectorsNtB5_23HighPerformanceDetector3new
FNDA:0,_RNvXss_NtCscyrExoi8aIO_18code_guardian_core9detectorsNtB5_23HighPerformanceDetectorNtB7_15PatternDetector6detect
FNDA:2,_RNCNvNtNtCscyrExoi8aIO_18code_guardian_core9detectors5testss_22test_debugger_detector0B7_
FNDA:2,_RNCNvNtNtCscyrExoi8aIO_18code_guardian_core9detectors5testss_24test_unused_var_detector0B7_
FNDA:3,_RNCNvNtNtCscyrExoi8aIO_18code_guardian_core9detectors5testss_26test_experimental_detector0B7_
FNDA:4,_RNCNvNtNtCscyrExoi8aIO_18code_guardian_core9detectors5testss_34test_print_detector_multi_language0B7_
FNDA:1,_RNCNvNtNtCscyrExoi8aIO_18code_guardian_core9detectors5testss_34test_print_detector_multi_languages0_0B7_
FNDA:2,_RNCNvNtNtCscyrExoi8aIO_18code_guardian_core9detectors5testss_34test_print_detector_multi_languages1_0B7_
FNDA:4,_RNCNvNtNtCscyrExoi8aIO_18code_guardian_core9detectors5testss_34test_print_detector_multi_languages2_0B7_
FNDA:4,_RNCNvNtNtCscyrExoi8aIO_18code_guardian_core9detectors5testss_34test_print_detector_multi_languages_0B7_
FNDA:5,_RNvMsp_NtCscyrExoi8aIO_18code_guardian_core9detectorsNtB5_21CustomPatternDetector3new
FNDA:69,_RNvNtCscyrExoi8aIO_18code_guardian_core9detectors27detect_pattern_with_context
FNDA:8,_RNvXNtCscyrExoi8aIO_18code_guardian_core9detectorsNtB2_12TodoDetectorNtB4_15PatternDetector6detect
FNDA:1,_RNvXs0_NtCscyrExoi8aIO_18code_guardian_core9detectorsNtB5_12HackDetectorNtB7_15PatternDetector6detect
FNDA:0,_RNvXs1_NtCscyrExoi8aIO_18code_guardian_core9detectorsNtB5_11BugDetectorNtB7_15PatternDetector6detect
FNDA:0,_RNvXs2_NtCscyrExoi8aIO_18code_guardian_core9detectorsNtB5_11XxxDetectorNtB7_15PatternDetector6detect
FNDA:0,_RNvXs3_NtCscyrExoi8aIO_18code_guardian_core9detectorsNtB5_12NoteDetectorNtB7_15PatternDetector6detect
FNDA:0,_RNvXs4_NtCscyrExoi8aIO_18code_guardian_core9detectorsNtB5_15WarningDetectorNtB7_15PatternDetector6detect
FNDA:6,_RNvXs5_NtCscyrExoi8aIO_18code_guardian_core9detectorsNtB5_13PanicDetectorNtB7_15PatternDetector6detect
FNDA:5,_RNvXs6_NtCscyrExoi8aIO_18code_guardian_core9detectorsNtB5_14UnwrapDetectorNtB7_15PatternDetector6detect
FNDA:0,_RNvXs7_NtCscyrExoi8aIO_18code_guardian_core9detectorsNtB5_14ExpectDetectorNtB7_15PatternDetector6detect
FNDA:0,_RNvXs8_NtCscyrExoi8aIO_18code_guardian_core9detectorsNtB5_21UnimplementedDetectorNtB7_15PatternDetector6detect
FNDA:0,_RNvXs9_NtCscyrExoi8aIO_18code_guardian_core9detectorsNtB5_19UnreachableDetectorNtB7_15PatternDetector6detect
FNDA:3,_RNvXs_NtCscyrExoi8aIO_18code_guardian_core9detectorsNtB4_13FixmeDetectorNtB6_15PatternDetector6detect
FNDA:0,_RNvXsa_NtCscyrExoi8aIO_18code_guardian_core9detectorsNtB5_13CloneDetectorNtB7_15PatternDetector6detect
FNDA:0,_RNvXsb_NtCscyrExoi8aIO_18code_guardian_core9detectorsNtB5_16ToStringDetectorNtB7_15PatternDetector6detect
FNDA:4,_RNvXsc_NtCscyrExoi8aIO_18code_guardian_core9detectorsNtB5_14UnsafeDetectorNtB7_15PatternDetector6detect
FNDA:4,_RNvXsd_NtCscyrExoi8aIO_18code_guardian_core9detectorsNtB5_11DevDetectorNtB7_15PatternDetector6detect
FNDA:4,_RNvXse_NtCscyrExoi8aIO_18code_guardian_core9detectorsNtB5_13DebugDetectorNtB7_15PatternDetector6detect
FNDA:6,_RNvXsf_NtCscyrExoi8aIO_18code_guardian_core9detectorsNtB5_12TestDetectorNtB7_15PatternDetector6detect
FNDA:5,_RNvXsg_NtCscyrExoi8aIO_18code_guardian_core9detectorsNtB5_13PhaseDetectorNtB7_15PatternDetector6detect
FNDA:4,_RNvXsh_NtCscyrExoi8aIO_18code_guardian_core9detectorsNtB5_15StagingDetectorNtB7_15PatternDetector6detect
FNDA:6,_RNvXsi_NtCscyrExoi8aIO_18code_guardian_core9detectorsNtB5_18ConsoleLogDetectorNtB7_15PatternDetector6detect
FNDA:5,_RNvXsj_NtCscyrExoi8aIO_18code_guardian_core9detectorsNtB5_13PrintDetectorNtB7_15PatternDetector6detect
FNDA:4,_RNvXsk_NtCscyrExoi8aIO_18code_guardian_core9detectorsNtB5_13AlertDetectorNtB7_15PatternDetector6detect
FNDA:5,_RNvXsl_NtCscyrExoi8aIO_18code_guardian_core9detectorsNtB5_16DebuggerDetectorNtB7_15PatternDetector6detect
FNDA:5,_RNvXsm_NtCscyrExoi8aIO_18code_guardian_core9detectorsNtB5_17UnusedVarDetectorNtB7_15PatternDetector6detect
FNDA:4,_RNvXsn_NtCscyrExoi8aIO_18code_guardian_core9detectorsNtB5_16DeadCodeDetectorNtB7_15PatternDetector6detect
FNDA:5,_RNvXso_NtCscyrExoi8aIO_18code_guardian_core9detectorsNtB5_20ExperimentalDetectorNtB7_15PatternDetector6detect
FNDA:1,_RNvXsq_NtCscyrExoi8aIO_18code_guardian_core9detectorsNtB5_21CustomPatternDetectorNtB7_15PatternDetector6detect
FNF:56
FNH:51
DA:45,644
DA:46,644
DA:47,644
DA:48,644
DA:49,644
DA:50,644
DA:51,644
DA:52,90483
DA:53,90483
DA:54,585
DA:55,585
DA:56,585
DA:57,585
DA:58,585
DA:59,585
DA:60,585
DA:61,585
DA:62,585
DA:63,585
DA:64,585
DA:65,585
DA:66,585
DA:68,644
DA:69,644
DA:75,107
DA:76,107
DA:77,107
DA:84,102
DA:85,102
DA:86,102
DA:93,17
DA:94,17
DA:95,17
DA:102,16
DA:103,16
DA:104,16
DA:111,16
DA:112,16
DA:113,16
DA:120,16
DA:121,16
DA:122,16
DA:129,16
DA:130,16
DA:131,16
DA:138,23
DA:140,23
DA:141,23
DA:142,19
DA:143,4
DA:144,0
DA:145,4
DA:146,23
DA:153,24
DA:155,24
DA:156,24
DA:157,21
DA:158,3
DA:159,0
DA:160,3
DA:161,24
DA:168,17
DA:170,17
DA:171,17
DA:172,17
DA:173,0
DA:174,0
DA:175,0
DA:176,17
DA:183,16
DA:185,16
DA:186,16
DA:187,16
DA:188,16
DA:189,16
DA:190,16
DA:191,16
DA:193,0
DA:194,0
DA:195,0
DA:196,16
DA:203,16
DA:205,16
DA:206,16
DA:207,16
DA:208,16
DA:209,16
DA:210,16
DA:211,16
DA:213,0
DA:214,0
DA:215,0
DA:216,16
DA:223,18
DA:225,18
DA:226,18
DA:227,18
DA:228,0
DA:229,0
DA:230,0
DA:231,18
DA:238,18
DA:240,18
DA:241,18
DA:242,18
DA:243,18
DA:244,18
DA:245,18
DA:246,18
DA:248,0
DA:249,0
DA:250,0
DA:251,18
DA:258,21
DA:260,21
DA:261,21
DA:262,18
DA:263,3
DA:264,0
DA:265,3
DA:266,21
DA:273,20
DA:274,20
DA:275,20
DA:282,20
DA:283,20
DA:284,20
DA:291,22
DA:293,22
DA:294,22
DA:295,2
DA:296,20
DA:297,0
DA:298,20
DA:299,22
DA:306,21
DA:307,21
DA:308,21
DA:315,20
DA:316,20
DA:317,20
DA:324,22
DA:326,22
DA:327,22
DA:328,3
DA:329,22
DA:330,22
DA:332,3
DA:333,3
DA:334,3
DA:335,3
DA:336,3
DA:338,19
DA:339,0
DA:340,19
DA:341,22
DA:348,21
DA:349,21
DA:350,21
DA:357,20
DA:359,20
DA:360,20
DA:361,2
DA:362,20
DA:363,20
DA:365,2
DA:366,18
DA:367,0
DA:368,18
DA:369,20
DA:376,21
DA:377,21
DA:378,21
DA:385,21
DA:386,21
DA:387,21
DA:394,20
DA:395,20
DA:396,20
DA:403,21
DA:404,21
DA:405,21
DA:416,5
DA:417,5
DA:418,3
DA:419,3
DA:420,3
DA:421,3
DA:422,5
DA:426,1
DA:427,1
DA:428,1
DA:439,0
DA:440,0
DA:441,0
DA:442,0
DA:443,0
DA:445,0
DA:447,0
DA:448,0
DA:451,0
DA:452,0
DA:453,0
DA:454,0
DA:455,0
DA:456,0
DA:457,0
DA:458,0
DA:459,0
DA:460,0
DA:461,0
DA:462,0
DA:463,0
DA:464,0
DA:465,0
DA:466,0
DA:467,0
DA:468,0
DA:469,0
DA:472,0
DA:473,0
DA:477,0
DA:478,0
DA:480,0
DA:481,0
DA:482,0
DA:485,0
DA:486,0
DA:487,0
DA:490,0
DA:491,0
DA:492,0
DA:493,0
DA:494,0
DA:495,0
DA:497,0
DA:498,0
DA:499,0
DA:500,0
DA:501,0
DA:502,0
DA:503,0
DA:506,0
DA:507,0
DA:516,1
DA:517,1
DA:518,1
DA:519,1
DA:520,1
DA:521,1
DA:522,1
DA:523,1
DA:526,1
DA:527,1
DA:528,1
DA:529,1
DA:531,1
DA:532,1
DA:534,1
DA:535,1
DA:537,1
DA:538,1
DA:539,1
DA:542,1
DA:543,1
DA:544,1
DA:545,1
DA:546,1
DA:547,1
DA:548,1
DA:549,1
DA:552,1
DA:553,1
DA:554,1
DA:555,1
DA:556,1
DA:557,1
DA:558,1
DA:561,1
DA:562,1
DA:563,1
DA:564,1
DA:565,1
DA:566,1
DA:567,1
DA:568,1
DA:569,1
DA:570,1
DA:573,1
DA:574,1
DA:575,1
DA:576,1
DA:579,1
DA:580,1
DA:581,1
DA:582,1
DA:584,1
DA:585,1
DA:587,1
DA:588,1
DA:590,1
DA:591,1
DA:592,1
DA:593,1
DA:596,1
DA:597,1
DA:598,1
DA:599,1
DA:600,1
DA:601,1
DA:602,2
DA:603,1
DA:606,1
DA:607,1
DA:608,1
DA:609,1
DA:610,1
DA:611,1
DA:612,1
DA:613,1
DA:614,1
DA:617,1
DA:618,1
DA:619,1
DA:620,1
DA:621,1
DA:624,1
DA:625,4
DA:628,4
DA:629,1
DA:630,2
DA:631,4
DA:632,1
DA:635,1
DA:636,1
DA:637,1
DA:638,1
DA:639,1
DA:640,1
DA:641,1
DA:642,2
DA:643,1
DA:646,1
DA:647,1
DA:648,1
DA:649,1
DA:650,1
DA:651,1
DA:652,3
DA:653,1
DA:656,1
DA:657,1
DA:658,1
DA:660,1
DA:661,1
DA:663,1
DA:664,1
DA:666,1
DA:667,1
DA:668,1
BRF:0
BRH:0
LF:370
LH:295
end_of_record
SF:/workspaces/code-guardian/crates/core/src/distributed.rs
FN:135,_RNCNCNvMNtCs2kADRy9cGvI_18code_guardian_core11distributedNtB6_22DistributedCoordinator24execute_distributed_scan00CsgJXiKT19grP_17code_guardian_cli
FN:207,_RNCNCNvMNtCs2kADRy9cGvI_18code_guardian_core11distributedNtB6_22DistributedCoordinator30simulate_distributed_execution00CsgJXiKT19grP_17code_guardian_cli
FN:259,_RNCNvMNtCs2kADRy9cGvI_18code_guardian_core11distributedNtB4_22DistributedCoordinator22execute_local_fallback0CsgJXiKT19grP_17code_guardian_cli
FN:107,_RNCNvMNtCs2kADRy9cGvI_18code_guardian_core11distributedNtB4_22DistributedCoordinator24execute_distributed_scan0CsgJXiKT19grP_17code_guardian_cli
FN:199,_RNCNvMNtCs2kADRy9cGvI_18code_guardian_core11distributedNtB4_22DistributedCoordinator30simulate_distributed_execution0CsgJXiKT19grP_17code_guardian_cli
FN:135,_RNCNCNvMNtCs2kADRy9cGvI_18code_guardian_core11distributedNtB6_22DistributedCoordinator24execute_distributed_scan00B8_
FN:207,_RNCNCNvMNtCs2kADRy9cGvI_18code_guardian_core11distributedNtB6_22DistributedCoordinator30simulate_distributed_execution00B8_
FN:259,_RNCNvMNtCs2kADRy9cGvI_18code_guardian_core11distributedNtB4_22DistributedCoordinator22execute_local_fallback0B6_
FN:107,_RNCNvMNtCs2kADRy9cGvI_18code_guardian_core11distributedNtB4_22DistributedCoordinator24execute_distributed_scan0B6_
FN:199,_RNCNvMNtCs2kADRy9cGvI_18code_guardian_core11distributedNtB4_22DistributedCoordinator30simulate_distributed_execution0B6_
FN:171,_RNCNCNvMNtCs2kADRy9cGvI_18code_guardian_core11distributedNtB6_22DistributedCoordinator14get_statisticss0_00B8_
FN:167,_RNCNvMNtCs2kADRy9cGvI_18code_guardian_core11distributedNtB4_22DistributedCoordinator14get_statisticss0_0B6_
FN:96,_RNCNvMNtCs2kADRy9cGvI_18code_guardian_core11distributedNtB4_22DistributedCoordinator17create_work_units0B6_
FN:298,_RNCNvMNtCs2kADRy9cGvI_18code_guardian_core11distributedNtB4_22DistributedCoordinator18calculate_priority0B6_
FN:300,_RNCNvMNtCs2kADRy9cGvI_18code_guardian_core11distributedNtB4_22DistributedCoordinator18calculate_prioritys0_0B6_
FN:299,_RNCNvMNtCs2kADRy9cGvI_18code_guardian_core11distributedNtB4_22DistributedCoordinator18calculate_prioritys_0B6_
FN:278,_RNCNvMNtCs2kADRy9cGvI_18code_guardian_core11distributedNtB4_22DistributedCoordinator24estimate_processing_time0B6_
FN:279,_RNCNvMNtCs2kADRy9cGvI_18code_guardian_core11distributedNtB4_22DistributedCoordinator24estimate_processing_times_0B6_
FN:151,_RNvMNtCs2kADRy9cGvI_18code_guardian_core11distributedNtB2_22DistributedCoordinator14get_statistics
FN:66,_RNvMNtCs2kADRy9cGvI_18code_guardian_core11distributedNtB2_22DistributedCoordinator15register_worker
FN:80,_RNvMNtCs2kADRy9cGvI_18code_guardian_core11distributedNtB2_22DistributedCoordinator17create_work_units
FN:221,_RNvMNtCs2kADRy9cGvI_18code_guardian_core11distributedNtB2_22DistributedCoordinator17process_work_unit
FN:75,_RNvMNtCs2kADRy9cGvI_18code_guardian_core11distributedNtB2_22DistributedCoordinator17register_detector
FN:285,_RNvMNtCs2kADRy9cGvI_18code_guardian_core11distributedNtB2_22DistributedCoordinator18calculate_priority
FN:259,_RNvMNtCs2kADRy9cGvI_18code_guardian_core11distributedNtB2_22DistributedCoordinator22execute_local_fallback
FN:311,_RNvMNtCs2kADRy9cGvI_18code_guardian_core11distributedNtB2_22DistributedCoordinator23print_execution_summary
FN:273,_RNvMNtCs2kADRy9cGvI_18code_guardian_core11distributedNtB2_22DistributedCoordinator24estimate_processing_time
FN:107,_RNvMNtCs2kADRy9cGvI_18code_guardian_core11distributedNtB2_22DistributedCoordinator24execute_distributed_scan
FN:199,_RNvMNtCs2kADRy9cGvI_18code_guardian_core11distributedNtB2_22DistributedCoordinator30simulate_distributed_execution
FN:55,_RNvMNtCs2kADRy9cGvI_18code_guardian_core11distributedNtB2_22DistributedCoordinator3new
FN:341,_RNvXs_NtCs2kADRy9cGvI_18code_guardian_core11distributedNtB4_22DistributedCoordinatorNtNtCs66KPHxksi63_4core7default7Default7default
FN:135,_RNCNCNvMNtCs2kADRy9cGvI_18code_guardian_core11distributedNtB6_22DistributedCoordinator24execute_distributed_scan00Csfep3jFmpOzf_23advanced_handlers_tests
FN:207,_RNCNCNvMNtCs2kADRy9cGvI_18code_guardian_core11distributedNtB6_22DistributedCoordinator30simulate_distributed_execution00Csfep3jFmpOzf_23advanced_handlers_tests
FN:259,_RNCNvMNtCs2kADRy9cGvI_18code_guardian_core11distributedNtB4_22DistributedCoordinator22execute_local_fallback0Csfep3jFmpOzf_23advanced_handlers_tests
FN:107,_RNCNvMNtCs2kADRy9cGvI_18code_guardian_core11distributedNtB4_22DistributedCoordinator24execute_distributed_scan0Csfep3jFmpOzf_23advanced_handlers_tests
FN:199,_RNCNvMNtCs2kADRy9cGvI_18code_guardian_core11distributedNtB4_22DistributedCoordinator30simulate_distributed_execution0Csfep3jFmpOzf_23advanced_handlers_tests
FN:171,_RNCNCNvMNtCscyrExoi8aIO_18code_guardian_core11distributedNtB6_22DistributedCoordinator14get_statisticss0_00B8_
FN:135,_RNCNCNvMNtCscyrExoi8aIO_18code_guardian_core11distributedNtB6_22DistributedCoordinator24execute_distributed_scan00B8_
FN:207,_RNCNCNvMNtCscyrExoi8aIO_18code_guardian_core11distributedNtB6_22DistributedCoordinator30simulate_distributed_execution00B8_
FN:167,_RNCNvMNtCscyrExoi8aIO_18code_guardian_core11distributedNtB4_22DistributedCoordinator14get_statisticss0_0B6_
FN:259,_RNCNvMNtCscyrExoi8aIO_18code_guardian_core11distributedNtB4_22DistributedCoordinator22execute_local_fallback0B6_
FN:107,_RNCNvMNtCscyrExoi8aIO_18code_guardian_core11distributedNtB4_22DistributedCoordinator24execute_distributed_scan0B6_
FN:199,_RNCNvMNtCscyrExoi8aIO_18code_guardian_core11distributedNtB4_22DistributedCoordinator30simulate_distributed_execution0B6_
FN:151,_RNvMNtCscyrExoi8aIO_18code_guardian_core11distributedNtB2_22DistributedCoordinator14get_statistics
FN:221,_RNvMNtCscyrExoi8aIO_18code_guardian_core11distributedNtB2_22DistributedCoordinator17process_work_unit
FN:259,_RNvMNtCscyrExoi8aIO_18code_guardian_core11distributedNtB2_22DistributedCoordinator22execute_local_fallback
FN:311,_RNvMNtCscyrExoi8aIO_18code_guardian_core11distributedNtB2_22DistributedCoordinator23print_execution_summary
FN:107,_RNvMNtCscyrExoi8aIO_18code_guardian_core11distributedNtB2_22DistributedCoordinator24execute_distributed_scan
FN:199,_RNvMNtCscyrExoi8aIO_18code_guardian_core11distributedNtB2_22DistributedCoordinator30simulate_distributed_execution
FN:341,_RNvXs_NtCscyrExoi8aIO_18code_guardian_core11distributedNtB4_22DistributedCoordinatorNtNtCs66KPHxksi63_4core7default7Default7default
FN:377,_RNvNtNtCscyrExoi8aIO_18code_guardian_core11distributed5testss_23test_work_unit_creation
FN:360,_RNvNtNtCscyrExoi8aIO_18code_guardian_core11distributed5testss_24test_worker_registration
FN:353,_RNvNtNtCscyrExoi8aIO_18code_guardian_core11distributed5testss_37test_distributed_coordinator_creation
FN:96,_RNCNvMNtCscyrExoi8aIO_18code_guardian_core11distributedNtB4_22DistributedCoordinator17create_work_units0B6_
FN:298,_RNCNvMNtCscyrExoi8aIO_18code_guardian_core11distributedNtB4_22DistributedCoordinator18calculate_priority0B6_
FN:300,_RNCNvMNtCscyrExoi8aIO_18code_guardian_core11distributedNtB4_22DistributedCoordinator18calculate_prioritys0_0B6_
FN:299,_RNCNvMNtCscyrExoi8aIO_18code_guardian_core11distributedNtB4_22DistributedCoordinator18calculate_prioritys_0B6_
FN:278,_RNCNvMNtCscyrExoi8aIO_18code_guardian_core11distributedNtB4_22DistributedCoordinator24estimate_processing_time0B6_
FN:279,_RNCNvMNtCscyrExoi8aIO_18code_guardian_core11distributedNtB4_22DistributedCoordinator24estimate_processing_times_0B6_
FN:66,_RNvMNtCscyrExoi8aIO_18code_guardian_core11distributedNtB2_22DistributedCoordinator15register_worker
FN:80,_RNvMNtCscyrExoi8aIO_18code_guardian_core11distributedNtB2_22DistributedCoordinator17create_work_units
FN:75,_RNvMNtCscyrExoi8aIO_18code_guardian_core11distributedNtB2_22DistributedCoordinator17register_detector
FN:285,_RNvMNtCscyrExoi8aIO_18code_guardian_core11distributedNtB2_22DistributedCoordinator18calculate_priority
FN:273,_RNvMNtCscyrExoi8aIO_18code_guardian_core11distributedNtB2_22DistributedCoordinator24estimate_processing_time
FN:55,_RNvMNtCscyrExoi8aIO_18code_guardian_core11distributedNtB2_22DistributedCoordinator3new
FN:135,_RNCNCNvMNtCs2kADRy9cGvI_18code_guardian_core11distributedNtB6_22DistributedCoordinator24execute_distributed_scan00Cs9djzN8x3YgW_26integration_workflow_tests
FN:207,_RNCNCNvMNtCs2kADRy9cGvI_18code_guardian_core11distributedNtB6_22DistributedCoordinator30simulate_distributed_execution00Cs9djzN8x3YgW_26integration_workflow_tests
FN:259,_RNCNvMNtCs2kADRy9cGvI_18code_guardian_core11distributedNtB4_22DistributedCoordinator22execute_local_fallback0Cs9djzN8x3YgW_26integration_workflow_tests
FN:107,_RNCNvMNtCs2kADRy9cGvI_18code_guardian_core11distributedNtB4_22DistributedCoordinator24execute_distributed_scan0Cs9djzN8x3YgW_26integration_workflow_tests
FN:199,_RNCNvMNtCs2kADRy9cGvI_18code_guardian_core11distributedNtB4_22DistributedCoordinator30simulate_distributed_execution0Cs9djzN8x3YgW_26integration_workflow_tests
FNDA:2,_RNCNCNvMNtCs2kADRy9cGvI_18code_guardian_core11distributedNtB6_22DistributedCoordinator24execute_distributed_scan00CsgJXiKT19grP_17code_guardian_cli
FNDA:2,_RNCNCNvMNtCs2kADRy9cGvI_18code_guardian_core11distributedNtB6_22DistributedCoordinator30simulate_distributed_execution00CsgJXiKT19grP_17code_guardian_cli
FNDA:0,_RNCNvMNtCs2kADRy9cGvI_18code_guardian_core11distributedNtB4_22DistributedCoordinator22execute_local_fallback0CsgJXiKT19grP_17code_guardian_cli
FNDA:2,_RNCNvMNtCs2kADRy9cGvI_18code_guardian_core11distributedNtB4_22DistributedCoordinator24execute_distributed_scan0CsgJXiKT19grP_17code_guardian_cli
FNDA:2,_RNCNvMNtCs2kADRy9cGvI_18code_guardian_core11distributedNtB4_22DistributedCoordinator30simulate_distributed_execution0CsgJXiKT19grP_17code_guardian_cli
FNDA:0,_RNCNCNvMNtCs2kADRy9cGvI_18code_guardian_core11distributedNtB6_22DistributedCoordinator24execute_distributed_scan00B8_
FNDA:0,_RNCNCNvMNtCs2kADRy9cGvI_18code_guardian_core11distributedNtB6_22DistributedCoordinator30simulate_distributed_execution00B8_
FNDA:0,_RNCNvMNtCs2kADRy9cGvI_18code_guardian_core11distributedNtB4_22DistributedCoordinator22execute_local_fallback0B6_
FNDA:0,_RNCNvMNtCs2kADRy9cGvI_18code_guardian_core11distributedNtB4_22DistributedCoordinator24execute_distributed_scan0B6_
FNDA:0,_RNCNvMNtCs2kADRy9cGvI_18code_guardian_core11distributedNtB4_22DistributedCoordinator30simulate_distributed_execution0B6_
FNDA:14,_RNCNCNvMNtCs2kADRy9cGvI_18code_guardian_core11distributedNtB6_22DistributedCoordinator14get_statisticss0_00B8_
FNDA:20,_RNCNvMNtCs2kADRy9cGvI_18code_guardian_core11distributedNtB4_22DistributedCoordinator14get_statisticss0_0B6_
FNDA:0,_RNCNvMNtCs2kADRy9cGvI_18code_guardian_core11distributedNtB4_22DistributedCoordinator17create_work_units0B6_
FNDA:4,_RNCNvMNtCs2kADRy9cGvI_18code_guardian_core11distributedNtB4_22DistributedCoordinator18calculate_priority0B6_
FNDA:4,_RNCNvMNtCs2kADRy9cGvI_18code_guardian_core11distributedNtB4_22DistributedCoordinator18calculate_prioritys0_0B6_
FNDA:4,_RNCNvMNtCs2kADRy9cGvI_18code_guardian_core11distributedNtB4_22DistributedCoordinator18calculate_prioritys_0B6_
FNDA:4,_RNCNvMNtCs2kADRy9cGvI_18code_guardian_core11distributedNtB4_22DistributedCoordinator24estimate_processing_time0B6_
FNDA:4,_RNCNvMNtCs2kADRy9cGvI_18code_guardian_core11distributedNtB4_22DistributedCoordinator24estimate_processing_times_0B6_
FNDA:10,_RNvMNtCs2kADRy9cGvI_18code_guardian_core11distributedNtB2_22DistributedCoordinator14get_statistics
FNDA:19,_RNvMNtCs2kADRy9cGvI_18code_guardian_core11distributedNtB2_22DistributedCoordinator15register_worker
FNDA:5,_RNvMNtCs2kADRy9cGvI_18code_guardian_core11distributedNtB2_22DistributedCoordinator17create_work_units
FNDA:3,_RNvMNtCs2kADRy9cGvI_18code_guardian_core11distributedNtB2_22DistributedCoordinator17process_work_unit
FNDA:10,_RNvMNtCs2kADRy9cGvI_18code_guardian_core11distributedNtB2_22DistributedCoordinator17register_detector
FNDA:3,_RNvMNtCs2kADRy9cGvI_18code_guardian_core11distributedNtB2_22DistributedCoordinator18calculate_priority
FNDA:0,_RNvMNtCs2kADRy9cGvI_18code_guardian_core11distributedNtB2_22DistributedCoordinator22execute_local_fallback
FNDA:5,_RNvMNtCs2kADRy9cGvI_18code_guardian_core11distributedNtB2_22DistributedCoordinator23print_execution_summary
FNDA:3,_RNvMNtCs2kADRy9cGvI_18code_guardian_core11distributedNtB2_22DistributedCoordinator24estimate_processing_time
FNDA:5,_RNvMNtCs2kADRy9cGvI_18code_guardian_core11distributedNtB2_22DistributedCoordinator24execute_distributed_scan
FNDA:5,_RNvMNtCs2kADRy9cGvI_18code_guardian_core11distributedNtB2_22DistributedCoordinator30simulate_distributed_execution
FNDA:9,_RNvMNtCs2kADRy9cGvI_18code_guardian_core11distributedNtB2_22DistributedCoordinator3new
FNDA:0,_RNvXs_NtCs2kADRy9cGvI_18code_guardian_core11distributedNtB4_22DistributedCoordinatorNtNtCs66KPHxksi63_4core7default7Default7default
FNDA:1,_RNCNCNvMNtCs2kADRy9cGvI_18code_guardian_core11distributedNtB6_22DistributedCoordinator24execute_distributed_scan00Csfep3jFmpOzf_23advanced_handlers_tests
FNDA:1,_RNCNCNvMNtCs2kADRy9cGvI_18code_guardian_core11distributedNtB6_22DistributedCoordinator30simulate_distributed_execution00Csfep3jFmpOzf_23advanced_handlers_tests
FNDA:0,_RNCNvMNtCs2kADRy9cGvI_18code_guardian_core11distributedNtB4_22DistributedCoordinator22execute_local_fallback0Csfep3jFmpOzf_23advanced_handlers_tests
FNDA:3,_RNCNvMNtCs2kADRy9cGvI_18code_guardian_core11distributedNtB4_22DistributedCoordinator24execute_distributed_scan0Csfep3jFmpOzf_23advanced_handlers_tests
FNDA:3,_RNCNvMNtCs2kADRy9cGvI_18code_guardian_core11distributedNtB4_22DistributedCoordinator30simulate_distributed_execution0Csfep3jFmpOzf_23advanced_handlers_tests
FNDA:0,_RNCNCNvMNtCscyrExoi8aIO_18code_guardian_core11distributedNtB6_22DistributedCoordinator14get_statisticss0_00B8_
FNDA:0,_RNCNCNvMNtCscyrExoi8aIO_18code_guardian_core11distributedNtB6_22DistributedCoordinator24execute_distributed_scan00B8_
FNDA:0,_RNCNCNvMNtCscyrExoi8aIO_18code_guardian_core11distributedNtB6_22DistributedCoordinator30simulate_distributed_execution00B8_
FNDA:0,_RNCNvMNtCscyrExoi8aIO_18code_guardian_core11distributedNtB4_22DistributedCoordinator14get_statisticss0_0B6_
FNDA:0,_RNCNvMNtCscyrExoi8aIO_18code_guardian_core11distributedNtB4_22DistributedCoordinator22execute_local_fallback0B6_
FNDA:0,_RNCNvMNtCscyrExoi8aIO_18code_guardian_core11distributedNtB4_22DistributedCoordinator24execute_distributed_scan0B6_
FNDA:0,_RNCNvMNtCscyrExoi8aIO_18code_guardian_core11distributedNtB4_22DistributedCoordinator30simulate_distributed_execution0B6_
FNDA:0,_RNvMNtCscyrExoi8aIO_18code_guardian_core11distributedNtB2_22DistributedCoordinator14get_statistics
FNDA:0,_RNvMNtCscyrExoi8aIO_18code_guardian_core11distributedNtB2_22DistributedCoordinator17process_work_unit
FNDA:0,_RNvMNtCscyrExoi8aIO_18code_guardian_core11distributedNtB2_22DistributedCoordinator22execute_local_fallback
FNDA:0,_RNvMNtCscyrExoi8aIO_18code_guardian_core11distributedNtB2_22DistributedCoordinator23print_execution_summary
FNDA:0,_RNvMNtCscyrExoi8aIO_18code_guardian_core11distributedNtB2_22DistributedCoordinator24execute_distributed_scan
FNDA:0,_RNvMNtCscyrExoi8aIO_18code_guardian_core11distributedNtB2_22DistributedCoordinator30simulate_distributed_execution
FNDA:0,_RNvXs_NtCscyrExoi8aIO_18code_guardian_core11distributedNtB4_22DistributedCoordinatorNtNtCs66KPHxksi63_4core7default7Default7default
FNDA:1,_RNvNtNtCscyrExoi8aIO_18code_guardian_core11distributed5testss_23test_work_unit_creation
FNDA:1,_RNvNtNtCscyrExoi8aIO_18code_guardian_core11distributed5testss_24test_worker_registration
FNDA:1,_RNvNtNtCscyrExoi8aIO_18code_guardian_core11distributed5testss_37test_distributed_coordinator_creation
FNDA:0,_RNCNvMNtCscyrExoi8aIO_18code_guardian_core11distributedNtB4_22DistributedCoordinator17create_work_units0B6_
FNDA:1,_RNCNvMNtCscyrExoi8aIO_18code_guardian_core11distributedNtB4_22DistributedCoordinator18calculate_priority0B6_
FNDA:1,_RNCNvMNtCscyrExoi8aIO_18code_guardian_core11distributedNtB4_22DistributedCoordinator18calculate_prioritys0_0B6_
FNDA:1,_RNCNvMNtCscyrExoi8aIO_18code_guardian_core11distributedNtB4_22DistributedCoordinator18calculate_prioritys_0B6_
FNDA:1,_RNCNvMNtCscyrExoi8aIO_18code_guardian_core11distributedNtB4_22DistributedCoordinator24estimate_processing_time0B6_
FNDA:1,_RNCNvMNtCscyrExoi8aIO_18code_guardian_core11distributedNtB4_22DistributedCoordinator24estimate_processing_times_0B6_
FNDA:1,_RNvMNtCscyrExoi8aIO_18code_guardian_core11distributedNtB2_22DistributedCoordinator15register_worker
FNDA:1,_RNvMNtCscyrExoi8aIO_18code_guardian_core11distributedNtB2_22DistributedCoordinator17create_work_units
FNDA:1,_RNvMNtCscyrExoi8aIO_18code_guardian_core11distributedNtB2_22DistributedCoordinator17register_detector
FNDA:1,_RNvMNtCscyrExoi8aIO_18code_guardian_core11distributedNtB2_22DistributedCoordinator18calculate_priority
FNDA:1,_RNvMNtCscyrExoi8aIO_18code_guardian_core11distributedNtB2_22DistributedCoordinator24estimate_processing_time
FNDA:3,_RNvMNtCscyrExoi8aIO_18code_guardian_core11distributedNtB2_22DistributedCoordinator3new
FNDA:0,_RNCNCNvMNtCs2kADRy9cGvI_18code_guardian_core11distributedNtB6_22DistributedCoordinator24execute_distributed_scan00Cs9djzN8x3YgW_26integration_workflow_tests
FNDA:0,_RNCNCNvMNtCs2kADRy9cGvI_18code_guardian_core11distributedNtB6_22DistributedCoordinator30simulate_distributed_execution00Cs9djzN8x3YgW_26integration_workflow_tests
FNDA:0,_RNCNvMNtCs2kADRy9cGvI_18code_guardian_core11distributedNtB4_22DistributedCoordinator22execute_local_fallback0Cs9djzN8x3YgW_26integration_workflow_tests
FNDA:0,_RNCNvMNtCs2kADRy9cGvI_18code_guardian_core11distributedNtB4_22DistributedCoordinator24execute_distributed_scan0Cs9djzN8x3YgW_26integration_workflow_tests
FNDA:0,_RNCNvMNtCs2kADRy9cGvI_18code_guardian_core11distributedNtB4_22DistributedCoordinator30simulate_distributed_execution0Cs9djzN8x3YgW_26integration_workflow_tests
FNF:29
FNH:25
DA:55,12
DA:56,12
DA:57,12
DA:58,12
DA:59,12
DA:60,12
DA:61,12
DA:62,12
DA:63,12
DA:66,20
DA:67,20
DA:68,0
DA:71,20
DA:72,20
DA:75,11
DA:76,11
DA:77,11
DA:80,6
DA:81,6
DA:82,4
DA:83,4
DA:84,4
DA:85,4
DA:86,4
DA:87,4
DA:88,4
DA:89,4
DA:90,4
DA:91,4
DA:92,4
DA:93,4
DA:96,6
DA:98,6
DA:99,0
DA:100,0
DA:101,0
DA:103,6
DA:104,6
DA:107,5
DA:108,5
DA:109,5
DA:111,5
DA:112,0
DA:113,0
DA:119,5
DA:120,5
DA:123,5
DA:125,0
DA:126,5
DA:130,5
DA:132,5
DA:133,5
DA:134,5
DA:135,5
DA:136,5
DA:138,5
DA:139,5
DA:143,5
DA:144,5
DA:147,5
DA:148,5
DA:151,10
DA:152,10
DA:153,10
DA:154,10
DA:155,10
DA:156,10
DA:158,10
DA:159,10
DA:160,10
DA:161,10
DA:162,10
DA:164,10
DA:165,10
DA:166,10
DA:167,20
DA:168,20
DA:169,20
DA:170,20
DA:171,20
DA:172,20
DA:174,20
DA:175,6
DA:177,14
DA:180,20
DA:181,20
DA:182,10
DA:185,10
DA:186,10
DA:187,10
DA:188,10
DA:189,10
DA:190,10
DA:191,10
DA:192,6
DA:194,4
DA:197,10
DA:199,5
DA:203,5
DA:204,5
DA:205,5
DA:206,5
DA:207,5
DA:208,3
DA:209,3
DA:210,3
DA:211,5
DA:214,8
DA:215,3
DA:216,3
DA:218,5
DA:219,5
DA:221,3
DA:222,3
DA:223,3
DA:224,3
DA:225,3
DA:227,7
DA:228,4
DA:229,3
DA:230,9
DA:231,6
DA:232,6
DA:233,6
DA:234,6
DA:236,3
DA:238,1
DA:239,1
DA:240,1
DA:244,3
DA:247,3
DA:248,3
DA:249,3
DA:250,3
DA:251,3
DA:252,3
DA:253,3
DA:254,3
DA:255,3
DA:257,3
DA:259,0
DA:260,0
DA:262,0
DA:263,0
DA:264,0
DA:265,0
DA:266,0
DA:267,0
DA:270,0
DA:271,0
DA:273,4
DA:275,4
DA:276,4
DA:277,4
DA:278,5
DA:279,5
DA:280,4
DA:282,4
DA:283,4
DA:285,4
DA:288,4
DA:289,4
DA:290,0
DA:291,0
DA:292,0
DA:296,4
DA:297,4
DA:298,5
DA:299,5
DA:300,5
DA:301,5
DA:302,1
DA:303,1
DA:304,5
DA:305,4
DA:306,4
DA:308,4
DA:309,4
DA:311,5
DA:312,5
DA:313,5
DA:314,5
DA:315,5
DA:317,5
DA:318,5
DA:319,5
DA:322,15
DA:323,10
DA:325,5
DA:341,0
DA:342,0
DA:343,0
DA:353,1
DA:354,1
DA:355,1
DA:356,1
DA:357,1
DA:360,1
DA:361,1
DA:363,1
DA:364,1
DA:365,1
DA:366,1
DA:367,1
DA:368,1
DA:369,1
DA:370,1
DA:372,1
DA:373,1
DA:374,1
DA:377,1
DA:378,1
DA:379,1
DA:380,1
DA:382,1
DA:383,1
DA:385,1
DA:386,1
DA:388,1
DA:389,1
DA:390,1
BRF:0
BRH:0
LF:234
LH:209
end_of_record
SF:/workspaces/code-guardian/crates/core/src/enhanced_config.rs
FN:106,_RNvXNtCs2kADRy9cGvI_18code_guardian_core15enhanced_configNtB2_18EnhancedScanConfigNtNtCs66KPHxksi63_4core7default7Default7default
FN:106,_RNvXNtCscyrExoi8aIO_18code_guardian_core15enhanced_configNtB2_18EnhancedScanConfigNtNtCs66KPHxksi63_4core7default7Default7default
FN:420,_RNvNtNtCscyrExoi8aIO_18code_guardian_core15enhanced_config5testss_17test_config_clone
FN:244,_RNvNtNtCscyrExoi8aIO_18code_guardian_core15enhanced_config5testss_27test_detector_type_equality
FN:390,_RNvNtNtCscyrExoi8aIO_18code_guardian_core15enhanced_config5testss_27test_file_extension_filters
FN:408,_RNvNtNtCscyrExoi8aIO_18code_guardian_core15enhanced_config5testss_28test_path_exclusion_patterns
FN:284,_RNvNtNtCscyrExoi8aIO_18code_guardian_core15enhanced_config5testss_29test_severity_levels_defaults
FN:320,_RNvNtNtCscyrExoi8aIO_18code_guardian_core15enhanced_config5testss_32test_all_detector_types_coverage
FN:367,_RNvNtNtCscyrExoi8aIO_18code_guardian_core15enhanced_config5testss_32test_config_with_custom_patterns
FN:258,_RNvNtNtCscyrExoi8aIO_18code_guardian_core15enhanced_config5testss_32test_detector_type_serialization
FN:232,_RNvNtNtCscyrExoi8aIO_18code_guardian_core15enhanced_config5testss_33test_enhanced_scan_config_default
FN:272,_RNvNtNtCscyrExoi8aIO_18code_guardian_core15enhanced_config5testss_34test_enhanced_config_serialization
FN:434,_RNvNtNtCscyrExoi8aIO_18code_guardian_core15enhanced_config5testss_40test_llm_security_patterns_comprehensive
FNDA:0,_RNvXNtCs2kADRy9cGvI_18code_guardian_core15enhanced_configNtB2_18EnhancedScanConfigNtNtCs66KPHxksi63_4core7default7Default7default
FNDA:12,_RNvXNtCscyrExoi8aIO_18code_guardian_core15enhanced_configNtB2_18EnhancedScanConfigNtNtCs66KPHxksi63_4core7default7Default7default
FNDA:1,_RNvNtNtCscyrExoi8aIO_18code_guardian_core15enhanced_config5testss_17test_config_clone
FNDA:1,_RNvNtNtCscyrExoi8aIO_18code_guardian_core15enhanced_config5testss_27test_detector_type_equality
FNDA:1,_RNvNtNtCscyrExoi8aIO_18code_guardian_core15enhanced_config5testss_27test_file_extension_filters
FNDA:1,_RNvNtNtCscyrExoi8aIO_18code_guardian_core15enhanced_config5testss_28test_path_exclusion_patterns
FNDA:1,_RNvNtNtCscyrExoi8aIO_18code_guardian_core15enhanced_config5testss_29test_severity_levels_defaults
FNDA:1,_RNvNtNtCscyrExoi8aIO_18code_guardian_core15enhanced_config5testss_32test_all_detector_types_coverage
FNDA:1,_RNvNtNtCscyrExoi8aIO_18code_guardian_core15enhanced_config5testss_32test_config_with_custom_patterns
FNDA:1,_RNvNtNtCscyrExoi8aIO_18code_guardian_core15enhanced_config5testss_32test_detector_type_serialization
FNDA:1,_RNvNtNtCscyrExoi8aIO_18code_guardian_core15enhanced_config5testss_33test_enhanced_scan_config_default
FNDA:1,_RNvNtNtCscyrExoi8aIO_18code_guardian_core15enhanced_config5testss_34test_enhanced_config_serialization
FNDA:1,_RNvNtNtCscyrExoi8aIO_18code_guardian_core15enhanced_config5testss_40test_llm_security_patterns_comprehensive
FNF:12
FNH:12
DA:106,12
DA:107,12
DA:108,12
DA:109,12
DA:110,12
DA:111,12
DA:112,12
DA:113,12
DA:114,12
DA:115,12
DA:118,12
DA:119,12
DA:120,12
DA:121,12
DA:122,12
DA:125,12
DA:126,12
DA:127,12
DA:128,12
DA:129,12
DA:130,12
DA:131,12
DA:134,12
DA:135,12
DA:136,12
DA:137,12
DA:138,12
DA:139,12
DA:140,12
DA:141,12
DA:142,12
DA:145,12
DA:146,12
DA:147,12
DA:148,12
DA:149,12
DA:150,12
DA:151,12
DA:152,12
DA:153,12
DA:156,12
DA:157,12
DA:158,12
DA:159,12
DA:160,12
DA:161,12
DA:162,12
DA:164,12
DA:165,12
DA:166,12
DA:167,12
DA:168,12
DA:169,12
DA:170,12
DA:171,12
DA:172,12
DA:173,12
DA:174,12
DA:175,12
DA:176,12
DA:177,12
DA:178,12
DA:179,12
DA:180,12
DA:181,12
DA:182,12
DA:183,12
DA:184,12
DA:185,12
DA:186,12
DA:187,12
DA:188,12
DA:189,12
DA:190,12
DA:191,12
DA:192,12
DA:193,12
DA:194,12
DA:195,12
DA:196,12
DA:197,12
DA:198,12
DA:199,12
DA:200,12
DA:201,12
DA:202,12
DA:203,12
DA:204,12
DA:205,12
DA:206,12
DA:207,12
DA:208,12
DA:209,12
DA:210,12
DA:211,12
DA:212,12
DA:213,12
DA:214,12
DA:215,12
DA:216,12
DA:217,12
DA:218,12
DA:219,12
DA:220,12
DA:221,12
DA:222,12
DA:223,12
DA:224,12
DA:232,1
DA:233,1
DA:235,1
DA:236,1
DA:237,1
DA:238,1
DA:239,1
DA:240,1
DA:241,1
DA:244,1
DA:245,1
DA:246,1
DA:247,1
DA:248,1
DA:249,1
DA:251,1
DA:252,1
DA:253,1
DA:255,1
DA:258,1
DA:259,1
DA:260,1
DA:261,1
DA:262,1
DA:265,1
DA:266,1
DA:267,1
DA:268,1
DA:269,1
DA:272,1
DA:273,1
DA:274,1
DA:275,1
DA:277,1
DA:278,1
DA:279,1
DA:280,1
DA:281,1
DA:284,1
DA:285,1
DA:288,1
DA:289,1
DA:290,1
DA:291,1
DA:294,1
DA:295,1
DA:298,1
DA:299,1
DA:302,1
DA:303,1
DA:308,1
DA:309,1
DA:310,1
DA:313,1
DA:314,1
DA:317,1
DA:320,1
DA:322,1
DA:323,1
DA:324,1
DA:325,1
DA:326,1
DA:327,1
DA:328,1
DA:329,1
DA:332,8
DA:333,7
DA:334,7
DA:338,1
DA:339,1
DA:340,1
DA:341,1
DA:342,1
DA:343,1
DA:346,6
DA:347,5
DA:348,5
DA:352,1
DA:353,1
DA:354,1
DA:355,1
DA:356,1
DA:357,1
DA:360,6
DA:361,5
DA:362,5
DA:364,1
DA:367,1
DA:368,1
DA:369,1
DA:370,1
DA:371,1
DA:372,1
DA:373,1
DA:374,1
DA:376,1
DA:377,1
DA:378,1
DA:383,1
DA:384,1
DA:385,1
DA:387,1
DA:390,1
DA:391,1
DA:394,1
DA:395,1
DA:396,1
DA:397,1
DA:398,1
DA:401,1
DA:402,1
DA:403,1
DA:404,1
DA:405,1
DA:408,1
DA:409,1
DA:412,1
DA:413,1
DA:414,1
DA:415,1
DA:416,1
DA:417,1
DA:420,1
DA:421,1
DA:422,1
DA:424,1
DA:425,1
DA:426,1
DA:427,1
DA:428,1
DA:429,1
DA:430,1
DA:431,1
DA:434,1
DA:435,1
DA:438,1
DA:440,1
DA:441,1
DA:442,1
DA:443,1
DA:446,6
DA:447,5
DA:448,5
DA:449,5
DA:450,0
DA:455,1
BRF:0
BRH:0
LF:254
LH:253
end_of_record
SF:/workspaces/code-guardian/crates/core/src/health_server.rs
FN:245,_RNCNCNvNtCs2kADRy9cGvI_18code_guardian_core13health_server15shutdown_signal00B7_
FN:252,_RNCNCNvNtCs2kADRy9cGvI_18code_guardian_core13health_server15shutdown_signal0s_0B7_
FN:217,_RNCNCNvNtCs2kADRy9cGvI_18code_guardian_core13health_server19start_health_server00B7_
FN:48,_RNCNvNtCs2kADRy9cGvI_18code_guardian_core13health_server14health_handler0B5_
FN:193,_RNCNvNtCs2kADRy9cGvI_18code_guardian_core13health_server15check_readiness0B5_
FN:123,_RNCNvNtCs2kADRy9cGvI_18code_guardian_core13health_server15metrics_handler0B5_
FN:242,_RNCNvNtCs2kADRy9cGvI_18code_guardian_core13health_server15shutdown_signal0B5_
FN:112,_RNCNvNtCs2kADRy9cGvI_18code_guardian_core13health_server16liveness_handler0B5_
FN:175,_RNCNvNtCs2kADRy9cGvI_18code_guardian_core13health_server17check_disk_health0B5_
FN:93,_RNCNvNtCs2kADRy9cGvI_18code_guardian_core13health_server17readiness_handler0B5_
FN:156,_RNCNvNtCs2kADRy9cGvI_18code_guardian_core13health_server19check_memory_health0B5_
FN:213,_RNCNvNtCs2kADRy9cGvI_18code_guardian_core13health_server19start_health_server0B5_
FN:145,_RNCNvNtCs2kADRy9cGvI_18code_guardian_core13health_server20check_scanner_health0B5_
FN:136,_RNCNvNtCs2kADRy9cGvI_18code_guardian_core13health_server21check_database_health0B5_
FN:46,_RNvNtCs2kADRy9cGvI_18code_guardian_core13health_server14health_handler
FN:193,_RNvNtCs2kADRy9cGvI_18code_guardian_core13health_server15check_readiness
FN:123,_RNvNtCs2kADRy9cGvI_18code_guardian_core13health_server15metrics_handler
FN:242,_RNvNtCs2kADRy9cGvI_18code_guardian_core13health_server15shutdown_signal
FN:112,_RNvNtCs2kADRy9cGvI_18code_guardian_core13health_server16liveness_handler
FN:175,_RNvNtCs2kADRy9cGvI_18code_guardian_core13health_server17check_disk_health
FN:91,_RNvNtCs2kADRy9cGvI_18code_guardian_core13health_server17readiness_handler
FN:156,_RNvNtCs2kADRy9cGvI_18code_guardian_core13health_server19check_memory_health
FN:211,_RNvNtCs2kADRy9cGvI_18code_guardian_core13health_server19start_health_server
FN:145,_RNvNtCs2kADRy9cGvI_18code_guardian_core13health_server20check_scanner_health
FN:136,_RNvNtCs2kADRy9cGvI_18code_guardian_core13health_server21check_database_health
FN:38,_RNvXNtCs2kADRy9cGvI_18code_guardian_core13health_serverNtB2_11HealthStateNtNtCs66KPHxksi63_4core7default7Default7default
FN:245,_RNCNCNvNtCscyrExoi8aIO_18code_guardian_core13health_server15shutdown_signal00B7_
FN:252,_RNCNCNvNtCscyrExoi8aIO_18code_guardian_core13health_server15shutdown_signal0s_0B7_
FN:217,_RNCNCNvNtCscyrExoi8aIO_18code_guardian_core13health_server19start_health_server00B7_
FN:48,_RNCNvNtCscyrExoi8aIO_18code_guardian_core13health_server14health_handler0B5_
FN:193,_RNCNvNtCscyrExoi8aIO_18code_guardian_core13health_server15check_readiness0B5_
FN:123,_RNCNvNtCscyrExoi8aIO_18code_guardian_core13health_server15metrics_handler0B5_
FN:242,_RNCNvNtCscyrExoi8aIO_18code_guardian_core13health_server15shutdown_signal0B5_
FN:112,_RNCNvNtCscyrExoi8aIO_18code_guardian_core13health_server16liveness_handler0B5_
FN:175,_RNCNvNtCscyrExoi8aIO_18code_guardian_core13health_server17check_disk_health0B5_
FN:93,_RNCNvNtCscyrExoi8aIO_18code_guardian_core13health_server17readiness_handler0B5_
FN:156,_RNCNvNtCscyrExoi8aIO_18code_guardian_core13health_server19check_memory_health0B5_
FN:213,_RNCNvNtCscyrExoi8aIO_18code_guardian_core13health_server19start_health_server0B5_
FN:145,_RNCNvNtCscyrExoi8aIO_18code_guardian_core13health_server20check_scanner_health0B5_
FN:136,_RNCNvNtCscyrExoi8aIO_18code_guardian_core13health_server21check_database_health0B5_
FN:46,_RNvNtCscyrExoi8aIO_18code_guardian_core13health_server14health_handler
FN:193,_RNvNtCscyrExoi8aIO_18code_guardian_core13health_server15check_readiness
FN:123,_RNvNtCscyrExoi8aIO_18code_guardian_core13health_server15metrics_handler
FN:242,_RNvNtCscyrExoi8aIO_18code_guardian_core13health_server15shutdown_signal
FN:112,_RNvNtCscyrExoi8aIO_18code_guardian_core13health_server16liveness_handler
FN:175,_RNvNtCscyrExoi8aIO_18code_guardian_core13health_server17check_disk_health
FN:91,_RNvNtCscyrExoi8aIO_18code_guardian_core13health_server17readiness_handler
FN:156,_RNvNtCscyrExoi8aIO_18code_guardian_core13health_server19check_memory_health
FN:211,_RNvNtCscyrExoi8aIO_18code_guardian_core13health_server19start_health_server
FN:145,_RNvNtCscyrExoi8aIO_18code_guardian_core13health_server20check_scanner_health
FN:136,_RNvNtCscyrExoi8aIO_18code_guardian_core13health_server21check_database_health
FN:38,_RNvXNtCscyrExoi8aIO_18code_guardian_core13health_serverNtB2_11HealthStateNtNtCs66KPHxksi63_4core7default7Default7default
FN:217,_RNCNCNvNtCs2kADRy9cGvI_18code_guardian_core13health_server19start_health_server00CshdbXhLfSsaV_19health_server_tests
FN:48,_RNCNvNtCs2kADRy9cGvI_18code_guardian_core13health_server14health_handler0CshdbXhLfSsaV_19health_server_tests
FN:193,_RNCNvNtCs2kADRy9cGvI_18code_guardian_core13health_server15check_readiness0CshdbXhLfSsaV_19health_server_tests
FN:123,_RNCNvNtCs2kADRy9cGvI_18code_guardian_core13health_server15metrics_handler0CshdbXhLfSsaV_19health_server_tests
FN:112,_RNCNvNtCs2kADRy9cGvI_18code_guardian_core13health_server16liveness_handler0CshdbXhLfSsaV_19health_server_tests
FN:175,_RNCNvNtCs2kADRy9cGvI_18code_guardian_core13health_server17check_disk_health0CshdbXhLfSsaV_19health_server_tests
FN:93,_RNCNvNtCs2kADRy9cGvI_18code_guardian_core13health_server17readiness_handler0CshdbXhLfSsaV_19health_server_tests
FN:156,_RNCNvNtCs2kADRy9cGvI_18code_guardian_core13health_server19check_memory_health0CshdbXhLfSsaV_19health_server_tests
FN:213,_RNCNvNtCs2kADRy9cGvI_18code_guardian_core13health_server19start_health_server0CshdbXhLfSsaV_19health_server_tests
FN:145,_RNCNvNtCs2kADRy9cGvI_18code_guardian_core13health_server20check_scanner_health0CshdbXhLfSsaV_19health_server_tests
FN:136,_RNCNvNtCs2kADRy9cGvI_18code_guardian_core13health_server21check_database_health0CshdbXhLfSsaV_19health_server_tests
FNDA:0,_RNCNCNvNtCs2kADRy9cGvI_18code_guardian_core13health_server15shutdown_signal00B7_
FNDA:0,_RNCNCNvNtCs2kADRy9cGvI_18code_guardian_core13health_server15shutdown_signal0s_0B7_
FNDA:0,_RNCNCNvNtCs2kADRy9cGvI_18code_guardian_core13health_server19start_health_server00B7_
FNDA:0,_RNCNvNtCs2kADRy9cGvI_18code_guardian_core13health_server14health_handler0B5_
FNDA:0,_RNCNvNtCs2kADRy9cGvI_18code_guardian_core13health_server15check_readiness0B5_
FNDA:0,_RNCNvNtCs2kADRy9cGvI_18code_guardian_core13health_server15metrics_handler0B5_
FNDA:0,_RNCNvNtCs2kADRy9cGvI_18code_guardian_core13health_server15shutdown_signal0B5_
FNDA:0,_RNCNvNtCs2kADRy9cGvI_18code_guardian_core13health_server16liveness_handler0B5_
FNDA:0,_RNCNvNtCs2kADRy9cGvI_18code_guardian_core13health_server17check_disk_health0B5_
FNDA:0,_RNCNvNtCs2kADRy9cGvI_18code_guardian_core13health_server17readiness_handler0B5_
FNDA:0,_RNCNvNtCs2kADRy9cGvI_18code_guardian_core13health_server19check_memory_health0B5_
FNDA:0,_RNCNvNtCs2kADRy9cGvI_18code_guardian_core13health_server19start_health_server0B5_
FNDA:0,_RNCNvNtCs2kADRy9cGvI_18code_guardian_core13health_server20check_scanner_health0B5_
FNDA:0,_RNCNvNtCs2kADRy9cGvI_18code_guardian_core13health_server21check_database_health0B5_
FNDA:0,_RNvNtCs2kADRy9cGvI_18code_guardian_core13health_server14health_handler
FNDA:0,_RNvNtCs2kADRy9cGvI_18code_guardian_core13health_server15check_readiness
FNDA:0,_RNvNtCs2kADRy9cGvI_18code_guardian_core13health_server15metrics_handler
FNDA:0,_RNvNtCs2kADRy9cGvI_18code_guardian_core13health_server15shutdown_signal
FNDA:0,_RNvNtCs2kADRy9cGvI_18code_guardian_core13health_server16liveness_handler
FNDA:0,_RNvNtCs2kADRy9cGvI_18code_guardian_core13health_server17check_disk_health
FNDA:0,_RNvNtCs2kADRy9cGvI_18code_guardian_core13health_server17readiness_handler
FNDA:0,_RNvNtCs2kADRy9cGvI_18code_guardian_core13health_server19check_memory_health
FNDA:1,_RNvNtCs2kADRy9cGvI_18code_guardian_core13health_server19start_health_server
FNDA:0,_RNvNtCs2kADRy9cGvI_18code_guardian_core13health_server20check_scanner_health
FNDA:0,_RNvNtCs2kADRy9cGvI_18code_guardian_core13health_server21check_database_health
FNDA:4,_RNvXNtCs2kADRy9cGvI_18code_guardian_core13health_serverNtB2_11HealthStateNtNtCs66KPHxksi63_4core7default7Default7default
FNDA:0,_RNCNCNvNtCscyrExoi8aIO_18code_guardian_core13health_server15shutdown_signal00B7_
FNDA:0,_RNCNCNvNtCscyrExoi8aIO_18code_guardian_core13health_server15shutdown_signal0s_0B7_
FNDA:0,_RNCNCNvNtCscyrExoi8aIO_18code_guardian_core13health_server19start_health_server00B7_
FNDA:0,_RNCNvNtCscyrExoi8aIO_18code_guardian_core13health_server14health_handler0B5_
FNDA:0,_RNCNvNtCscyrExoi8aIO_18code_guardian_core13health_server15check_readiness0B5_
FNDA:0,_RNCNvNtCscyrExoi8aIO_18code_guardian_core13health_server15metrics_handler0B5_
FNDA:0,_RNCNvNtCscyrExoi8aIO_18code_guardian_core13health_server15shutdown_signal0B5_
FNDA:0,_RNCNvNtCscyrExoi8aIO_18code_guardian_core13health_server16liveness_handler0B5_
FNDA:0,_RNCNvNtCscyrExoi8aIO_18code_guardian_core13health_server17check_disk_health0B5_
FNDA:0,_RNCNvNtCscyrExoi8aIO_18code_guardian_core13health_server17readiness_handler0B5_
FNDA:0,_RNCNvNtCscyrExoi8aIO_18code_guardian_core13health_server19check_memory_health0B5_
FNDA:0,_RNCNvNtCscyrExoi8aIO_18code_guardian_core13health_server19start_health_server0B5_
FNDA:0,_RNCNvNtCscyrExoi8aIO_18code_guardian_core13health_server20check_scanner_health0B5_
FNDA:0,_RNCNvNtCscyrExoi8aIO_18code_guardian_core13health_server21check_database_health0B5_
FNDA:0,_RNvNtCscyrExoi8aIO_18code_guardian_core13health_server14health_handler
FNDA:0,_RNvNtCscyrExoi8aIO_18code_guardian_core13health_server15check_readiness
FNDA:0,_RNvNtCscyrExoi8aIO_18code_guardian_core13health_server15metrics_handler
FNDA:0,_RNvNtCscyrExoi8aIO_18code_guardian_core13health_server15shutdown_signal
FNDA:0,_RNvNtCscyrExoi8aIO_18code_guardian_core13health_server16liveness_handler
FNDA:0,_RNvNtCscyrExoi8aIO_18code_guardian_core13health_server17check_disk_health
FNDA:0,_RNvNtCscyrExoi8aIO_18code_guardian_core13health_server17readiness_handler
FNDA:0,_RNvNtCscyrExoi8aIO_18code_guardian_core13health_server19check_memory_health
FNDA:0,_RNvNtCscyrExoi8aIO_18code_guardian_core13health_server19start_health_server
FNDA:0,_RNvNtCscyrExoi8aIO_18code_guardian_core13health_server20check_scanner_health
FNDA:0,_RNvNtCscyrExoi8aIO_18code_guardian_core13health_server21check_database_health
FNDA:0,_RNvXNtCscyrExoi8aIO_18code_guardian_core13health_serverNtB2_11HealthStateNtNtCs66KPHxksi63_4core7default7Default7default
FNDA:0,_RNCNCNvNtCs2kADRy9cGvI_18code_guardian_core13health_server19start_health_server00CshdbXhLfSsaV_19health_server_tests
FNDA:0,_RNCNvNtCs2kADRy9cGvI_18code_guardian_core13health_server14health_handler0CshdbXhLfSsaV_19health_server_tests
FNDA:0,_RNCNvNtCs2kADRy9cGvI_18code_guardian_core13health_server15check_readiness0CshdbXhLfSsaV_19health_server_tests
FNDA:0,_RNCNvNtCs2kADRy9cGvI_18code_guardian_core13health_server15metrics_handler0CshdbXhLfSsaV_19health_server_tests
FNDA:0,_RNCNvNtCs2kADRy9cGvI_18code_guardian_core13health_server16liveness_handler0CshdbXhLfSsaV_19health_server_tests
FNDA:0,_RNCNvNtCs2kADRy9cGvI_18code_guardian_core13health_server17check_disk_health0CshdbXhLfSsaV_19health_server_tests
FNDA:0,_RNCNvNtCs2kADRy9cGvI_18code_guardian_core13health_server17readiness_handler0CshdbXhLfSsaV_19health_server_tests
FNDA:0,_RNCNvNtCs2kADRy9cGvI_18code_guardian_core13health_server19check_memory_health0CshdbXhLfSsaV_19health_server_tests
FNDA:1,_RNCNvNtCs2kADRy9cGvI_18code_guardian_core13health_server19start_health_server0CshdbXhLfSsaV_19health_server_tests
FNDA:0,_RNCNvNtCs2kADRy9cGvI_18code_guardian_core13health_server20check_scanner_health0CshdbXhLfSsaV_19health_server_tests
FNDA:0,_RNCNvNtCs2kADRy9cGvI_18code_guardian_core13health_server21check_database_health0CshdbXhLfSsaV_19health_server_tests
FNF:26
FNH:3
DA:38,4
DA:39,4
DA:40,4
DA:41,4
DA:42,4
DA:43,4
DA:46,0
DA:47,0
DA:48,0
DA:49,0
DA:50,0
DA:53,0
DA:54,0
DA:55,0
DA:56,0
DA:58,0
DA:59,0
DA:60,0
DA:61,0
DA:63,0
DA:64,0
DA:65,0
DA:67,0
DA:70,0
DA:71,0
DA:72,0
DA:73,0
DA:74,0
DA:75,0
DA:76,0
DA:77,0
DA:78,0
DA:79,0
DA:80,0
DA:81,0
DA:83,0
DA:84,0
DA:86,0
DA:87,0
DA:89,0
DA:91,0
DA:92,0
DA:93,0
DA:95,0
DA:97,0
DA:98,0
DA:99,0
DA:100,0
DA:101,0
DA:102,0
DA:103,0
DA:105,0
DA:106,0
DA:107,0
DA:110,0
DA:112,0
DA:114,0
DA:115,0
DA:116,0
DA:117,0
DA:118,0
DA:119,0
DA:120,0
DA:121,0
DA:123,0
DA:124,0
DA:125,0
DA:126,0
DA:127,0
DA:129,0
DA:130,0
DA:131,0
DA:134,0
DA:136,0
DA:139,0
DA:140,0
DA:141,0
DA:143,0
DA:145,0
DA:148,0
DA:149,0
DA:150,0
DA:152,0
DA:154,0
DA:156,0
DA:159,0
DA:160,0
DA:162,0
DA:163,0
DA:164,0
DA:166,0
DA:167,0
DA:168,0
DA:169,0
DA:171,0
DA:173,0
DA:175,0
DA:180,0
DA:183,0
DA:184,0
DA:186,0
DA:189,0
DA:191,0
DA:193,0
DA:198,0
DA:199,0
DA:200,0
DA:201,0
DA:204,0
DA:205,0
DA:206,0
DA:208,0
DA:209,0
DA:211,1
DA:212,1
DA:213,1
DA:214,1
DA:217,1
DA:219,1
DA:220,1
DA:221,1
DA:222,1
DA:223,1
DA:224,1
DA:226,1
DA:227,1
DA:229,1
DA:230,1
DA:231,1
DA:232,1
DA:233,1
DA:234,1
DA:236,1
DA:238,0
DA:239,0
DA:242,0
DA:245,0
DA:246,0
DA:247,0
DA:248,0
DA:249,0
DA:252,0
DA:253,0
DA:254,0
DA:255,0
DA:256,0
DA:257,0
DA:262,0
DA:263,0
DA:264,0
DA:266,0
DA:267,0
DA:270,0
BRF:0
BRH:0
LF:167
LH:27
end_of_record
SF:/workspaces/code-guardian/crates/core/src/incremental.rs
FN:255,_RNCNvMNtCs2kADRy9cGvI_18code_guardian_core11incrementalNtB4_18IncrementalScanner13collect_files0B6_
FN:220,_RNCNvMNtCs2kADRy9cGvI_18code_guardian_core11incrementalNtB4_18IncrementalScanner14get_statistics0B6_
FN:234,_RNCNvMNtCs2kADRy9cGvI_18code_guardian_core11incrementalNtB4_18IncrementalScanner14get_statisticss0_0B6_
FN:131,_RNCNvMNtCs2kADRy9cGvI_18code_guardian_core11incrementalNtB4_18IncrementalScanner16scan_incremental0B6_
FN:338,_RNvMNtCs2kADRy9cGvI_18code_guardian_core11incrementalNtB2_18IncrementalScanner10save_state
FN:249,_RNvMNtCs2kADRy9cGvI_18code_guardian_core11incrementalNtB2_18IncrementalScanner13collect_files
FN:208,_RNvMNtCs2kADRy9cGvI_18code_guardian_core11incrementalNtB2_18IncrementalScanner14get_statistics
FN:70,_RNvMNtCs2kADRy9cGvI_18code_guardian_core11incrementalNtB2_18IncrementalScanner16scan_incremental
FN:329,_RNvMNtCs2kADRy9cGvI_18code_guardian_core11incrementalNtB2_18IncrementalScanner17calculate_speedup
FN:202,_RNvMNtCs2kADRy9cGvI_18code_guardian_core11incrementalNtB2_18IncrementalScanner17force_full_rescan
FN:262,_RNvMNtCs2kADRy9cGvI_18code_guardian_core11incrementalNtB2_18IncrementalScanner17get_file_metadata
FN:296,_RNvMNtCs2kADRy9cGvI_18code_guardian_core11incrementalNtB2_18IncrementalScanner19calculate_file_hash
FN:306,_RNvMNtCs2kADRy9cGvI_18code_guardian_core11incrementalNtB2_18IncrementalScanner22calculate_content_hash
FN:316,_RNvMNtCs2kADRy9cGvI_18code_guardian_core11incrementalNtB2_18IncrementalScanner23calculate_detector_hash
FN:53,_RNvMNtCs2kADRy9cGvI_18code_guardian_core11incrementalNtB2_18IncrementalScanner3new
FN:255,_RNCNvMNtCscyrExoi8aIO_18code_guardian_core11incrementalNtB4_18IncrementalScanner13collect_files0B6_
FN:131,_RNCNvMNtCscyrExoi8aIO_18code_guardian_core11incrementalNtB4_18IncrementalScanner16scan_incremental0B6_
FN:220,_RNCNvMNtCscyrExoi8aIO_18code_guardian_core11incrementalNtB4_18IncrementalScanner14get_statistics0B6_
FN:234,_RNCNvMNtCscyrExoi8aIO_18code_guardian_core11incrementalNtB4_18IncrementalScanner14get_statisticss0_0B6_
FN:208,_RNvMNtCscyrExoi8aIO_18code_guardian_core11incrementalNtB2_18IncrementalScanner14get_statistics
FN:202,_RNvMNtCscyrExoi8aIO_18code_guardian_core11incrementalNtB2_18IncrementalScanner17force_full_rescan
FN:371,_RNvNtNtCscyrExoi8aIO_18code_guardian_core11incremental5testss_27test_file_metadata_tracking
FN:362,_RNvNtNtCscyrExoi8aIO_18code_guardian_core11incremental5testss_33test_incremental_scanner_creation
FN:338,_RNvMNtCscyrExoi8aIO_18code_guardian_core11incrementalNtB2_18IncrementalScanner10save_state
FN:249,_RNvMNtCscyrExoi8aIO_18code_guardian_core11incrementalNtB2_18IncrementalScanner13collect_files
FN:70,_RNvMNtCscyrExoi8aIO_18code_guardian_core11incrementalNtB2_18IncrementalScanner16scan_incremental
FN:329,_RNvMNtCscyrExoi8aIO_18code_guardian_core11incrementalNtB2_18IncrementalScanner17calculate_speedup
FN:262,_RNvMNtCscyrExoi8aIO_18code_guardian_core11incrementalNtB2_18IncrementalScanner17get_file_metadata
FN:296,_RNvMNtCscyrExoi8aIO_18code_guardian_core11incrementalNtB2_18IncrementalScanner19calculate_file_hash
FN:306,_RNvMNtCscyrExoi8aIO_18code_guardian_core11incrementalNtB2_18IncrementalScanner22calculate_content_hash
FN:316,_RNvMNtCscyrExoi8aIO_18code_guardian_core11incrementalNtB2_18IncrementalScanner23calculate_detector_hash
FN:53,_RNvMNtCscyrExoi8aIO_18code_guardian_core11incrementalNtB2_18IncrementalScanner3new
FNDA:14,_RNCNvMNtCs2kADRy9cGvI_18code_guardian_core11incrementalNtB4_18IncrementalScanner13collect_files0B6_
FNDA:0,_RNCNvMNtCs2kADRy9cGvI_18code_guardian_core11incrementalNtB4_18IncrementalScanner14get_statistics0B6_
FNDA:0,_RNCNvMNtCs2kADRy9cGvI_18code_guardian_core11incrementalNtB4_18IncrementalScanner14get_statisticss0_0B6_
FNDA:10,_RNCNvMNtCs2kADRy9cGvI_18code_guardian_core11incrementalNtB4_18IncrementalScanner16scan_incremental0B6_
FNDA:4,_RNvMNtCs2kADRy9cGvI_18code_guardian_core11incrementalNtB2_18IncrementalScanner10save_state
FNDA:4,_RNvMNtCs2kADRy9cGvI_18code_guardian_core11incrementalNtB2_18IncrementalScanner13collect_files
FNDA:0,_RNvMNtCs2kADRy9cGvI_18code_guardian_core11incrementalNtB2_18IncrementalScanner14get_statistics
FNDA:4,_RNvMNtCs2kADRy9cGvI_18code_guardian_core11incrementalNtB2_18IncrementalScanner16scan_incremental
FNDA:4,_RNvMNtCs2kADRy9cGvI_18code_guardian_core11incrementalNtB2_18IncrementalScanner17calculate_speedup
FNDA:0,_RNvMNtCs2kADRy9cGvI_18code_guardian_core11incrementalNtB2_18IncrementalScanner17force_full_rescan
FNDA:10,_RNvMNtCs2kADRy9cGvI_18code_guardian_core11incrementalNtB2_18IncrementalScanner17get_file_metadata
FNDA:10,_RNvMNtCs2kADRy9cGvI_18code_guardian_core11incrementalNtB2_18IncrementalScanner19calculate_file_hash
FNDA:10,_RNvMNtCs2kADRy9cGvI_18code_guardian_core11incrementalNtB2_18IncrementalScanner22calculate_content_hash
FNDA:10,_RNvMNtCs2kADRy9cGvI_18code_guardian_core11incrementalNtB2_18IncrementalScanner23calculate_detector_hash
FNDA:4,_RNvMNtCs2kADRy9cGvI_18code_guardian_core11incrementalNtB2_18IncrementalScanner3new
FNDA:4,_RNCNvMNtCscyrExoi8aIO_18code_guardian_core11incrementalNtB4_18IncrementalScanner13collect_files0B6_
FNDA:1,_RNCNvMNtCscyrExoi8aIO_18code_guardian_core11incrementalNtB4_18IncrementalScanner16scan_incremental0B6_
FNDA:0,_RNCNvMNtCscyrExoi8aIO_18code_guardian_core11incrementalNtB4_18IncrementalScanner14get_statistics0B6_
FNDA:0,_RNCNvMNtCscyrExoi8aIO_18code_guardian_core11incrementalNtB4_18IncrementalScanner14get_statisticss0_0B6_
FNDA:0,_RNvMNtCscyrExoi8aIO_18code_guardian_core11incrementalNtB2_18IncrementalScanner14get_statistics
FNDA:0,_RNvMNtCscyrExoi8aIO_18code_guardian_core11incrementalNtB2_18IncrementalScanner17force_full_rescan
FNDA:1,_RNvNtNtCscyrExoi8aIO_18code_guardian_core11incremental5testss_27test_file_metadata_tracking
FNDA:1,_RNvNtNtCscyrExoi8aIO_18code_guardian_core11incremental5testss_33test_incremental_scanner_creation
FNDA:2,_RNvMNtCscyrExoi8aIO_18code_guardian_core11incrementalNtB2_18IncrementalScanner10save_state
FNDA:2,_RNvMNtCscyrExoi8aIO_18code_guardian_core11incrementalNtB2_18IncrementalScanner13collect_files
FNDA:2,_RNvMNtCscyrExoi8aIO_18code_guardian_core11incrementalNtB2_18IncrementalScanner16scan_incremental
FNDA:2,_RNvMNtCscyrExoi8aIO_18code_guardian_core11incrementalNtB2_18IncrementalScanner17calculate_speedup
FNDA:2,_RNvMNtCscyrExoi8aIO_18code_guardian_core11incrementalNtB2_18IncrementalScanner17get_file_metadata
FNDA:2,_RNvMNtCscyrExoi8aIO_18code_guardian_core11incrementalNtB2_18IncrementalScanner19calculate_file_hash
FNDA:2,_RNvMNtCscyrExoi8aIO_18code_guardian_core11incrementalNtB2_18IncrementalScanner22calculate_content_hash
FNDA:2,_RNvMNtCscyrExoi8aIO_18code_guardian_core11incrementalNtB2_18IncrementalScanner23calculate_detector_hash
FNDA:2,_RNvMNtCscyrExoi8aIO_18code_guardian_core11incrementalNtB2_18IncrementalScanner3new
FNF:17
FNH:13
DA:53,6
DA:54,6
DA:55,4
DA:56,4
DA:58,2
DA:61,6
DA:62,6
DA:63,6
DA:64,6
DA:65,6
DA:66,6
DA:67,6
DA:70,6
DA:71,6
DA:72,6
DA:74,6
DA:75,6
DA:76,6
DA:77,6
DA:78,6
DA:79,6
DA:82,6
DA:83,6
DA:85,6
DA:86,3
DA:87,3
DA:88,3
DA:89,3
DA:90,3
DA:91,3
DA:92,3
DA:95,6
DA:96,6
DA:98,18
DA:99,12
DA:101,12
DA:102,12
DA:104,12
DA:105,3
DA:107,3
DA:108,3
DA:109,2
DA:113,9
DA:114,9
DA:118,12
DA:119,10
DA:120,1
DA:121,9
DA:124,10
DA:125,6
DA:126,4
DA:128,6
DA:129,6
DA:130,6
DA:131,11
DA:132,6
DA:134,6
DA:135,6
DA:136,6
DA:137,6
DA:138,6
DA:139,6
DA:140,6
DA:141,6
DA:142,6
DA:143,6
DA:145,6
DA:146,6
DA:147,6
DA:148,2
DA:149,2
DA:150,2
DA:151,2
DA:152,2
DA:153,2
DA:154,2
DA:155,0
DA:159,6
DA:160,14
DA:161,8
DA:162,0
DA:163,0
DA:164,8
DA:167,6
DA:168,6
DA:169,6
DA:170,6
DA:171,6
DA:172,6
DA:173,6
DA:174,6
DA:175,6
DA:176,6
DA:177,6
DA:180,6
DA:183,6
DA:184,6
DA:185,0
DA:186,6
DA:188,6
DA:189,6
DA:190,6
DA:193,6
DA:194,6
DA:195,6
DA:198,6
DA:199,6
DA:202,0
DA:203,0
DA:204,0
DA:205,0
DA:208,0
DA:209,0
DA:210,0
DA:211,0
DA:212,0
DA:213,0
DA:214,0
DA:215,0
DA:217,0
DA:218,0
DA:219,0
DA:220,0
DA:221,0
DA:222,0
DA:224,0
DA:228,0
DA:229,0
DA:230,0
DA:231,0
DA:232,0
DA:233,0
DA:234,0
DA:235,0
DA:236,0
DA:237,0
DA:238,0
DA:240,0
DA:243,0
DA:245,0
DA:247,0
DA:249,6
DA:252,6
DA:253,18
DA:254,18
DA:255,18
DA:256,12
DA:257,12
DA:259,6
DA:260,6
DA:262,12
DA:263,12
DA:264,12
DA:267,12
DA:269,12
DA:270,12
DA:271,12
DA:274,0
DA:275,0
DA:279,12
DA:281,12
DA:282,12
DA:283,12
DA:284,12
DA:285,12
DA:286,12
DA:287,12
DA:288,12
DA:289,12
DA:290,12
DA:292,0
DA:294,12
DA:296,12
DA:300,12
DA:301,12
DA:302,12
DA:303,12
DA:304,12
DA:306,12
DA:310,12
DA:311,8
DA:312,8
DA:313,8
DA:314,12
DA:316,12
DA:320,12
DA:322,12
DA:323,22
DA:324,22
DA:325,22
DA:326,12
DA:327,12
DA:329,6
DA:330,6
DA:331,6
DA:332,5
DA:334,1
DA:336,6
DA:338,6
DA:339,6
DA:340,6
DA:341,6
DA:342,6
DA:362,1
DA:363,1
DA:364,1
DA:366,1
DA:367,1
DA:368,1
DA:371,1
DA:372,1
DA:373,1
DA:374,1
DA:376,1
DA:377,1
DA:378,1
DA:379,1
DA:382,1
DA:383,1
DA:384,1
DA:385,1
DA:388,1
DA:389,1
DA:390,1
DA:391,1
BRF:0
BRH:0
LF:229
LH:186
end_of_record
SF:/workspaces/code-guardian/crates/core/src/lib.rs
FN:76,_RNvMCs2kADRy9cGvI_18code_guardian_coreNtB2_7Scanner16should_scan_file
FN:127,_RNvMCs2kADRy9cGvI_18code_guardian_coreNtB2_7Scanner17read_file_content
FN:68,_RNvMCs2kADRy9cGvI_18code_guardian_coreNtB2_7Scanner3new
FN:145,_RNvMCs2kADRy9cGvI_18code_guardian_coreNtB2_7Scanner4scan
FN:170,_RNCNCNvMCs2kADRy9cGvI_18code_guardian_coreNtB6_7Scanner4scan00B6_
FN:188,_RNCNCNvMCs2kADRy9cGvI_18code_guardian_coreNtB6_7Scanner4scan0s0_0B6_
FN:194,_RNCNCNvMCs2kADRy9cGvI_18code_guardian_coreNtB6_7Scanner4scan0s1_0B6_
FN:176,_RNCNCNvMCs2kADRy9cGvI_18code_guardian_coreNtB6_7Scanner4scan0s_0B6_
FN:109,_RNCNvMCs2kADRy9cGvI_18code_guardian_coreNtB4_7Scanner16should_scan_file0B4_
FN:149,_RNCNvMCs2kADRy9cGvI_18code_guardian_coreNtB4_7Scanner4scan0B4_
FN:170,_RNCNCNvMCscyrExoi8aIO_18code_guardian_coreNtB6_7Scanner4scan00B6_
FN:188,_RNCNCNvMCscyrExoi8aIO_18code_guardian_coreNtB6_7Scanner4scan0s0_0B6_
FN:194,_RNCNCNvMCscyrExoi8aIO_18code_guardian_coreNtB6_7Scanner4scan0s1_0B6_
FN:176,_RNCNCNvMCscyrExoi8aIO_18code_guardian_coreNtB6_7Scanner4scan0s_0B6_
FN:109,_RNCNvMCscyrExoi8aIO_18code_guardian_coreNtB4_7Scanner16should_scan_file0B4_
FN:149,_RNCNvMCscyrExoi8aIO_18code_guardian_coreNtB4_7Scanner4scan0B4_
FN:291,_RNCNvNtCscyrExoi8aIO_18code_guardian_core5testss_27test_scanner_with_detectors0B5_
FN:341,_RNCNvNtCscyrExoi8aIO_18code_guardian_core5testss_45test_production_readiness_multi_language_scan0B5_
FN:256,_RNvNtCscyrExoi8aIO_18code_guardian_core5testss_15test_no_matches
FN:230,_RNvNtCscyrExoi8aIO_18code_guardian_core5testss_18test_todo_detector
FN:243,_RNvNtCscyrExoi8aIO_18code_guardian_core5testss_19test_fixme_detector
FN:265,_RNvNtCscyrExoi8aIO_18code_guardian_core5testss_21test_multiple_matches
FN:274,_RNvNtCscyrExoi8aIO_18code_guardian_core5testss_27test_scanner_with_detectors
FN:297,_RNvNtCscyrExoi8aIO_18code_guardian_core5testss_45test_production_readiness_multi_language_scan
FN:76,_RNvMCscyrExoi8aIO_18code_guardian_coreNtB2_7Scanner16should_scan_file
FN:127,_RNvMCscyrExoi8aIO_18code_guardian_coreNtB2_7Scanner17read_file_content
FN:68,_RNvMCscyrExoi8aIO_18code_guardian_coreNtB2_7Scanner3new
FN:145,_RNvMCscyrExoi8aIO_18code_guardian_coreNtB2_7Scanner4scan
FNDA:90,_RNvMCs2kADRy9cGvI_18code_guardian_coreNtB2_7Scanner16should_scan_file
FNDA:75,_RNvMCs2kADRy9cGvI_18code_guardian_coreNtB2_7Scanner17read_file_content
FNDA:37,_RNvMCs2kADRy9cGvI_18code_guardian_coreNtB2_7Scanner3new
FNDA:42,_RNvMCs2kADRy9cGvI_18code_guardian_coreNtB2_7Scanner4scan
FNDA:0,_RNCNCNvMCs2kADRy9cGvI_18code_guardian_coreNtB6_7Scanner4scan00B6_
FNDA:149,_RNCNCNvMCs2kADRy9cGvI_18code_guardian_coreNtB6_7Scanner4scan0s0_0B6_
FNDA:31,_RNCNCNvMCs2kADRy9cGvI_18code_guardian_coreNtB6_7Scanner4scan0s1_0B6_
FNDA:0,_RNCNCNvMCs2kADRy9cGvI_18code_guardian_coreNtB6_7Scanner4scan0s_0B6_
FNDA:75,_RNCNvMCs2kADRy9cGvI_18code_guardian_coreNtB4_7Scanner16should_scan_file0B4_
FNDA:132,_RNCNvMCs2kADRy9cGvI_18code_guardian_coreNtB4_7Scanner4scan0B4_
FNDA:0,_RNCNCNvMCscyrExoi8aIO_18code_guardian_coreNtB6_7Scanner4scan00B6_
FNDA:2,_RNCNCNvMCscyrExoi8aIO_18code_guardian_coreNtB6_7Scanner4scan0s0_0B6_
FNDA:60,_RNCNCNvMCscyrExoi8aIO_18code_guardian_coreNtB6_7Scanner4scan0s1_0B6_
FNDA:0,_RNCNCNvMCscyrExoi8aIO_18code_guardian_coreNtB6_7Scanner4scan0s_0B6_
FNDA:5,_RNCNvMCscyrExoi8aIO_18code_guardian_coreNtB4_7Scanner16should_scan_file0B4_
FNDA:7,_RNCNvMCscyrExoi8aIO_18code_guardian_coreNtB4_7Scanner4scan0B4_
FNDA:1,_RNCNvNtCscyrExoi8aIO_18code_guardian_core5testss_27test_scanner_with_detectors0B5_
FNDA:14,_RNCNvNtCscyrExoi8aIO_18code_guardian_core5testss_45test_production_readiness_multi_language_scan0B5_
FNDA:1,_RNvNtCscyrExoi8aIO_18code_guardian_core5testss_15test_no_matches
FNDA:1,_RNvNtCscyrExoi8aIO_18code_guardian_core5testss_18test_todo_detector
FNDA:1,_RNvNtCscyrExoi8aIO_18code_guardian_core5testss_19test_fixme_detector
FNDA:1,_RNvNtCscyrExoi8aIO_18code_guardian_core5testss_21test_multiple_matches
FNDA:1,_RNvNtCscyrExoi8aIO_18code_guardian_core5testss_27test_scanner_with_detectors
FNDA:1,_RNvNtCscyrExoi8aIO_18code_guardian_core5testss_45test_production_readiness_multi_language_scan
FNDA:5,_RNvMCscyrExoi8aIO_18code_guardian_coreNtB2_7Scanner16should_scan_file
FNDA:5,_RNvMCscyrExoi8aIO_18code_guardian_coreNtB2_7Scanner17read_file_content
FNDA:2,_RNvMCscyrExoi8aIO_18code_guardian_coreNtB2_7Scanner3new
FNDA:2,_RNvMCscyrExoi8aIO_18code_guardian_coreNtB2_7Scanner4scan
FNF:18
FNH:16
DA:68,39
DA:69,39
DA:70,39
DA:71,39
DA:72,39
DA:73,39
DA:76,95
DA:78,95
DA:79,95
DA:80,95
DA:81,95
DA:82,95
DA:83,95
DA:84,95
DA:85,95
DA:87,0
DA:88,95
DA:89,0
DA:92,95
DA:93,95
DA:94,0
DA:95,95
DA:96,0
DA:99,95
DA:100,95
DA:101,95
DA:102,95
DA:103,15
DA:104,80
DA:105,0
DA:106,0
DA:109,80
DA:110,80
DA:112,80
DA:114,80
DA:116,80
DA:118,80
DA:119,80
DA:121,0
DA:123,80
DA:124,95
DA:127,80
DA:128,80
DA:130,80
DA:132,0
DA:133,0
DA:134,0
DA:135,0
DA:138,80
DA:140,80
DA:145,44
DA:146,44
DA:147,44
DA:148,44
DA:149,139
DA:150,139
DA:151,137
DA:152,137
DA:153,95
DA:154,95
DA:155,15
DA:156,80
DA:157,80
DA:158,80
DA:159,80
DA:160,80
DA:161,0
DA:162,0
DA:163,0
DA:165,0
DA:166,0
DA:168,0
DA:169,0
DA:170,0
DA:171,0
DA:174,0
DA:175,0
DA:176,0
DA:177,0
DA:179,0
DA:180,0
DA:183,80
DA:184,80
DA:186,74
DA:187,74
DA:188,151
DA:189,74
DA:192,6
DA:193,6
DA:194,91
DA:195,6
DA:197,80
DA:198,80
DA:201,42
DA:203,139
DA:204,44
DA:205,44
DA:207,44
DA:208,44
DA:230,1
DA:231,1
DA:232,1
DA:233,1
DA:234,1
DA:235,1
DA:236,1
DA:237,1
DA:238,1
DA:239,1
DA:240,1
DA:243,1
DA:244,1
DA:245,1
DA:246,1
DA:247,1
DA:248,1
DA:249,1
DA:250,1
DA:251,1
DA:252,1
DA:253,1
DA:256,1
DA:257,1
DA:258,1
DA:259,1
DA:260,1
DA:261,1
DA:262,1
DA:265,1
DA:266,1
DA:267,1
DA:268,1
DA:269,1
DA:270,1
DA:271,1
DA:274,1
DA:275,1
DA:276,1
DA:277,1
DA:284,1
DA:285,1
DA:286,1
DA:287,1
DA:288,1
DA:290,1
DA:291,1
DA:292,1
DA:293,1
DA:294,1
DA:297,1
DA:300,1
DA:305,1
DA:307,1
DA:310,1
DA:311,1
DA:314,1
DA:317,1
DA:319,1
DA:322,1
DA:324,1
DA:327,1
DA:328,1
DA:331,1
DA:334,1
DA:335,1
DA:336,0
DA:337,0
DA:341,14
DA:344,1
DA:345,1
DA:346,0
DA:348,1
DA:349,1
DA:350,0
DA:352,1
DA:353,1
DA:354,0
DA:356,1
DA:357,1
DA:358,0
DA:360,1
DA:361,1
DA:362,0
DA:364,1
DA:365,1
DA:366,0
DA:368,1
DA:369,1
DA:370,1
DA:371,0
DA:374,1
DA:375,1
DA:376,1
DA:378,15
DA:379,14
DA:380,14
DA:381,1
BRF:0
BRH:0
LF:205
LH:168
end_of_record
SF:/workspaces/code-guardian/crates/core/src/llm_detectors.rs
FN:552,_RNvMsn_NtCs2kADRy9cGvI_18code_guardian_core13llm_detectorsNtB5_24ComprehensiveLLMDetector3new
FN:137,_RNvNtCs2kADRy9cGvI_18code_guardian_core13llm_detectors27detect_pattern_with_context
FN:166,_RNvXNtCs2kADRy9cGvI_18code_guardian_core13llm_detectorsNtB2_23HallucinatedApiDetectorNtB4_15PatternDetector6detect
FN:203,_RNvXs0_NtCs2kADRy9cGvI_18code_guardian_core13llm_detectorsNtB5_22InsecureRandomDetectorNtB7_15PatternDetector6detect
FN:217,_RNvXs1_NtCs2kADRy9cGvI_18code_guardian_core13llm_detectorsNtB5_28HardcodedCredentialsDetectorNtB7_15PatternDetector6detect
FN:231,_RNvXs2_NtCs2kADRy9cGvI_18code_guardian_core13llm_detectorsNtB5_24RustMemorySafetyDetectorNtB7_15PatternDetector6detect
FN:250,_RNvXs3_NtCs2kADRy9cGvI_18code_guardian_core13llm_detectorsNtB5_24AsyncAntipatternDetectorNtB7_15PatternDetector6detect
FN:270,_RNvXs4_NtCs2kADRy9cGvI_18code_guardian_core13llm_detectorsNtB5_30PerformanceAntipatternDetectorNtB7_15PatternDetector6detect
FN:284,_RNvXs5_NtCs2kADRy9cGvI_18code_guardian_core13llm_detectorsNtB5_21ErrorHandlingDetectorNtB7_15PatternDetector6detect
FN:298,_RNvXs6_NtCs2kADRy9cGvI_18code_guardian_core13llm_detectorsNtB5_25CryptoAntipatternDetectorNtB7_15PatternDetector6detect
FN:312,_RNvXs7_NtCs2kADRy9cGvI_18code_guardian_core13llm_detectorsNtB5_23OverengineeringDetectorNtB7_15PatternDetector6detect
FN:326,_RNvXs8_NtCs2kADRy9cGvI_18code_guardian_core13llm_detectorsNtB5_20XSSInjectionDetectorNtB7_15PatternDetector6detect
FN:340,_RNvXs9_NtCs2kADRy9cGvI_18code_guardian_core13llm_detectorsNtB5_26FilesystemSecurityDetectorNtB7_15PatternDetector6detect
FN:189,_RNvXs_NtCs2kADRy9cGvI_18code_guardian_core13llm_detectorsNtB4_23LLMSQLInjectionDetectorNtB6_15PatternDetector6detect
FN:354,_RNvXsa_NtCs2kADRy9cGvI_18code_guardian_core13llm_detectorsNtB5_25ConfigAntipatternDetectorNtB7_15PatternDetector6detect
FN:368,_RNvXsb_NtCs2kADRy9cGvI_18code_guardian_core13llm_detectorsNtB5_19JSLLMIssuesDetectorNtB7_15PatternDetector6detect
FN:391,_RNvXsc_NtCs2kADRy9cGvI_18code_guardian_core13llm_detectorsNtB5_23PythonLLMIssuesDetectorNtB7_15PatternDetector6detect
FN:410,_RNvXsd_NtCs2kADRy9cGvI_18code_guardian_core13llm_detectorsNtB5_24ContextConfusionDetectorNtB7_15PatternDetector6detect
FN:424,_RNvXse_NtCs2kADRy9cGvI_18code_guardian_core13llm_detectorsNtB5_27DatabaseAntipatternDetectorNtB7_15PatternDetector6detect
FN:438,_RNvXsf_NtCs2kADRy9cGvI_18code_guardian_core13llm_detectorsNtB5_28LLMGeneratedCommentsDetectorNtB7_15PatternDetector6detect
FN:452,_RNvXsg_NtCs2kADRy9cGvI_18code_guardian_core13llm_detectorsNtB5_28AIModelHallucinationDetectorNtB7_15PatternDetector6detect
FN:466,_RNvXsh_NtCs2kADRy9cGvI_18code_guardian_core13llm_detectorsNtB5_22IncorrectAsyncDetectorNtB7_15PatternDetector6detect
FN:480,_RNvXsi_NtCs2kADRy9cGvI_18code_guardian_core13llm_detectorsNtB5_30LLMSecurityAntipatternDetectorNtB7_15PatternDetector6detect
FN:494,_RNvXsj_NtCs2kADRy9cGvI_18code_guardian_core13llm_detectorsNtB5_24LLMDBAntipatternDetectorNtB7_15PatternDetector6detect
FN:508,_RNvXsk_NtCs2kADRy9cGvI_18code_guardian_core13llm_detectorsNtB5_32LLMErrorHandlingMistakesDetectorNtB7_15PatternDetector6detect
FN:522,_RNvXsl_NtCs2kADRy9cGvI_18code_guardian_core13llm_detectorsNtB5_30LLMPerformanceMistakesDetectorNtB7_15PatternDetector6detect
FN:536,_RNvXsm_NtCs2kADRy9cGvI_18code_guardian_core13llm_detectorsNtB5_23LLMTypeMistakesDetectorNtB7_15PatternDetector6detect
FN:586,_RNvXso_NtCs2kADRy9cGvI_18code_guardian_core13llm_detectorsNtB5_24ComprehensiveLLMDetectorNtNtCs66KPHxksi63_4core7default7Default7default
FN:592,_RNvXsp_NtCs2kADRy9cGvI_18code_guardian_core13llm_detectorsNtB5_24ComprehensiveLLMDetectorNtB7_15PatternDetector6detect
FN:674,_RNvNtNtCscyrExoi8aIO_18code_guardian_core13llm_detectors5testss_27test_js_llm_issues_detector
FN:619,_RNvNtNtCscyrExoi8aIO_18code_guardian_core13llm_detectors5testss_27test_sql_injection_detector
FN:735,_RNvNtNtCscyrExoi8aIO_18code_guardian_core13llm_detectors5testss_29test_file_extension_filtering
FN:609,_RNvNtNtCscyrExoi8aIO_18code_guardian_core13llm_detectors5testss_30test_hallucinated_api_detector
FN:653,_RNvNtNtCscyrExoi8aIO_18code_guardian_core13llm_detectors5testss_31test_async_antipattern_detector
FN:694,_RNvNtNtCscyrExoi8aIO_18code_guardian_core13llm_detectors5testss_31test_comprehensive_llm_detector
FN:684,_RNvNtNtCscyrExoi8aIO_18code_guardian_core13llm_detectors5testss_31test_python_llm_issues_detector
FN:664,_RNvNtNtCscyrExoi8aIO_18code_guardian_core13llm_detectors5testss_32test_crypto_antipattern_detector
FN:642,_RNvNtNtCscyrExoi8aIO_18code_guardian_core13llm_detectors5testss_32test_rust_memory_safety_detector
FN:725,_RNvNtNtCscyrExoi8aIO_18code_guardian_core13llm_detectors5testss_34test_database_antipattern_detector
FN:629,_RNvNtNtCscyrExoi8aIO_18code_guardian_core13llm_detectors5testss_35test_hardcoded_credentials_detector
FN:715,_RNvNtNtCscyrExoi8aIO_18code_guardian_core13llm_detectors5testss_36test_llm_generated_comments_detector
FN:586,_RNvXso_NtCscyrExoi8aIO_18code_guardian_core13llm_detectorsNtB5_24ComprehensiveLLMDetectorNtNtCs66KPHxksi63_4core7default7Default7default
FN:615,_RNCNvNtNtCscyrExoi8aIO_18code_guardian_core13llm_detectors5testss_30test_hallucinated_api_detector0B7_
FN:708,_RNCNvNtNtCscyrExoi8aIO_18code_guardian_core13llm_detectors5testss_31test_comprehensive_llm_detector0B7_
FN:638,_RNCNvNtNtCscyrExoi8aIO_18code_guardian_core13llm_detectors5testss_35test_hardcoded_credentials_detector0B7_
FN:721,_RNCNvNtNtCscyrExoi8aIO_18code_guardian_core13llm_detectors5testss_36test_llm_generated_comments_detector0B7_
FN:552,_RNvMsn_NtCscyrExoi8aIO_18code_guardian_core13llm_detectorsNtB5_24ComprehensiveLLMDetector3new
FN:137,_RNvNtCscyrExoi8aIO_18code_guardian_core13llm_detectors27detect_pattern_with_context
FN:166,_RNvXNtCscyrExoi8aIO_18code_guardian_core13llm_detectorsNtB2_23HallucinatedApiDetectorNtB4_15PatternDetector6detect
FN:203,_RNvXs0_NtCscyrExoi8aIO_18code_guardian_core13llm_detectorsNtB5_22InsecureRandomDetectorNtB7_15PatternDetector6detect
FN:217,_RNvXs1_NtCscyrExoi8aIO_18code_guardian_core13llm_detectorsNtB5_28HardcodedCredentialsDetectorNtB7_15PatternDetector6detect
FN:231,_RNvXs2_NtCscyrExoi8aIO_18code_guardian_core13llm_detectorsNtB5_24RustMemorySafetyDetectorNtB7_15PatternDetector6detect
FN:250,_RNvXs3_NtCscyrExoi8aIO_18code_guardian_core13llm_detectorsNtB5_24AsyncAntipatternDetectorNtB7_15PatternDetector6detect
FN:270,_RNvXs4_NtCscyrExoi8aIO_18code_guardian_core13llm_detectorsNtB5_30PerformanceAntipatternDetectorNtB7_15PatternDetector6detect
FN:284,_RNvXs5_NtCscyrExoi8aIO_18code_guardian_core13llm_detectorsNtB5_21ErrorHandlingDetectorNtB7_15PatternDetector6detect
FN:298,_RNvXs6_NtCscyrExoi8aIO_18code_guardian_core13llm_detectorsNtB5_25CryptoAntipatternDetectorNtB7_15PatternDetector6detect
FN:312,_RNvXs7_NtCscyrExoi8aIO_18code_guardian_core13llm_detectorsNtB5_23OverengineeringDetectorNtB7_15PatternDetector6detect
FN:326,_RNvXs8_NtCscyrExoi8aIO_18code_guardian_core13llm_detectorsNtB5_20XSSInjectionDetectorNtB7_15PatternDetector6detect
FN:340,_RNvXs9_NtCscyrExoi8aIO_18code_guardian_core13llm_detectorsNtB5_26FilesystemSecurityDetectorNtB7_15PatternDetector6detect
FN:189,_RNvXs_NtCscyrExoi8aIO_18code_guardian_core13llm_detectorsNtB4_23LLMSQLInjectionDetectorNtB6_15PatternDetector6detect
FN:354,_RNvXsa_NtCscyrExoi8aIO_18code_guardian_core13llm_detectorsNtB5_25ConfigAntipatternDetectorNtB7_15PatternDetector6detect
FN:368,_RNvXsb_NtCscyrExoi8aIO_18code_guardian_core13llm_detectorsNtB5_19JSLLMIssuesDetectorNtB7_15PatternDetector6detect
FN:391,_RNvXsc_NtCscyrExoi8aIO_18code_guardian_core13llm_detectorsNtB5_23PythonLLMIssuesDetectorNtB7_15PatternDetector6detect
FN:410,_RNvXsd_NtCscyrExoi8aIO_18code_guardian_core13llm_detectorsNtB5_24ContextConfusionDetectorNtB7_15PatternDetector6detect
FN:424,_RNvXse_NtCscyrExoi8aIO_18code_guardian_core13llm_detectorsNtB5_27DatabaseAntipatternDetectorNtB7_15PatternDetector6detect
FN:438,_RNvXsf_NtCscyrExoi8aIO_18code_guardian_core13llm_detectorsNtB5_28LLMGeneratedCommentsDetectorNtB7_15PatternDetector6detect
FN:452,_RNvXsg_NtCscyrExoi8aIO_18code_guardian_core13llm_detectorsNtB5_28AIModelHallucinationDetectorNtB7_15PatternDetector6detect
FN:466,_RNvXsh_NtCscyrExoi8aIO_18code_guardian_core13llm_detectorsNtB5_22IncorrectAsyncDetectorNtB7_15PatternDetector6detect
FN:480,_RNvXsi_NtCscyrExoi8aIO_18code_guardian_core13llm_detectorsNtB5_30LLMSecurityAntipatternDetectorNtB7_15PatternDetector6detect
FN:494,_RNvXsj_NtCscyrExoi8aIO_18code_guardian_core13llm_detectorsNtB5_24LLMDBAntipatternDetectorNtB7_15PatternDetector6detect
FN:508,_RNvXsk_NtCscyrExoi8aIO_18code_guardian_core13llm_detectorsNtB5_32LLMErrorHandlingMistakesDetectorNtB7_15PatternDetector6detect
FN:522,_RNvXsl_NtCscyrExoi8aIO_18code_guardian_core13llm_detectorsNtB5_30LLMPerformanceMistakesDetectorNtB7_15PatternDetector6detect
FN:536,_RNvXsm_NtCscyrExoi8aIO_18code_guardian_core13llm_detectorsNtB5_23LLMTypeMistakesDetectorNtB7_15PatternDetector6detect
FN:592,_RNvXsp_NtCscyrExoi8aIO_18code_guardian_core13llm_detectorsNtB5_24ComprehensiveLLMDetectorNtB7_15PatternDetector6detect
FNDA:0,_RNvMsn_NtCs2kADRy9cGvI_18code_guardian_core13llm_detectorsNtB5_24ComprehensiveLLMDetector3new
FNDA:0,_RNvNtCs2kADRy9cGvI_18code_guardian_core13llm_detectors27detect_pattern_with_context
FNDA:0,_RNvXNtCs2kADRy9cGvI_18code_guardian_core13llm_detectorsNtB2_23HallucinatedApiDetectorNtB4_15PatternDetector6detect
FNDA:0,_RNvXs0_NtCs2kADRy9cGvI_18code_guardian_core13llm_detectorsNtB5_22InsecureRandomDetectorNtB7_15PatternDetector6detect
FNDA:0,_RNvXs1_NtCs2kADRy9cGvI_18code_guardian_core13llm_detectorsNtB5_28HardcodedCredentialsDetectorNtB7_15PatternDetector6detect
FNDA:0,_RNvXs2_NtCs2kADRy9cGvI_18code_guardian_core13llm_detectorsNtB5_24RustMemorySafetyDetectorNtB7_15PatternDetector6detect
FNDA:0,_RNvXs3_NtCs2kADRy9cGvI_18code_guardian_core13llm_detectorsNtB5_24AsyncAntipatternDetectorNtB7_15PatternDetector6detect
FNDA:0,_RNvXs4_NtCs2kADRy9cGvI_18code_guardian_core13llm_detectorsNtB5_30PerformanceAntipatternDetectorNtB7_15PatternDetector6detect
FNDA:0,_RNvXs5_NtCs2kADRy9cGvI_18code_guardian_core13llm_detectorsNtB5_21ErrorHandlingDetectorNtB7_15PatternDetector6detect
FNDA:0,_RNvXs6_NtCs2kADRy9cGvI_18code_guardian_core13llm_detectorsNtB5_25CryptoAntipatternDetectorNtB7_15PatternDetector6detect
FNDA:0,_RNvXs7_NtCs2kADRy9cGvI_18code_guardian_core13llm_detectorsNtB5_23OverengineeringDetectorNtB7_15PatternDetector6detect
FNDA:0,_RNvXs8_NtCs2kADRy9cGvI_18code_guardian_core13llm_detectorsNtB5_20XSSInjectionDetectorNtB7_15PatternDetector6detect
FNDA:0,_RNvXs9_NtCs2kADRy9cGvI_18code_guardian_core13llm_detectorsNtB5_26FilesystemSecurityDetectorNtB7_15PatternDetector6detect
FNDA:0,_RNvXs_NtCs2kADRy9cGvI_18code_guardian_core13llm_detectorsNtB4_23LLMSQLInjectionDetectorNtB6_15PatternDetector6detect
FNDA:0,_RNvXsa_NtCs2kADRy9cGvI_18code_guardian_core13llm_detectorsNtB5_25ConfigAntipatternDetectorNtB7_15PatternDetector6detect
FNDA:0,_RNvXsb_NtCs2kADRy9cGvI_18code_guardian_core13llm_detectorsNtB5_19JSLLMIssuesDetectorNtB7_15PatternDetector6detect
FNDA:0,_RNvXsc_NtCs2kADRy9cGvI_18code_guardian_core13llm_detectorsNtB5_23PythonLLMIssuesDetectorNtB7_15PatternDetector6detect
FNDA:0,_RNvXsd_NtCs2kADRy9cGvI_18code_guardian_core13llm_detectorsNtB5_24ContextConfusionDetectorNtB7_15PatternDetector6detect
FNDA:0,_RNvXse_NtCs2kADRy9cGvI_18code_guardian_core13llm_detectorsNtB5_27DatabaseAntipatternDetectorNtB7_15PatternDetector6detect
FNDA:0,_RNvXsf_NtCs2kADRy9cGvI_18code_guardian_core13llm_detectorsNtB5_28LLMGeneratedCommentsDetectorNtB7_15PatternDetector6detect
FNDA:0,_RNvXsg_NtCs2kADRy9cGvI_18code_guardian_core13llm_detectorsNtB5_28AIModelHallucinationDetectorNtB7_15PatternDetector6detect
FNDA:0,_RNvXsh_NtCs2kADRy9cGvI_18code_guardian_core13llm_detectorsNtB5_22IncorrectAsyncDetectorNtB7_15PatternDetector6detect
FNDA:0,_RNvXsi_NtCs2kADRy9cGvI_18code_guardian_core13llm_detectorsNtB5_30LLMSecurityAntipatternDetectorNtB7_15PatternDetector6detect
FNDA:0,_RNvXsj_NtCs2kADRy9cGvI_18code_guardian_core13llm_detectorsNtB5_24LLMDBAntipatternDetectorNtB7_15PatternDetector6detect
FNDA:0,_RNvXsk_NtCs2kADRy9cGvI_18code_guardian_core13llm_detectorsNtB5_32LLMErrorHandlingMistakesDetectorNtB7_15PatternDetector6detect
FNDA:0,_RNvXsl_NtCs2kADRy9cGvI_18code_guardian_core13llm_detectorsNtB5_30LLMPerformanceMistakesDetectorNtB7_15PatternDetector6detect
FNDA:0,_RNvXsm_NtCs2kADRy9cGvI_18code_guardian_core13llm_detectorsNtB5_23LLMTypeMistakesDetectorNtB7_15PatternDetector6detect
FNDA:0,_RNvXso_NtCs2kADRy9cGvI_18code_guardian_core13llm_detectorsNtB5_24ComprehensiveLLMDetectorNtNtCs66KPHxksi63_4core7default7Default7default
FNDA:0,_RNvXsp_NtCs2kADRy9cGvI_18code_guardian_core13llm_detectorsNtB5_24ComprehensiveLLMDetectorNtB7_15PatternDetector6detect
FNDA:1,_RNvNtNtCscyrExoi8aIO_18code_guardian_core13llm_detectors5testss_27test_js_llm_issues_detector
FNDA:1,_RNvNtNtCscyrExoi8aIO_18code_guardian_core13llm_detectors5testss_27test_sql_injection_detector
FNDA:1,_RNvNtNtCscyrExoi8aIO_18code_guardian_core13llm_detectors5testss_29test_file_extension_filtering
FNDA:1,_RNvNtNtCscyrExoi8aIO_18code_guardian_core13llm_detectors5testss_30test_hallucinated_api_detector
FNDA:1,_RNvNtNtCscyrExoi8aIO_18code_guardian_core13llm_detectors5testss_31test_async_antipattern_detector
FNDA:1,_RNvNtNtCscyrExoi8aIO_18code_guardian_core13llm_detectors5testss_31test_comprehensive_llm_detector
FNDA:1,_RNvNtNtCscyrExoi8aIO_18code_guardian_core13llm_detectors5testss_31test_python_llm_issues_detector
FNDA:1,_RNvNtNtCscyrExoi8aIO_18code_guardian_core13llm_detectors5testss_32test_crypto_antipattern_detector
FNDA:1,_RNvNtNtCscyrExoi8aIO_18code_guardian_core13llm_detectors5testss_32test_rust_memory_safety_detector
FNDA:1,_RNvNtNtCscyrExoi8aIO_18code_guardian_core13llm_detectors5testss_34test_database_antipattern_detector
FNDA:1,_RNvNtNtCscyrExoi8aIO_18code_guardian_core13llm_detectors5testss_35test_hardcoded_credentials_detector
FNDA:1,_RNvNtNtCscyrExoi8aIO_18code_guardian_core13llm_detectors5testss_36test_llm_generated_comments_detector
FNDA:0,_RNvXso_NtCscyrExoi8aIO_18code_guardian_core13llm_detectorsNtB5_24ComprehensiveLLMDetectorNtNtCs66KPHxksi63_4core7default7Default7default
FNDA:1,_RNCNvNtNtCscyrExoi8aIO_18code_guardian_core13llm_detectors5testss_30test_hallucinated_api_detector0B7_
FNDA:7,_RNCNvNtNtCscyrExoi8aIO_18code_guardian_core13llm_detectors5testss_31test_comprehensive_llm_detector0B7_
FNDA:1,_RNCNvNtNtCscyrExoi8aIO_18code_guardian_core13llm_detectors5testss_35test_hardcoded_credentials_detector0B7_
FNDA:3,_RNCNvNtNtCscyrExoi8aIO_18code_guardian_core13llm_detectors5testss_36test_llm_generated_comments_detector0B7_
FNDA:1,_RNvMsn_NtCscyrExoi8aIO_18code_guardian_core13llm_detectorsNtB5_24ComprehensiveLLMDetector3new
FNDA:38,_RNvNtCscyrExoi8aIO_18code_guardian_core13llm_detectors27detect_pattern_with_context
FNDA:2,_RNvXNtCscyrExoi8aIO_18code_guardian_core13llm_detectorsNtB2_23HallucinatedApiDetectorNtB4_15PatternDetector6detect
FNDA:1,_RNvXs0_NtCscyrExoi8aIO_18code_guardian_core13llm_detectorsNtB5_22InsecureRandomDetectorNtB7_15PatternDetector6detect
FNDA:2,_RNvXs1_NtCscyrExoi8aIO_18code_guardian_core13llm_detectorsNtB5_28HardcodedCredentialsDetectorNtB7_15PatternDetector6detect
FNDA:4,_RNvXs2_NtCscyrExoi8aIO_18code_guardian_core13llm_detectorsNtB5_24RustMemorySafetyDetectorNtB7_15PatternDetector6detect
FNDA:2,_RNvXs3_NtCscyrExoi8aIO_18code_guardian_core13llm_detectorsNtB5_24AsyncAntipatternDetectorNtB7_15PatternDetector6detect
FNDA:1,_RNvXs4_NtCscyrExoi8aIO_18code_guardian_core13llm_detectorsNtB5_30PerformanceAntipatternDetectorNtB7_15PatternDetector6detect
FNDA:1,_RNvXs5_NtCscyrExoi8aIO_18code_guardian_core13llm_detectorsNtB5_21ErrorHandlingDetectorNtB7_15PatternDetector6detect
FNDA:2,_RNvXs6_NtCscyrExoi8aIO_18code_guardian_core13llm_detectorsNtB5_25CryptoAntipatternDetectorNtB7_15PatternDetector6detect
FNDA:1,_RNvXs7_NtCscyrExoi8aIO_18code_guardian_core13llm_detectorsNtB5_23OverengineeringDetectorNtB7_15PatternDetector6detect
FNDA:1,_RNvXs8_NtCscyrExoi8aIO_18code_guardian_core13llm_detectorsNtB5_20XSSInjectionDetectorNtB7_15PatternDetector6detect
FNDA:1,_RNvXs9_NtCscyrExoi8aIO_18code_guardian_core13llm_detectorsNtB5_26FilesystemSecurityDetectorNtB7_15PatternDetector6detect
FNDA:2,_RNvXs_NtCscyrExoi8aIO_18code_guardian_core13llm_detectorsNtB4_23LLMSQLInjectionDetectorNtB6_15PatternDetector6detect
FNDA:1,_RNvXsa_NtCscyrExoi8aIO_18code_guardian_core13llm_detectorsNtB5_25ConfigAntipatternDetectorNtB7_15PatternDetector6detect
FNDA:4,_RNvXsb_NtCscyrExoi8aIO_18code_guardian_core13llm_detectorsNtB5_19JSLLMIssuesDetectorNtB7_15PatternDetector6detect
FNDA:4,_RNvXsc_NtCscyrExoi8aIO_18code_guardian_core13llm_detectorsNtB5_23PythonLLMIssuesDetectorNtB7_15PatternDetector6detect
FNDA:1,_RNvXsd_NtCscyrExoi8aIO_18code_guardian_core13llm_detectorsNtB5_24ContextConfusionDetectorNtB7_15PatternDetector6detect
FNDA:2,_RNvXse_NtCscyrExoi8aIO_18code_guardian_core13llm_detectorsNtB5_27DatabaseAntipatternDetectorNtB7_15PatternDetector6detect
FNDA:2,_RNvXsf_NtCscyrExoi8aIO_18code_guardian_core13llm_detectorsNtB5_28LLMGeneratedCommentsDetectorNtB7_15PatternDetector6detect
FNDA:1,_RNvXsg_NtCscyrExoi8aIO_18code_guardian_core13llm_detectorsNtB5_28AIModelHallucinationDetectorNtB7_15PatternDetector6detect
FNDA:1,_RNvXsh_NtCscyrExoi8aIO_18code_guardian_core13llm_detectorsNtB5_22IncorrectAsyncDetectorNtB7_15PatternDetector6detect
FNDA:1,_RNvXsi_NtCscyrExoi8aIO_18code_guardian_core13llm_detectorsNtB5_30LLMSecurityAntipatternDetectorNtB7_15PatternDetector6detect
FNDA:1,_RNvXsj_NtCscyrExoi8aIO_18code_guardian_core13llm_detectorsNtB5_24LLMDBAntipatternDetectorNtB7_15PatternDetector6detect
FNDA:1,_RNvXsk_NtCscyrExoi8aIO_18code_guardian_core13llm_detectorsNtB5_32LLMErrorHandlingMistakesDetectorNtB7_15PatternDetector6detect
FNDA:1,_RNvXsl_NtCscyrExoi8aIO_18code_guardian_core13llm_detectorsNtB5_30LLMPerformanceMistakesDetectorNtB7_15PatternDetector6detect
FNDA:1,_RNvXsm_NtCscyrExoi8aIO_18code_guardian_core13llm_detectorsNtB5_23LLMTypeMistakesDetectorNtB7_15PatternDetector6detect
FNDA:1,_RNvXsp_NtCscyrExoi8aIO_18code_guardian_core13llm_detectorsNtB5_24ComprehensiveLLMDetectorNtB7_15PatternDetector6detect
FNF:45
FNH:44
DA:137,38
DA:138,38
DA:139,38
DA:140,38
DA:141,38
DA:142,38
DA:143,38
DA:144,161
DA:145,161
DA:146,33
DA:147,33
DA:148,33
DA:149,33
DA:150,33
DA:151,33
DA:152,33
DA:153,33
DA:154,33
DA:155,33
DA:156,33
DA:157,33
DA:159,38
DA:160,38
DA:166,2
DA:167,2
DA:168,2
DA:169,2
DA:170,2
DA:171,2
DA:174,2
DA:175,2
DA:176,2
DA:177,2
DA:178,2
DA:181,2
DA:182,2
DA:189,2
DA:190,2
DA:191,2
DA:192,2
DA:193,2
DA:194,2
DA:196,2
DA:203,1
DA:204,1
DA:205,1
DA:206,1
DA:207,1
DA:208,1
DA:210,1
DA:217,2
DA:218,2
DA:219,2
DA:220,2
DA:221,2
DA:222,2
DA:224,2
DA:231,4
DA:232,4
DA:233,4
DA:234,2
DA:235,2
DA:236,2
DA:237,2
DA:238,2
DA:240,2
DA:241,0
DA:242,2
DA:243,4
DA:250,2
DA:251,2
DA:252,2
DA:253,2
DA:254,2
DA:255,2
DA:256,2
DA:257,2
DA:258,2
DA:260,0
DA:261,0
DA:262,0
DA:263,2
DA:270,1
DA:271,1
DA:272,1
DA:273,1
DA:274,1
DA:275,1
DA:277,1
DA:284,1
DA:285,1
DA:286,1
DA:287,1
DA:288,1
DA:289,1
DA:291,1
DA:298,2
DA:299,2
DA:300,2
DA:301,2
DA:302,2
DA:303,2
DA:305,2
DA:312,1
DA:313,1
DA:314,1
DA:315,1
DA:316,1
DA:317,1
DA:319,1
DA:326,1
DA:327,1
DA:328,1
DA:329,1
DA:330,1
DA:331,1
DA:333,1
DA:340,1
DA:341,1
DA:342,1
DA:343,1
DA:344,1
DA:345,1
DA:347,1
DA:354,1
DA:355,1
DA:356,1
DA:357,1
DA:358,1
DA:359,1
DA:361,1
DA:368,4
DA:369,4
DA:370,4
DA:371,3
DA:372,4
DA:373,4
DA:375,3
DA:376,3
DA:377,3
DA:378,3
DA:379,3
DA:381,1
DA:382,0
DA:383,1
DA:384,4
DA:391,4
DA:392,4
DA:393,4
DA:394,2
DA:395,2
DA:396,2
DA:397,2
DA:398,2
DA:400,2
DA:401,0
DA:402,2
DA:403,4
DA:410,1
DA:411,1
DA:412,1
DA:413,1
DA:414,1
DA:415,1
DA:417,1
DA:424,2
DA:425,2
DA:426,2
DA:427,2
DA:428,2
DA:429,2
DA:431,2
DA:438,2
DA:439,2
DA:440,2
DA:441,2
DA:442,2
DA:443,2
DA:445,2
DA:452,1
DA:453,1
DA:454,1
DA:455,1
DA:456,1
DA:457,1
DA:459,1
DA:466,1
DA:467,1
DA:468,1
DA:469,1
DA:470,1
DA:471,1
DA:473,1
DA:480,1
DA:481,1
DA:482,1
DA:483,1
DA:484,1
DA:485,1
DA:487,1
DA:494,1
DA:495,1
DA:496,1
DA:497,1
DA:498,1
DA:499,1
DA:501,1
DA:508,1
DA:509,1
DA:510,1
DA:511,1
DA:512,1
DA:513,1
DA:515,1
DA:522,1
DA:523,1
DA:524,1
DA:525,1
DA:526,1
DA:527,1
DA:529,1
DA:536,1
DA:537,1
DA:538,1
DA:539,1
DA:540,1
DA:541,1
DA:543,1
DA:552,1
DA:553,1
DA:554,1
DA:555,1
DA:556,1
DA:557,1
DA:558,1
DA:559,1
DA:560,1
DA:561,1
DA:562,1
DA:563,1
DA:564,1
DA:565,1
DA:566,1
DA:567,1
DA:568,1
DA:569,1
DA:570,1
DA:571,1
DA:572,1
DA:573,1
DA:574,1
DA:575,1
DA:576,1
DA:577,1
DA:578,1
DA:581,1
DA:582,1
DA:586,0
DA:587,0
DA:588,0
DA:592,1
DA:593,1
DA:595,26
DA:596,25
DA:597,25
DA:599,1
DA:600,1
DA:609,1
DA:610,1
DA:611,1
DA:612,1
DA:613,1
DA:614,1
DA:615,1
DA:616,1
DA:619,1
DA:620,1
DA:621,1
DA:622,1
DA:623,1
DA:624,1
DA:625,1
DA:626,1
DA:629,1
DA:630,1
DA:631,1
DA:632,1
DA:633,1
DA:634,1
DA:635,1
DA:636,1
DA:637,1
DA:638,1
DA:639,1
DA:642,1
DA:643,1
DA:644,1
DA:645,1
DA:646,1
DA:647,1
DA:648,1
DA:649,1
DA:650,1
DA:653,1
DA:654,1
DA:655,1
DA:656,1
DA:657,1
DA:658,1
DA:659,1
DA:660,1
DA:661,1
DA:664,1
DA:665,1
DA:666,1
DA:667,1
DA:668,1
DA:669,1
DA:670,1
DA:671,1
DA:674,1
DA:675,1
DA:676,1
DA:677,1
DA:678,1
DA:679,1
DA:680,1
DA:681,1
DA:684,1
DA:685,1
DA:686,1
DA:687,1
DA:688,1
DA:689,1
DA:690,1
DA:691,1
DA:694,1
DA:695,1
DA:696,1
DA:697,1
DA:698,1
DA:699,1
DA:700,1
DA:701,1
DA:702,1
DA:703,1
DA:706,1
DA:708,7
DA:709,1
DA:710,1
DA:711,1
DA:712,1
DA:715,1
DA:716,1
DA:717,1
DA:718,1
DA:719,1
DA:720,1
DA:721,3
DA:722,1
DA:725,1
DA:726,1
DA:727,1
DA:728,1
DA:729,1
DA:730,1
DA:731,1
DA:732,1
DA:735,1
DA:736,1
DA:737,1
DA:738,1
DA:740,1
DA:742,1
DA:743,1
DA:744,1
DA:745,1
DA:748,1
DA:749,1
DA:752,1
DA:753,1
DA:756,1
DA:757,1
DA:758,1
BRF:0
BRH:0
LF:388
LH:379
end_of_record
SF:/workspaces/code-guardian/crates/core/src/metrics.rs
FN:91,_RNCNvNtCs2kADRy9cGvI_18code_guardian_core7metrics12init_metrics0B5_
FN:197,_RNCNvNtCs2kADRy9cGvI_18code_guardian_core7metrics15metrics_handler0B5_
FN:181,_RNvXs0_NtCs2kADRy9cGvI_18code_guardian_core7metricsNtB5_16MetricsCollectorNtNtNtCs66KPHxksi63_4core3ops4drop4Drop4drop
FN:154,_RNvMs_NtCs2kADRy9cGvI_18code_guardian_core7metricsNtB4_16MetricsCollector12record_error
FN:146,_RNvMs_NtCs2kADRy9cGvI_18code_guardian_core7metricsNtB4_16MetricsCollector16record_cache_hit
FN:150,_RNvMs_NtCs2kADRy9cGvI_18code_guardian_core7metricsNtB4_16MetricsCollector17record_cache_miss
FN:134,_RNvMs_NtCs2kADRy9cGvI_18code_guardian_core7metricsNtB4_16MetricsCollector18record_issue_found
FN:130,_RNvMs_NtCs2kADRy9cGvI_18code_guardian_core7metricsNtB4_16MetricsCollector19record_file_scanned
FN:142,_RNvMs_NtCs2kADRy9cGvI_18code_guardian_core7metricsNtB4_16MetricsCollector20record_llm_detection
FN:162,_RNvMs_NtCs2kADRy9cGvI_18code_guardian_core7metricsNtB4_16MetricsCollector21update_resource_usage
FN:138,_RNvMs_NtCs2kADRy9cGvI_18code_guardian_core7metricsNtB4_16MetricsCollector25record_detector_execution
FN:158,_RNvMs_NtCs2kADRy9cGvI_18code_guardian_core7metricsNtB4_16MetricsCollector25record_file_scan_duration
FN:121,_RNvMs_NtCs2kADRy9cGvI_18code_guardian_core7metricsNtB4_16MetricsCollector3new
FN:188,_RNvNtCs2kADRy9cGvI_18code_guardian_core7metrics11get_metrics
FN:90,_RNvNtCs2kADRy9cGvI_18code_guardian_core7metrics12init_metrics
FN:197,_RNvNtCs2kADRy9cGvI_18code_guardian_core7metrics15metrics_handler
FN:115,_RNvXNtCs2kADRy9cGvI_18code_guardian_core7metricsNtB2_16MetricsCollectorNtNtCs66KPHxksi63_4core7default7Default7default
FN:241,_RNvNtNtCscyrExoi8aIO_18code_guardian_core7metrics5testss_20test_metrics_handler
FN:212,_RNvNtNtCscyrExoi8aIO_18code_guardian_core7metrics5testss_22test_metrics_collector
FN:206,_RNvNtNtCscyrExoi8aIO_18code_guardian_core7metrics5testss_27test_metrics_initialization
FN:181,_RNvXs0_NtCscyrExoi8aIO_18code_guardian_core7metricsNtB5_16MetricsCollectorNtNtNtCs66KPHxksi63_4core3ops4drop4Drop4drop
FN:115,_RNvXNtCscyrExoi8aIO_18code_guardian_core7metricsNtB2_16MetricsCollectorNtNtCs66KPHxksi63_4core7default7Default7default
FN:243,_RNCNvNtNtCscyrExoi8aIO_18code_guardian_core7metrics5testss_20test_metrics_handler0B7_
FN:91,_RNCNvNtCscyrExoi8aIO_18code_guardian_core7metrics12init_metrics0B5_
FN:197,_RNCNvNtCscyrExoi8aIO_18code_guardian_core7metrics15metrics_handler0B5_
FN:154,_RNvMs_NtCscyrExoi8aIO_18code_guardian_core7metricsNtB4_16MetricsCollector12record_error
FN:146,_RNvMs_NtCscyrExoi8aIO_18code_guardian_core7metricsNtB4_16MetricsCollector16record_cache_hit
FN:150,_RNvMs_NtCscyrExoi8aIO_18code_guardian_core7metricsNtB4_16MetricsCollector17record_cache_miss
FN:134,_RNvMs_NtCscyrExoi8aIO_18code_guardian_core7metricsNtB4_16MetricsCollector18record_issue_found
FN:130,_RNvMs_NtCscyrExoi8aIO_18code_guardian_core7metricsNtB4_16MetricsCollector19record_file_scanned
FN:142,_RNvMs_NtCscyrExoi8aIO_18code_guardian_core7metricsNtB4_16MetricsCollector20record_llm_detection
FN:162,_RNvMs_NtCscyrExoi8aIO_18code_guardian_core7metricsNtB4_16MetricsCollector21update_resource_usage
FN:138,_RNvMs_NtCscyrExoi8aIO_18code_guardian_core7metricsNtB4_16MetricsCollector25record_detector_execution
FN:158,_RNvMs_NtCscyrExoi8aIO_18code_guardian_core7metricsNtB4_16MetricsCollector25record_file_scan_duration
FN:121,_RNvMs_NtCscyrExoi8aIO_18code_guardian_core7metricsNtB4_16MetricsCollector3new
FN:188,_RNvNtCscyrExoi8aIO_18code_guardian_core7metrics11get_metrics
FN:90,_RNvNtCscyrExoi8aIO_18code_guardian_core7metrics12init_metrics
FN:197,_RNvNtCscyrExoi8aIO_18code_guardian_core7metrics15metrics_handler
FNDA:1,_RNCNvNtCs2kADRy9cGvI_18code_guardian_core7metrics12init_metrics0B5_
FNDA:0,_RNCNvNtCs2kADRy9cGvI_18code_guardian_core7metrics15metrics_handler0B5_
FNDA:0,_RNvXs0_NtCs2kADRy9cGvI_18code_guardian_core7metricsNtB5_16MetricsCollectorNtNtNtCs66KPHxksi63_4core3ops4drop4Drop4drop
FNDA:0,_RNvMs_NtCs2kADRy9cGvI_18code_guardian_core7metricsNtB4_16MetricsCollector12record_error
FNDA:0,_RNvMs_NtCs2kADRy9cGvI_18code_guardian_core7metricsNtB4_16MetricsCollector16record_cache_hit
FNDA:0,_RNvMs_NtCs2kADRy9cGvI_18code_guardian_core7metricsNtB4_16MetricsCollector17record_cache_miss
FNDA:0,_RNvMs_NtCs2kADRy9cGvI_18code_guardian_core7metricsNtB4_16MetricsCollector18record_issue_found
FNDA:0,_RNvMs_NtCs2kADRy9cGvI_18code_guardian_core7metricsNtB4_16MetricsCollector19record_file_scanned
FNDA:0,_RNvMs_NtCs2kADRy9cGvI_18code_guardian_core7metricsNtB4_16MetricsCollector20record_llm_detection
FNDA:0,_RNvMs_NtCs2kADRy9cGvI_18code_guardian_core7metricsNtB4_16MetricsCollector21update_resource_usage
FNDA:0,_RNvMs_NtCs2kADRy9cGvI_18code_guardian_core7metricsNtB4_16MetricsCollector25record_detector_execution
FNDA:0,_RNvMs_NtCs2kADRy9cGvI_18code_guardian_core7metricsNtB4_16MetricsCollector25record_file_scan_duration
FNDA:0,_RNvMs_NtCs2kADRy9cGvI_18code_guardian_core7metricsNtB4_16MetricsCollector3new
FNDA:0,_RNvNtCs2kADRy9cGvI_18code_guardian_core7metrics11get_metrics
FNDA:2,_RNvNtCs2kADRy9cGvI_18code_guardian_core7metrics12init_metrics
FNDA:0,_RNvNtCs2kADRy9cGvI_18code_guardian_core7metrics15metrics_handler
FNDA:0,_RNvXNtCs2kADRy9cGvI_18code_guardian_core7metricsNtB2_16MetricsCollectorNtNtCs66KPHxksi63_4core7default7Default7default
FNDA:1,_RNvNtNtCscyrExoi8aIO_18code_guardian_core7metrics5testss_20test_metrics_handler
FNDA:1,_RNvNtNtCscyrExoi8aIO_18code_guardian_core7metrics5testss_22test_metrics_collector
FNDA:1,_RNvNtNtCscyrExoi8aIO_18code_guardian_core7metrics5testss_27test_metrics_initialization
FNDA:1,_RNvXs0_NtCscyrExoi8aIO_18code_guardian_core7metricsNtB5_16MetricsCollectorNtNtNtCs66KPHxksi63_4core3ops4drop4Drop4drop
FNDA:0,_RNvXNtCscyrExoi8aIO_18code_guardian_core7metricsNtB2_16MetricsCollectorNtNtCs66KPHxksi63_4core7default7Default7default
FNDA:1,_RNCNvNtNtCscyrExoi8aIO_18code_guardian_core7metrics5testss_20test_metrics_handler0B7_
FNDA:1,_RNCNvNtCscyrExoi8aIO_18code_guardian_core7metrics12init_metrics0B5_
FNDA:1,_RNCNvNtCscyrExoi8aIO_18code_guardian_core7metrics15metrics_handler0B5_
FNDA:1,_RNvMs_NtCscyrExoi8aIO_18code_guardian_core7metricsNtB4_16MetricsCollector12record_error
FNDA:1,_RNvMs_NtCscyrExoi8aIO_18code_guardian_core7metricsNtB4_16MetricsCollector16record_cache_hit
FNDA:1,_RNvMs_NtCscyrExoi8aIO_18code_guardian_core7metricsNtB4_16MetricsCollector17record_cache_miss
FNDA:1,_RNvMs_NtCscyrExoi8aIO_18code_guardian_core7metricsNtB4_16MetricsCollector18record_issue_found
FNDA:1,_RNvMs_NtCscyrExoi8aIO_18code_guardian_core7metricsNtB4_16MetricsCollector19record_file_scanned
FNDA:1,_RNvMs_NtCscyrExoi8aIO_18code_guardian_core7metricsNtB4_16MetricsCollector20record_llm_detection
FNDA:1,_RNvMs_NtCscyrExoi8aIO_18code_guardian_core7metricsNtB4_16MetricsCollector21update_resource_usage
FNDA:1,_RNvMs_NtCscyrExoi8aIO_18code_guardian_core7metricsNtB4_16MetricsCollector25record_detector_execution
FNDA:1,_RNvMs_NtCscyrExoi8aIO_18code_guardian_core7metricsNtB4_16MetricsCollector25record_file_scan_duration
FNDA:1,_RNvMs_NtCscyrExoi8aIO_18code_guardian_core7metricsNtB4_16MetricsCollector3new
FNDA:2,_RNvNtCscyrExoi8aIO_18code_guardian_core7metrics11get_metrics
FNDA:3,_RNvNtCscyrExoi8aIO_18code_guardian_core7metrics12init_metrics
FNDA:1,_RNvNtCscyrExoi8aIO_18code_guardian_core7metrics15metrics_handler
FNF:21
FNH:20
DA:90,5
DA:91,5
DA:92,2
DA:93,2
DA:94,2
DA:95,2
DA:96,2
DA:97,2
DA:98,2
DA:99,2
DA:100,2
DA:101,2
DA:102,2
DA:103,2
DA:104,2
DA:105,2
DA:107,5
DA:108,5
DA:115,0
DA:116,0
DA:117,0
DA:121,1
DA:122,1
DA:123,1
DA:125,1
DA:126,1
DA:127,1
DA:128,1
DA:130,1
DA:131,1
DA:132,1
DA:134,1
DA:135,1
DA:136,1
DA:138,1
DA:139,1
DA:140,1
DA:142,1
DA:143,1
DA:144,1
DA:146,1
DA:147,1
DA:148,1
DA:150,1
DA:151,1
DA:152,1
DA:154,1
DA:155,1
DA:156,1
DA:158,1
DA:159,1
DA:160,1
DA:162,1
DA:165,1
DA:166,1
DA:169,1
DA:170,1
DA:171,1
DA:174,1
DA:175,1
DA:176,1
DA:177,1
DA:181,1
DA:182,1
DA:183,1
DA:184,1
DA:185,1
DA:188,2
DA:189,2
DA:190,2
DA:191,2
DA:192,2
DA:193,2
DA:194,2
DA:197,1
DA:198,1
DA:199,1
DA:206,1
DA:207,1
DA:208,1
DA:209,1
DA:212,1
DA:213,1
DA:214,1
DA:217,1
DA:218,1
DA:219,1
DA:220,1
DA:221,1
DA:222,1
DA:223,1
DA:225,1
DA:226,1
DA:228,1
DA:231,1
DA:232,1
DA:234,1
DA:235,1
DA:236,1
DA:237,1
DA:238,1
DA:241,1
DA:242,1
DA:243,1
DA:244,1
DA:245,1
DA:247,1
DA:248,1
DA:249,1
DA:250,1
BRF:0
BRH:0
LF:113
LH:110
end_of_record
SF:/workspaces/code-guardian/crates/core/src/monitoring.rs
FN:52,_RNCNvMNtCs2kADRy9cGvI_18code_guardian_core10monitoringNtB4_18PerformanceMonitor13end_operation0CsgJXiKT19grP_17code_guardian_cli
FN:88,_RNCNvMNtCs2kADRy9cGvI_18code_guardian_core10monitoringNtB4_18PerformanceMonitor15collect_metrics0CsgJXiKT19grP_17code_guardian_cli
FN:173,_RINvMs0_NtCs2kADRy9cGvI_18code_guardian_core10monitoringINtB6_18MonitoredOperationpE7executeppEB8_
FN:177,_RNCINvMs0_NtCs2kADRy9cGvI_18code_guardian_core10monitoringINtB8_18MonitoredOperationpE7executeppE0Ba_
FN:188,_RNCNCINvMs0_NtCs2kADRy9cGvI_18code_guardian_core10monitoringINtBa_18MonitoredOperationpE7executeppE00Bc_
FN:195,_RNCNCINvMs0_NtCs2kADRy9cGvI_18code_guardian_core10monitoringINtBa_18MonitoredOperationpE7executeppE0s_0Bc_
FN:107,_RNCNCNvMNtCs2kADRy9cGvI_18code_guardian_core10monitoringNtB6_18PerformanceMonitor22start_async_monitoring00B8_
FN:52,_RNCNvMNtCs2kADRy9cGvI_18code_guardian_core10monitoringNtB4_18PerformanceMonitor13end_operation0B6_
FN:88,_RNCNvMNtCs2kADRy9cGvI_18code_guardian_core10monitoringNtB4_18PerformanceMonitor15collect_metrics0B6_
FN:103,_RNCNvMNtCs2kADRy9cGvI_18code_guardian_core10monitoringNtB4_18PerformanceMonitor22start_async_monitoring0B6_
FN:165,_RNvMs0_NtCs2kADRy9cGvI_18code_guardian_core10monitoringINtB5_18MonitoredOperationpE3newB7_
FN:52,_RNvMNtCs2kADRy9cGvI_18code_guardian_core10monitoringNtB2_18PerformanceMonitor13end_operation
FN:138,_RNvMNtCs2kADRy9cGvI_18code_guardian_core10monitoringNtB2_18PerformanceMonitor13total_elapsed
FN:88,_RNvMNtCs2kADRy9cGvI_18code_guardian_core10monitoringNtB2_18PerformanceMonitor15collect_metrics
FN:46,_RNvMNtCs2kADRy9cGvI_18code_guardian_core10monitoringNtB2_18PerformanceMonitor15start_operation
FN:27,_RNvMNtCs2kADRy9cGvI_18code_guardian_core10monitoringNtB2_18PerformanceMonitor15with_thresholds
FN:103,_RNvMNtCs2kADRy9cGvI_18code_guardian_core10monitoringNtB2_18PerformanceMonitor22start_async_monitoring
FN:22,_RNvMNtCs2kADRy9cGvI_18code_guardian_core10monitoringNtB2_18PerformanceMonitor3new
FN:144,_RNvXs_NtCs2kADRy9cGvI_18code_guardian_core10monitoringNtB4_18PerformanceMonitorNtNtCs66KPHxksi63_4core7default7Default7default
FN:52,_RNCNvMNtCs2kADRy9cGvI_18code_guardian_core10monitoringNtB4_18PerformanceMonitor13end_operation0Csfep3jFmpOzf_23advanced_handlers_tests
FN:88,_RNCNvMNtCs2kADRy9cGvI_18code_guardian_core10monitoringNtB4_18PerformanceMonitor15collect_metrics0Csfep3jFmpOzf_23advanced_handlers_tests
FN:138,_RNvMNtCscyrExoi8aIO_18code_guardian_core10monitoringNtB2_18PerformanceMonitor13total_elapsed
FN:144,_RNvXs_NtCscyrExoi8aIO_18code_guardian_core10monitoringNtB4_18PerformanceMonitorNtNtCs66KPHxksi63_4core7default7Default7default
FN:173,_RINvMs0_NtCscyrExoi8aIO_18code_guardian_core10monitoringINtB6_18MonitoredOperationNtNtCs8Ty2CzGA6U3_5alloc6string6StringE7executeNCNCNvNtB6_5testss_24test_monitored_operation00NCNCB25_00EB8_
FN:177,_RNCINvMs0_NtCscyrExoi8aIO_18code_guardian_core10monitoringINtB8_18MonitoredOperationNtNtCs8Ty2CzGA6U3_5alloc6string6StringE7executeNCNCNvNtB8_5testss_24test_monitored_operation00NCNCB27_00E0Ba_
FN:188,_RNCNCINvMs0_NtCscyrExoi8aIO_18code_guardian_core10monitoringINtBa_18MonitoredOperationNtNtCs8Ty2CzGA6U3_5alloc6string6StringE7executeNCNCNvNtBa_5testss_24test_monitored_operation00NCNCB29_00E00Bc_
FN:195,_RNCNCINvMs0_NtCscyrExoi8aIO_18code_guardian_core10monitoringINtBa_18MonitoredOperationNtNtCs8Ty2CzGA6U3_5alloc6string6StringE7executeNCNCNvNtBa_5testss_24test_monitored_operation00NCNCB29_00E0s_0Bc_
FN:228,_RNCNCNCNvNtNtCscyrExoi8aIO_18code_guardian_core10monitoring5testss_24test_monitored_operation000Bb_
FN:107,_RNCNCNvMNtCscyrExoi8aIO_18code_guardian_core10monitoringNtB6_18PerformanceMonitor22start_async_monitoring00B8_
FN:231,_RNCNCNvNtNtCscyrExoi8aIO_18code_guardian_core10monitoring5testss_24test_monitored_operation00B9_
FN:52,_RNCNvMNtCscyrExoi8aIO_18code_guardian_core10monitoringNtB4_18PerformanceMonitor13end_operation0B6_
FN:88,_RNCNvMNtCscyrExoi8aIO_18code_guardian_core10monitoringNtB4_18PerformanceMonitor15collect_metrics0B6_
FN:103,_RNCNvMNtCscyrExoi8aIO_18code_guardian_core10monitoringNtB4_18PerformanceMonitor22start_async_monitoring0B6_
FN:224,_RNCNvNtNtCscyrExoi8aIO_18code_guardian_core10monitoring5testss_24test_monitored_operation0B7_
FN:209,_RNCNvNtNtCscyrExoi8aIO_18code_guardian_core10monitoring5testss_24test_performance_monitor0B7_
FN:52,_RNvMNtCscyrExoi8aIO_18code_guardian_core10monitoringNtB2_18PerformanceMonitor13end_operation
FN:88,_RNvMNtCscyrExoi8aIO_18code_guardian_core10monitoringNtB2_18PerformanceMonitor15collect_metrics
FN:46,_RNvMNtCscyrExoi8aIO_18code_guardian_core10monitoringNtB2_18PerformanceMonitor15start_operation
FN:27,_RNvMNtCscyrExoi8aIO_18code_guardian_core10monitoringNtB2_18PerformanceMonitor15with_thresholds
FN:103,_RNvMNtCscyrExoi8aIO_18code_guardian_core10monitoringNtB2_18PerformanceMonitor22start_async_monitoring
FN:22,_RNvMNtCscyrExoi8aIO_18code_guardian_core10monitoringNtB2_18PerformanceMonitor3new
FN:165,_RNvMs0_NtCscyrExoi8aIO_18code_guardian_core10monitoringINtB5_18MonitoredOperationNtNtCs8Ty2CzGA6U3_5alloc6string6StringE3newB7_
FN:224,_RNvNtNtCscyrExoi8aIO_18code_guardian_core10monitoring5testss_24test_monitored_operation
FN:209,_RNvNtNtCscyrExoi8aIO_18code_guardian_core10monitoring5testss_24test_performance_monitor
FN:52,_RNCNvMNtCs2kADRy9cGvI_18code_guardian_core10monitoringNtB4_18PerformanceMonitor13end_operation0Cs9djzN8x3YgW_26integration_workflow_tests
FN:88,_RNCNvMNtCs2kADRy9cGvI_18code_guardian_core10monitoringNtB4_18PerformanceMonitor15collect_metrics0Cs9djzN8x3YgW_26integration_workflow_tests
FNDA:2,_RNCNvMNtCs2kADRy9cGvI_18code_guardian_core10monitoringNtB4_18PerformanceMonitor13end_operation0CsgJXiKT19grP_17code_guardian_cli
FNDA:2,_RNCNvMNtCs2kADRy9cGvI_18code_guardian_core10monitoringNtB4_18PerformanceMonitor15collect_metrics0CsgJXiKT19grP_17code_guardian_cli
FNDA:0,_RINvMs0_NtCs2kADRy9cGvI_18code_guardian_core10monitoringINtB6_18MonitoredOperationpE7executeppEB8_
FNDA:0,_RNCINvMs0_NtCs2kADRy9cGvI_18code_guardian_core10monitoringINtB8_18MonitoredOperationpE7executeppE0Ba_
FNDA:0,_RNCNCINvMs0_NtCs2kADRy9cGvI_18code_guardian_core10monitoringINtBa_18MonitoredOperationpE7executeppE00Bc_
FNDA:0,_RNCNCINvMs0_NtCs2kADRy9cGvI_18code_guardian_core10monitoringINtBa_18MonitoredOperationpE7executeppE0s_0Bc_
FNDA:0,_RNCNCNvMNtCs2kADRy9cGvI_18code_guardian_core10monitoringNtB6_18PerformanceMonitor22start_async_monitoring00B8_
FNDA:0,_RNCNvMNtCs2kADRy9cGvI_18code_guardian_core10monitoringNtB4_18PerformanceMonitor13end_operation0B6_
FNDA:0,_RNCNvMNtCs2kADRy9cGvI_18code_guardian_core10monitoringNtB4_18PerformanceMonitor15collect_metrics0B6_
FNDA:0,_RNCNvMNtCs2kADRy9cGvI_18code_guardian_core10monitoringNtB4_18PerformanceMonitor22start_async_monitoring0B6_
FNDA:0,_RNvMs0_NtCs2kADRy9cGvI_18code_guardian_core10monitoringINtB5_18MonitoredOperationpE3newB7_
FNDA:5,_RNvMNtCs2kADRy9cGvI_18code_guardian_core10monitoringNtB2_18PerformanceMonitor13end_operation
FNDA:0,_RNvMNtCs2kADRy9cGvI_18code_guardian_core10monitoringNtB2_18PerformanceMonitor13total_elapsed
FNDA:5,_RNvMNtCs2kADRy9cGvI_18code_guardian_core10monitoringNtB2_18PerformanceMonitor15collect_metrics
FNDA:5,_RNvMNtCs2kADRy9cGvI_18code_guardian_core10monitoringNtB2_18PerformanceMonitor15start_operation
FNDA:9,_RNvMNtCs2kADRy9cGvI_18code_guardian_core10monitoringNtB2_18PerformanceMonitor15with_thresholds
FNDA:0,_RNvMNtCs2kADRy9cGvI_18code_guardian_core10monitoringNtB2_18PerformanceMonitor22start_async_monitoring
FNDA:9,_RNvMNtCs2kADRy9cGvI_18code_guardian_core10monitoringNtB2_18PerformanceMonitor3new
FNDA:0,_RNvXs_NtCs2kADRy9cGvI_18code_guardian_core10monitoringNtB4_18PerformanceMonitorNtNtCs66KPHxksi63_4core7default7Default7default
FNDA:3,_RNCNvMNtCs2kADRy9cGvI_18code_guardian_core10monitoringNtB4_18PerformanceMonitor13end_operation0Csfep3jFmpOzf_23advanced_handlers_tests
FNDA:3,_RNCNvMNtCs2kADRy9cGvI_18code_guardian_core10monitoringNtB4_18PerformanceMonitor15collect_metrics0Csfep3jFmpOzf_23advanced_handlers_tests
FNDA:0,_RNvMNtCscyrExoi8aIO_18code_guardian_core10monitoringNtB2_18PerformanceMonitor13total_elapsed
FNDA:0,_RNvXs_NtCscyrExoi8aIO_18code_guardian_core10monitoringNtB4_18PerformanceMonitorNtNtCs66KPHxksi63_4core7default7Default7default
FNDA:1,_RINvMs0_NtCscyrExoi8aIO_18code_guardian_core10monitoringINtB6_18MonitoredOperationNtNtCs8Ty2CzGA6U3_5alloc6string6StringE7executeNCNCNvNtB6_5testss_24test_monitored_operation00NCNCB25_00EB8_
FNDA:1,_RNCINvMs0_NtCscyrExoi8aIO_18code_guardian_core10monitoringINtB8_18MonitoredOperationNtNtCs8Ty2CzGA6U3_5alloc6string6StringE7executeNCNCNvNtB8_5testss_24test_monitored_operation00NCNCB27_00E0Ba_
FNDA:0,_RNCNCINvMs0_NtCscyrExoi8aIO_18code_guardian_core10monitoringINtBa_18MonitoredOperationNtNtCs8Ty2CzGA6U3_5alloc6string6StringE7executeNCNCNvNtBa_5testss_24test_monitored_operation00NCNCB29_00E00Bc_
FNDA:0,_RNCNCINvMs0_NtCscyrExoi8aIO_18code_guardian_core10monitoringINtBa_18MonitoredOperationNtNtCs8Ty2CzGA6U3_5alloc6string6StringE7executeNCNCNvNtBa_5testss_24test_monitored_operation00NCNCB29_00E0s_0Bc_
FNDA:1,_RNCNCNCNvNtNtCscyrExoi8aIO_18code_guardian_core10monitoring5testss_24test_monitored_operation000Bb_
FNDA:1,_RNCNCNvMNtCscyrExoi8aIO_18code_guardian_core10monitoringNtB6_18PerformanceMonitor22start_async_monitoring00B8_
FNDA:1,_RNCNCNvNtNtCscyrExoi8aIO_18code_guardian_core10monitoring5testss_24test_monitored_operation00B9_
FNDA:2,_RNCNvMNtCscyrExoi8aIO_18code_guardian_core10monitoringNtB4_18PerformanceMonitor13end_operation0B6_
FNDA:3,_RNCNvMNtCscyrExoi8aIO_18code_guardian_core10monitoringNtB4_18PerformanceMonitor15collect_metrics0B6_
FNDA:1,_RNCNvMNtCscyrExoi8aIO_18code_guardian_core10monitoringNtB4_18PerformanceMonitor22start_async_monitoring0B6_
FNDA:1,_RNCNvNtNtCscyrExoi8aIO_18code_guardian_core10monitoring5testss_24test_monitored_operation0B7_
FNDA:1,_RNCNvNtNtCscyrExoi8aIO_18code_guardian_core10monitoring5testss_24test_performance_monitor0B7_
FNDA:2,_RNvMNtCscyrExoi8aIO_18code_guardian_core10monitoringNtB2_18PerformanceMonitor13end_operation
FNDA:3,_RNvMNtCscyrExoi8aIO_18code_guardian_core10monitoringNtB2_18PerformanceMonitor15collect_metrics
FNDA:2,_RNvMNtCscyrExoi8aIO_18code_guardian_core10monitoringNtB2_18PerformanceMonitor15start_operation
FNDA:5,_RNvMNtCscyrExoi8aIO_18code_guardian_core10monitoringNtB2_18PerformanceMonitor15with_thresholds
FNDA:1,_RNvMNtCscyrExoi8aIO_18code_guardian_core10monitoringNtB2_18PerformanceMonitor22start_async_monitoring
FNDA:5,_RNvMNtCscyrExoi8aIO_18code_guardian_core10monitoringNtB2_18PerformanceMonitor3new
FNDA:1,_RNvMs0_NtCscyrExoi8aIO_18code_guardian_core10monitoringINtB5_18MonitoredOperationNtNtCs8Ty2CzGA6U3_5alloc6string6StringE3newB7_
FNDA:1,_RNvNtNtCscyrExoi8aIO_18code_guardian_core10monitoring5testss_24test_monitored_operation
FNDA:1,_RNvNtNtCscyrExoi8aIO_18code_guardian_core10monitoring5testss_24test_performance_monitor
FNDA:0,_RNCNvMNtCs2kADRy9cGvI_18code_guardian_core10monitoringNtB4_18PerformanceMonitor13end_operation0Cs9djzN8x3YgW_26integration_workflow_tests
FNDA:0,_RNCNvMNtCs2kADRy9cGvI_18code_guardian_core10monitoringNtB4_18PerformanceMonitor15collect_metrics0Cs9djzN8x3YgW_26integration_workflow_tests
FNF:23
FNH:19
DA:22,14
DA:23,14
DA:24,14
DA:27,14
DA:28,14
DA:29,14
DA:30,14
DA:31,14
DA:32,14
DA:33,14
DA:35,14
DA:36,14
DA:37,14
DA:38,14
DA:39,14
DA:40,14
DA:41,14
DA:42,14
DA:43,14
DA:46,7
DA:47,7
DA:48,7
DA:49,7
DA:52,7
DA:53,7
DA:54,7
DA:55,0
DA:58,7
DA:59,7
DA:60,0
DA:65,7
DA:66,0
DA:67,0
DA:70,7
DA:71,7
DA:72,7
DA:73,0
DA:76,0
DA:77,7
DA:78,0
DA:79,0
DA:82,7
DA:84,7
DA:85,7
DA:88,8
DA:89,8
DA:90,8
DA:92,8
DA:93,8
DA:95,8
DA:96,8
DA:97,8
DA:98,8
DA:99,8
DA:100,8
DA:103,1
DA:104,1
DA:105,1
DA:107,1
DA:108,1
DA:109,1
DA:112,2
DA:114,1
DA:115,1
DA:116,0
DA:117,0
DA:120,0
DA:121,1
DA:123,1
DA:124,1
DA:126,1
DA:127,1
DA:129,1
DA:130,0
DA:134,0
DA:135,1
DA:138,0
DA:139,0
DA:140,0
DA:144,0
DA:145,0
DA:146,0
DA:165,1
DA:166,1
DA:167,1
DA:168,1
DA:169,1
DA:170,1
DA:171,1
DA:173,1
DA:174,1
DA:175,1
DA:176,1
DA:177,1
DA:178,1
DA:181,1
DA:182,1
DA:183,1
DA:186,1
DA:187,1
DA:188,1
DA:189,0
DA:190,0
DA:194,0
DA:195,1
DA:197,1
DA:199,1
DA:200,1
DA:209,1
DA:210,1
DA:211,1
DA:213,1
DA:215,1
DA:216,1
DA:218,1
DA:219,1
DA:220,1
DA:221,1
DA:224,1
DA:225,1
DA:227,1
DA:228,1
DA:229,1
DA:230,1
DA:231,2
DA:232,1
DA:234,1
DA:235,1
DA:236,1
BRF:0
BRH:0
LF:142
LH:117
end_of_record
SF:/workspaces/code-guardian/crates/core/src/observability.rs
FN:291,_RNCNvMs4_NtCs2kADRy9cGvI_18code_guardian_core13observabilityNtB7_13HealthChecker12check_health0B9_
FN:20,_RNvMNtCs2kADRy9cGvI_18code_guardian_core13observabilityNtB2_13CorrelationId11from_string
FN:16,_RNvMNtCs2kADRy9cGvI_18code_guardian_core13observabilityNtB2_13CorrelationId3new
FN:24,_RNvMNtCs2kADRy9cGvI_18code_guardian_core13observabilityNtB2_13CorrelationId6as_str
FN:57,_RNvMs1_NtCs2kADRy9cGvI_18code_guardian_core13observabilityNtB5_16StructuredLogger19with_correlation_id
FN:74,_RNvMs1_NtCs2kADRy9cGvI_18code_guardian_core13observabilityNtB5_16StructuredLogger3log
FN:49,_RNvMs1_NtCs2kADRy9cGvI_18code_guardian_core13observabilityNtB5_16StructuredLogger3new
FN:62,_RNvMs1_NtCs2kADRy9cGvI_18code_guardian_core13observabilityNtB5_16StructuredLogger8log_info
FN:66,_RNvMs1_NtCs2kADRy9cGvI_18code_guardian_core13observabilityNtB5_16StructuredLogger8log_warn
FN:70,_RNvMs1_NtCs2kADRy9cGvI_18code_guardian_core13observabilityNtB5_16StructuredLogger9log_error
FN:163,_RNvMs2_NtCs2kADRy9cGvI_18code_guardian_core13observabilityNtB5_11ScanMetrics11finish_scan
FN:175,_RNvMs2_NtCs2kADRy9cGvI_18code_guardian_core13observabilityNtB5_11ScanMetrics13to_prometheus
FN:151,_RNvMs2_NtCs2kADRy9cGvI_18code_guardian_core13observabilityNtB5_11ScanMetrics16increment_errors
FN:155,_RNvMs2_NtCs2kADRy9cGvI_18code_guardian_core13observabilityNtB5_11ScanMetrics16set_memory_usage
FN:159,_RNvMs2_NtCs2kADRy9cGvI_18code_guardian_core13observabilityNtB5_11ScanMetrics18set_active_threads
FN:143,_RNvMs2_NtCs2kADRy9cGvI_18code_guardian_core13observabilityNtB5_11ScanMetrics22increment_issues_found
FN:139,_RNvMs2_NtCs2kADRy9cGvI_18code_guardian_core13observabilityNtB5_11ScanMetrics23increment_files_scanned
FN:147,_RNvMs2_NtCs2kADRy9cGvI_18code_guardian_core13observabilityNtB5_11ScanMetrics23increment_files_skipped
FN:124,_RNvMs2_NtCs2kADRy9cGvI_18code_guardian_core13observabilityNtB5_11ScanMetrics3new
FN:214,_RNvMs2_NtCs2kADRy9cGvI_18code_guardian_core13observabilityNtB5_11ScanMetrics7to_json
FN:291,_RNvMs4_NtCs2kADRy9cGvI_18code_guardian_core13observabilityNtB5_13HealthChecker12check_health
FN:280,_RNvMs4_NtCs2kADRy9cGvI_18code_guardian_core13observabilityNtB5_13HealthChecker3new
FN:287,_RNvMs4_NtCs2kADRy9cGvI_18code_guardian_core13observabilityNtB5_13HealthChecker9add_check
FN:332,_RNvMs5_NtCs2kADRy9cGvI_18code_guardian_core13observabilityNtB5_19DatabaseHealthCheck3new
FN:36,_RNvXs0_NtCs2kADRy9cGvI_18code_guardian_core13observabilityNtB5_13CorrelationIdNtNtCs66KPHxksi63_4core3fmt7Display3fmt
FN:239,_RNvXs3_NtCs2kADRy9cGvI_18code_guardian_core13observabilityNtB5_11ScanMetricsNtNtCs66KPHxksi63_4core7default7Default7default
FN:30,_RNvXs_NtCs2kADRy9cGvI_18code_guardian_core13observabilityNtB4_13CorrelationIdNtNtCs66KPHxksi63_4core7default7Default7default
FN:375,_RNvXsl_NtCs2kADRy9cGvI_18code_guardian_core13observabilityNtB5_19DatabaseHealthCheckNtB5_11HealthCheck4name
FN:339,_RNvXsl_NtCs2kADRy9cGvI_18code_guardian_core13observabilityNtB5_19DatabaseHealthCheckNtB5_11HealthCheck5check
FN:57,_RNvMs1_NtCscyrExoi8aIO_18code_guardian_core13observabilityNtB5_16StructuredLogger19with_correlation_id
FN:70,_RNvMs1_NtCscyrExoi8aIO_18code_guardian_core13observabilityNtB5_16StructuredLogger9log_error
FN:163,_RNvMs2_NtCscyrExoi8aIO_18code_guardian_core13observabilityNtB5_11ScanMetrics11finish_scan
FN:151,_RNvMs2_NtCscyrExoi8aIO_18code_guardian_core13observabilityNtB5_11ScanMetrics16increment_errors
FN:159,_RNvMs2_NtCscyrExoi8aIO_18code_guardian_core13observabilityNtB5_11ScanMetrics18set_active_threads
FN:147,_RNvMs2_NtCscyrExoi8aIO_18code_guardian_core13observabilityNtB5_11ScanMetrics23increment_files_skipped
FN:332,_RNvMs5_NtCscyrExoi8aIO_18code_guardian_core13observabilityNtB5_19DatabaseHealthCheck3new
FN:239,_RNvXs3_NtCscyrExoi8aIO_18code_guardian_core13observabilityNtB5_11ScanMetricsNtNtCs66KPHxksi63_4core7default7Default7default
FN:30,_RNvXs_NtCscyrExoi8aIO_18code_guardian_core13observabilityNtB4_13CorrelationIdNtNtCs66KPHxksi63_4core7default7Default7default
FN:375,_RNvXsl_NtCscyrExoi8aIO_18code_guardian_core13observabilityNtB5_19DatabaseHealthCheckNtB5_11HealthCheck4name
FN:339,_RNvXsl_NtCscyrExoi8aIO_18code_guardian_core13observabilityNtB5_19DatabaseHealthCheckNtB5_11HealthCheck5check
FN:291,_RNCNvMs4_NtCscyrExoi8aIO_18code_guardian_core13observabilityNtB7_13HealthChecker12check_health0B9_
FN:442,_RNCNvNtNtCscyrExoi8aIO_18code_guardian_core13observability5testss_19test_health_checker0B7_
FN:20,_RNvMNtCscyrExoi8aIO_18code_guardian_core13observabilityNtB2_13CorrelationId11from_string
FN:16,_RNvMNtCscyrExoi8aIO_18code_guardian_core13observabilityNtB2_13CorrelationId3new
FN:24,_RNvMNtCscyrExoi8aIO_18code_guardian_core13observabilityNtB2_13CorrelationId6as_str
FN:74,_RNvMs1_NtCscyrExoi8aIO_18code_guardian_core13observabilityNtB5_16StructuredLogger3log
FN:49,_RNvMs1_NtCscyrExoi8aIO_18code_guardian_core13observabilityNtB5_16StructuredLogger3new
FN:62,_RNvMs1_NtCscyrExoi8aIO_18code_guardian_core13observabilityNtB5_16StructuredLogger8log_info
FN:66,_RNvMs1_NtCscyrExoi8aIO_18code_guardian_core13observabilityNtB5_16StructuredLogger8log_warn
FN:175,_RNvMs2_NtCscyrExoi8aIO_18code_guardian_core13observabilityNtB5_11ScanMetrics13to_prometheus
FN:155,_RNvMs2_NtCscyrExoi8aIO_18code_guardian_core13observabilityNtB5_11ScanMetrics16set_memory_usage
FN:143,_RNvMs2_NtCscyrExoi8aIO_18code_guardian_core13observabilityNtB5_11ScanMetrics22increment_issues_found
FN:139,_RNvMs2_NtCscyrExoi8aIO_18code_guardian_core13observabilityNtB5_11ScanMetrics23increment_files_scanned
FN:124,_RNvMs2_NtCscyrExoi8aIO_18code_guardian_core13observabilityNtB5_11ScanMetrics3new
FN:214,_RNvMs2_NtCscyrExoi8aIO_18code_guardian_core13observabilityNtB5_11ScanMetrics7to_json
FN:291,_RNvMs4_NtCscyrExoi8aIO_18code_guardian_core13observabilityNtB5_13HealthChecker12check_health
FN:280,_RNvMs4_NtCscyrExoi8aIO_18code_guardian_core13observabilityNtB5_13HealthChecker3new
FN:287,_RNvMs4_NtCscyrExoi8aIO_18code_guardian_core13observabilityNtB5_13HealthChecker9add_check
FN:36,_RNvXs0_NtCscyrExoi8aIO_18code_guardian_core13observabilityNtB5_13CorrelationIdNtNtCs66KPHxksi63_4core3fmt7Display3fmt
FN:395,_RNvNtNtCscyrExoi8aIO_18code_guardian_core13observability5testss_17test_scan_metrics
FN:385,_RNvNtNtCscyrExoi8aIO_18code_guardian_core13observability5testss_19test_correlation_id
FN:442,_RNvNtNtCscyrExoi8aIO_18code_guardian_core13observability5testss_19test_health_checker
FN:427,_RNvNtNtCscyrExoi8aIO_18code_guardian_core13observability5testss_22test_structured_logger
FN:418,_RNvNtNtCscyrExoi8aIO_18code_guardian_core13observability5testss_24test_metrics_json_export
FN:408,_RNvNtNtCscyrExoi8aIO_18code_guardian_core13observability5testss_30test_metrics_prometheus_export
FN:462,_RNvXNCNvNtNtCscyrExoi8aIO_18code_guardian_core13observability5testss_19test_health_checker0NtB2_15MockHealthCheckNtB8_11HealthCheck4name
FN:450,_RNvXNCNvNtNtCscyrExoi8aIO_18code_guardian_core13observability5testss_19test_health_checker0NtB2_15MockHealthCheckNtB8_11HealthCheck5check
FNDA:0,_RNCNvMs4_NtCs2kADRy9cGvI_18code_guardian_core13observabilityNtB7_13HealthChecker12check_health0B9_
FNDA:0,_RNvMNtCs2kADRy9cGvI_18code_guardian_core13observabilityNtB2_13CorrelationId11from_string
FNDA:0,_RNvMNtCs2kADRy9cGvI_18code_guardian_core13observabilityNtB2_13CorrelationId3new
FNDA:0,_RNvMNtCs2kADRy9cGvI_18code_guardian_core13observabilityNtB2_13CorrelationId6as_str
FNDA:0,_RNvMs1_NtCs2kADRy9cGvI_18code_guardian_core13observabilityNtB5_16StructuredLogger19with_correlation_id
FNDA:0,_RNvMs1_NtCs2kADRy9cGvI_18code_guardian_core13observabilityNtB5_16StructuredLogger3log
FNDA:0,_RNvMs1_NtCs2kADRy9cGvI_18code_guardian_core13observabilityNtB5_16StructuredLogger3new
FNDA:0,_RNvMs1_NtCs2kADRy9cGvI_18code_guardian_core13observabilityNtB5_16StructuredLogger8log_info
FNDA:0,_RNvMs1_NtCs2kADRy9cGvI_18code_guardian_core13observabilityNtB5_16StructuredLogger8log_warn
FNDA:0,_RNvMs1_NtCs2kADRy9cGvI_18code_guardian_core13observabilityNtB5_16StructuredLogger9log_error
FNDA:0,_RNvMs2_NtCs2kADRy9cGvI_18code_guardian_core13observabilityNtB5_11ScanMetrics11finish_scan
FNDA:0,_RNvMs2_NtCs2kADRy9cGvI_18code_guardian_core13observabilityNtB5_11ScanMetrics13to_prometheus
FNDA:0,_RNvMs2_NtCs2kADRy9cGvI_18code_guardian_core13observabilityNtB5_11ScanMetrics16increment_errors
FNDA:0,_RNvMs2_NtCs2kADRy9cGvI_18code_guardian_core13observabilityNtB5_11ScanMetrics16set_memory_usage
FNDA:0,_RNvMs2_NtCs2kADRy9cGvI_18code_guardian_core13observabilityNtB5_11ScanMetrics18set_active_threads
FNDA:0,_RNvMs2_NtCs2kADRy9cGvI_18code_guardian_core13observabilityNtB5_11ScanMetrics22increment_issues_found
FNDA:0,_RNvMs2_NtCs2kADRy9cGvI_18code_guardian_core13observabilityNtB5_11ScanMetrics23increment_files_scanned
FNDA:0,_RNvMs2_NtCs2kADRy9cGvI_18code_guardian_core13observabilityNtB5_11ScanMetrics23increment_files_skipped
FNDA:0,_RNvMs2_NtCs2kADRy9cGvI_18code_guardian_core13observabilityNtB5_11ScanMetrics3new
FNDA:0,_RNvMs2_NtCs2kADRy9cGvI_18code_guardian_core13observabilityNtB5_11ScanMetrics7to_json
FNDA:0,_RNvMs4_NtCs2kADRy9cGvI_18code_guardian_core13observabilityNtB5_13HealthChecker12check_health
FNDA:0,_RNvMs4_NtCs2kADRy9cGvI_18code_guardian_core13observabilityNtB5_13HealthChecker3new
FNDA:0,_RNvMs4_NtCs2kADRy9cGvI_18code_guardian_core13observabilityNtB5_13HealthChecker9add_check
FNDA:0,_RNvMs5_NtCs2kADRy9cGvI_18code_guardian_core13observabilityNtB5_19DatabaseHealthCheck3new
FNDA:0,_RNvXs0_NtCs2kADRy9cGvI_18code_guardian_core13observabilityNtB5_13CorrelationIdNtNtCs66KPHxksi63_4core3fmt7Display3fmt
FNDA:0,_RNvXs3_NtCs2kADRy9cGvI_18code_guardian_core13observabilityNtB5_11ScanMetricsNtNtCs66KPHxksi63_4core7default7Default7default
FNDA:0,_RNvXs_NtCs2kADRy9cGvI_18code_guardian_core13observabilityNtB4_13CorrelationIdNtNtCs66KPHxksi63_4core7default7Default7default
FNDA:0,_RNvXsl_NtCs2kADRy9cGvI_18code_guardian_core13observabilityNtB5_19DatabaseHealthCheckNtB5_11HealthCheck4name
FNDA:0,_RNvXsl_NtCs2kADRy9cGvI_18code_guardian_core13observabilityNtB5_19DatabaseHealthCheckNtB5_11HealthCheck5check
FNDA:0,_RNvMs1_NtCscyrExoi8aIO_18code_guardian_core13observabilityNtB5_16StructuredLogger19with_correlation_id
FNDA:0,_RNvMs1_NtCscyrExoi8aIO_18code_guardian_core13observabilityNtB5_16StructuredLogger9log_error
FNDA:0,_RNvMs2_NtCscyrExoi8aIO_18code_guardian_core13observabilityNtB5_11ScanMetrics11finish_scan
FNDA:0,_RNvMs2_NtCscyrExoi8aIO_18code_guardian_core13observabilityNtB5_11ScanMetrics16increment_errors
FNDA:0,_RNvMs2_NtCscyrExoi8aIO_18code_guardian_core13observabilityNtB5_11ScanMetrics18set_active_threads
FNDA:0,_RNvMs2_NtCscyrExoi8aIO_18code_guardian_core13observabilityNtB5_11ScanMetrics23increment_files_skipped
FNDA:0,_RNvMs5_NtCscyrExoi8aIO_18code_guardian_core13observabilityNtB5_19DatabaseHealthCheck3new
FNDA:0,_RNvXs3_NtCscyrExoi8aIO_18code_guardian_core13observabilityNtB5_11ScanMetricsNtNtCs66KPHxksi63_4core7default7Default7default
FNDA:0,_RNvXs_NtCscyrExoi8aIO_18code_guardian_core13observabilityNtB4_13CorrelationIdNtNtCs66KPHxksi63_4core7default7Default7default
FNDA:0,_RNvXsl_NtCscyrExoi8aIO_18code_guardian_core13observabilityNtB5_19DatabaseHealthCheckNtB5_11HealthCheck4name
FNDA:0,_RNvXsl_NtCscyrExoi8aIO_18code_guardian_core13observabilityNtB5_19DatabaseHealthCheckNtB5_11HealthCheck5check
FNDA:1,_RNCNvMs4_NtCscyrExoi8aIO_18code_guardian_core13observabilityNtB7_13HealthChecker12check_health0B9_
FNDA:1,_RNCNvNtNtCscyrExoi8aIO_18code_guardian_core13observability5testss_19test_health_checker0B7_
FNDA:1,_RNvMNtCscyrExoi8aIO_18code_guardian_core13observabilityNtB2_13CorrelationId11from_string
FNDA:6,_RNvMNtCscyrExoi8aIO_18code_guardian_core13observabilityNtB2_13CorrelationId3new
FNDA:4,_RNvMNtCscyrExoi8aIO_18code_guardian_core13observabilityNtB2_13CorrelationId6as_str
FNDA:2,_RNvMs1_NtCscyrExoi8aIO_18code_guardian_core13observabilityNtB5_16StructuredLogger3log
FNDA:1,_RNvMs1_NtCscyrExoi8aIO_18code_guardian_core13observabilityNtB5_16StructuredLogger3new
FNDA:1,_RNvMs1_NtCscyrExoi8aIO_18code_guardian_core13observabilityNtB5_16StructuredLogger8log_info
FNDA:1,_RNvMs1_NtCscyrExoi8aIO_18code_guardian_core13observabilityNtB5_16StructuredLogger8log_warn
FNDA:1,_RNvMs2_NtCscyrExoi8aIO_18code_guardian_core13observabilityNtB5_11ScanMetrics13to_prometheus
FNDA:1,_RNvMs2_NtCscyrExoi8aIO_18code_guardian_core13observabilityNtB5_11ScanMetrics16set_memory_usage
FNDA:1,_RNvMs2_NtCscyrExoi8aIO_18code_guardian_core13observabilityNtB5_11ScanMetrics22increment_issues_found
FNDA:3,_RNvMs2_NtCscyrExoi8aIO_18code_guardian_core13observabilityNtB5_11ScanMetrics23increment_files_scanned
FNDA:3,_RNvMs2_NtCscyrExoi8aIO_18code_guardian_core13observabilityNtB5_11ScanMetrics3new
FNDA:1,_RNvMs2_NtCscyrExoi8aIO_18code_guardian_core13observabilityNtB5_11ScanMetrics7to_json
FNDA:1,_RNvMs4_NtCscyrExoi8aIO_18code_guardian_core13observabilityNtB5_13HealthChecker12check_health
FNDA:1,_RNvMs4_NtCscyrExoi8aIO_18code_guardian_core13observabilityNtB5_13HealthChecker3new
FNDA:1,_RNvMs4_NtCscyrExoi8aIO_18code_guardian_core13observabilityNtB5_13HealthChecker9add_check
FNDA:4,_RNvXs0_NtCscyrExoi8aIO_18code_guardian_core13observabilityNtB5_13CorrelationIdNtNtCs66KPHxksi63_4core3fmt7Display3fmt
FNDA:1,_RNvNtNtCscyrExoi8aIO_18code_guardian_core13observability5testss_17test_scan_metrics
FNDA:1,_RNvNtNtCscyrExoi8aIO_18code_guardian_core13observability5testss_19test_correlation_id
FNDA:1,_RNvNtNtCscyrExoi8aIO_18code_guardian_core13observability5testss_19test_health_checker
FNDA:1,_RNvNtNtCscyrExoi8aIO_18code_guardian_core13observability5testss_22test_structured_logger
FNDA:1,_RNvNtNtCscyrExoi8aIO_18code_guardian_core13observability5testss_24test_metrics_json_export
FNDA:1,_RNvNtNtCscyrExoi8aIO_18code_guardian_core13observability5testss_30test_metrics_prometheus_export
FNDA:1,_RNvXNCNvNtNtCscyrExoi8aIO_18code_guardian_core13observability5testss_19test_health_checker0NtB2_15MockHealthCheckNtB8_11HealthCheck4name
FNDA:1,_RNvXNCNvNtNtCscyrExoi8aIO_18code_guardian_core13observability5testss_19test_health_checker0NtB2_15MockHealthCheckNtB8_11HealthCheck5check
FNF:38
FNH:27
DA:16,6
DA:17,6
DA:18,6
DA:20,1
DA:21,1
DA:22,1
DA:24,4
DA:25,4
DA:26,4
DA:30,0
DA:31,0
DA:32,0
DA:36,4
DA:37,4
DA:38,4
DA:49,1
DA:50,1
DA:51,1
DA:52,1
DA:53,1
DA:54,1
DA:55,1
DA:57,0
DA:58,0
DA:59,0
DA:60,0
DA:62,1
DA:63,1
DA:64,1
DA:66,1
DA:67,1
DA:68,1
DA:70,0
DA:71,0
DA:72,0
DA:74,2
DA:75,2
DA:76,2
DA:77,2
DA:78,2
DA:80,2
DA:81,2
DA:82,2
DA:83,2
DA:84,2
DA:85,2
DA:86,2
DA:89,2
DA:90,1
DA:91,2
DA:92,1
DA:93,1
DA:94,0
DA:95,1
DA:97,2
DA:98,2
DA:124,3
DA:125,3
DA:126,3
DA:127,3
DA:128,3
DA:129,3
DA:130,3
DA:131,3
DA:132,3
DA:133,3
DA:134,3
DA:135,3
DA:136,3
DA:137,3
DA:139,3
DA:140,3
DA:141,3
DA:143,1
DA:144,1
DA:145,1
DA:147,0
DA:148,0
DA:149,0
DA:151,0
DA:152,0
DA:153,0
DA:155,1
DA:156,1
DA:157,1
DA:159,0
DA:160,0
DA:161,0
DA:163,0
DA:164,0
DA:165,0
DA:167,0
DA:168,0
DA:169,0
DA:170,0
DA:171,0
DA:172,0
DA:175,1
DA:176,1
DA:178,1
DA:179,1
DA:180,1
DA:181,1
DA:182,1
DA:183,1
DA:184,1
DA:186,1
DA:187,1
DA:188,1
DA:189,1
DA:190,1
DA:191,1
DA:192,1
DA:194,1
DA:195,1
DA:196,1
DA:197,1
DA:198,1
DA:199,1
DA:200,1
DA:202,1
DA:203,1
DA:204,1
DA:205,1
DA:206,1
DA:207,1
DA:208,1
DA:210,1
DA:211,1
DA:214,1
DA:215,1
DA:216,1
DA:217,1
DA:218,1
DA:219,1
DA:220,1
DA:221,1
DA:223,1
DA:224,1
DA:225,1
DA:227,1
DA:228,1
DA:229,1
DA:231,1
DA:232,1
DA:235,1
DA:239,0
DA:240,0
DA:241,0
DA:280,1
DA:281,1
DA:282,1
DA:283,1
DA:284,1
DA:285,1
DA:287,1
DA:288,1
DA:289,1
DA:291,1
DA:292,1
DA:293,1
DA:295,2
DA:296,1
DA:297,1
DA:298,1
DA:300,1
DA:301,1
DA:303,0
DA:304,0
DA:305,0
DA:306,0
DA:307,0
DA:308,1
DA:311,1
DA:314,1
DA:315,1
DA:316,1
DA:317,1
DA:318,1
DA:319,1
DA:320,1
DA:321,1
DA:322,1
DA:323,1
DA:332,0
DA:333,0
DA:334,0
DA:339,0
DA:373,0
DA:375,0
DA:376,0
DA:377,0
DA:385,1
DA:386,1
DA:387,1
DA:388,1
DA:390,1
DA:391,1
DA:392,1
DA:395,1
DA:396,1
DA:398,1
DA:399,1
DA:400,1
DA:402,1
DA:403,1
DA:404,1
DA:405,1
DA:408,1
DA:409,1
DA:410,1
DA:412,1
DA:413,1
DA:414,1
DA:415,1
DA:418,1
DA:419,1
DA:420,1
DA:422,1
DA:423,1
DA:424,1
DA:427,1
DA:428,1
DA:431,1
DA:433,1
DA:434,1
DA:435,1
DA:436,1
DA:438,1
DA:439,1
DA:442,1
DA:443,1
DA:450,1
DA:460,1
DA:462,1
DA:463,1
DA:464,1
DA:467,1
DA:469,1
DA:470,1
DA:471,1
DA:472,1
BRF:0
BRH:0
LF:245
LH:200
end_of_record
SF:/workspaces/code-guardian/crates/core/src/optimized_scanner.rs
FN:400,_RINvMs_NtCs2kADRy9cGvI_18code_guardian_core17optimized_scannerNtB5_16StreamingScanner14scan_streamingNCNCNvNtCsgJXiKT19grP_17code_guardian_cli13scan_handlers11handle_scan0s0_0EB1J_
FN:400,_RINvMs_NtCs2kADRy9cGvI_18code_guardian_core17optimized_scannerNtB5_16StreamingScanner14scan_streamingNCNvNtCsgJXiKT19grP_17code_guardian_cli9benchmark13run_benchmark0EB1H_
FN:415,_RNCINvMs_NtCs2kADRy9cGvI_18code_guardian_core17optimized_scannerNtB7_16StreamingScanner14scan_streamingNCNCNvNtCsgJXiKT19grP_17code_guardian_cli13scan_handlers11handle_scan0s0_0E0B1L_
FN:415,_RNCINvMs_NtCs2kADRy9cGvI_18code_guardian_core17optimized_scannerNtB7_16StreamingScanner14scan_streamingNCNvNtCsgJXiKT19grP_17code_guardian_cli9benchmark13run_benchmark0E0B1J_
FN:168,_RNCNCNvMNtCs2kADRy9cGvI_18code_guardian_core17optimized_scannerNtB6_16OptimizedScanner14scan_optimized00B8_
FN:174,_RNCNCNvMNtCs2kADRy9cGvI_18code_guardian_core17optimized_scannerNtB6_16OptimizedScanner14scan_optimized0s_0B8_
FN:615,_RNCNCNvMs0_NtCs2kADRy9cGvI_18code_guardian_core17optimized_scannerNtB9_15AdvancedScanner13scan_advanced00Bb_
FN:628,_RNCNCNvMs0_NtCs2kADRy9cGvI_18code_guardian_core17optimized_scannerNtB9_15AdvancedScanner13scan_advanced0s0_0Bb_
FN:621,_RNCNCNvMs0_NtCs2kADRy9cGvI_18code_guardian_core17optimized_scannerNtB9_15AdvancedScanner13scan_advanced0s_0Bb_
FN:491,_RNCNCNvMs_NtCs2kADRy9cGvI_18code_guardian_core17optimized_scannerNtB8_16StreamingScanner13process_batch00Ba_
FN:497,_RNCNCNvMs_NtCs2kADRy9cGvI_18code_guardian_core17optimized_scannerNtB8_16StreamingScanner13process_batch0s_0Ba_
FN:280,_RNCNvMNtCs2kADRy9cGvI_18code_guardian_core17optimized_scannerNtB4_16OptimizedScanner12cache_result0B6_
FN:292,_RNCNvMNtCs2kADRy9cGvI_18code_guardian_core17optimized_scannerNtB4_16OptimizedScanner12cache_results_0B6_
FN:131,_RNCNvMNtCs2kADRy9cGvI_18code_guardian_core17optimized_scannerNtB4_16OptimizedScanner14scan_optimized0B6_
FN:234,_RNCNvMNtCs2kADRy9cGvI_18code_guardian_core17optimized_scannerNtB4_16OptimizedScanner16should_scan_file0B6_
FN:52,_RNCNvMNtCs2kADRy9cGvI_18code_guardian_core17optimized_scannerNtB4_16OptimizedScanner22get_relevant_detectors0B6_
FN:61,_RNCNvMNtCs2kADRy9cGvI_18code_guardian_core17optimized_scannerNtB4_16OptimizedScanner22get_relevant_detectorss0_0B6_
FN:65,_RNCNvMNtCs2kADRy9cGvI_18code_guardian_core17optimized_scannerNtB4_16OptimizedScanner22get_relevant_detectorss1_0B6_
FN:69,_RNCNvMNtCs2kADRy9cGvI_18code_guardian_core17optimized_scannerNtB4_16OptimizedScanner22get_relevant_detectorss2_0B6_
FN:73,_RNCNvMNtCs2kADRy9cGvI_18code_guardian_core17optimized_scannerNtB4_16OptimizedScanner22get_relevant_detectorss3_0B6_
FN:77,_RNCNvMNtCs2kADRy9cGvI_18code_guardian_core17optimized_scannerNtB4_16OptimizedScanner22get_relevant_detectorss4_0B6_
FN:81,_RNCNvMNtCs2kADRy9cGvI_18code_guardian_core17optimized_scannerNtB4_16OptimizedScanner22get_relevant_detectorss5_0B6_
FN:85,_RNCNvMNtCs2kADRy9cGvI_18code_guardian_core17optimized_scannerNtB4_16OptimizedScanner22get_relevant_detectorss6_0B6_
FN:89,_RNCNvMNtCs2kADRy9cGvI_18code_guardian_core17optimized_scannerNtB4_16OptimizedScanner22get_relevant_detectorss7_0B6_
FN:93,_RNCNvMNtCs2kADRy9cGvI_18code_guardian_core17optimized_scannerNtB4_16OptimizedScanner22get_relevant_detectorss8_0B6_
FN:97,_RNCNvMNtCs2kADRy9cGvI_18code_guardian_core17optimized_scannerNtB4_16OptimizedScanner22get_relevant_detectorss9_0B6_
FN:57,_RNCNvMNtCs2kADRy9cGvI_18code_guardian_core17optimized_scannerNtB4_16OptimizedScanner22get_relevant_detectorss_0B6_
FN:571,_RNCNvMs0_NtCs2kADRy9cGvI_18code_guardian_core17optimized_scannerNtB7_15AdvancedScanner13scan_advanced0B9_
FN:753,_RNCNvMs0_NtCs2kADRy9cGvI_18code_guardian_core17optimized_scannerNtB7_15AdvancedScanner21cache_result_advanced0B9_
FN:765,_RNCNvMs0_NtCs2kADRy9cGvI_18code_guardian_core17optimized_scannerNtB7_15AdvancedScanner21cache_result_advanceds_0B9_
FN:537,_RNCNvMs0_NtCs2kADRy9cGvI_18code_guardian_core17optimized_scannerNtB7_15AdvancedScanner22get_relevant_detectors0B9_
FN:542,_RNCNvMs0_NtCs2kADRy9cGvI_18code_guardian_core17optimized_scannerNtB7_15AdvancedScanner22get_relevant_detectorss0_0B9_
FN:544,_RNCNvMs0_NtCs2kADRy9cGvI_18code_guardian_core17optimized_scannerNtB7_15AdvancedScanner22get_relevant_detectorss1_0B9_
FN:545,_RNCNvMs0_NtCs2kADRy9cGvI_18code_guardian_core17optimized_scannerNtB7_15AdvancedScanner22get_relevant_detectorss2_0B9_
FN:547,_RNCNvMs0_NtCs2kADRy9cGvI_18code_guardian_core17optimized_scannerNtB7_15AdvancedScanner22get_relevant_detectorss3_0B9_
FN:549,_RNCNvMs0_NtCs2kADRy9cGvI_18code_guardian_core17optimized_scannerNtB7_15AdvancedScanner22get_relevant_detectorss4_0B9_
FN:550,_RNCNvMs0_NtCs2kADRy9cGvI_18code_guardian_core17optimized_scannerNtB7_15AdvancedScanner22get_relevant_detectorss5_0B9_
FN:551,_RNCNvMs0_NtCs2kADRy9cGvI_18code_guardian_core17optimized_scannerNtB7_15AdvancedScanner22get_relevant_detectorss6_0B9_
FN:552,_RNCNvMs0_NtCs2kADRy9cGvI_18code_guardian_core17optimized_scannerNtB7_15AdvancedScanner22get_relevant_detectorss7_0B9_
FN:554,_RNCNvMs0_NtCs2kADRy9cGvI_18code_guardian_core17optimized_scannerNtB7_15AdvancedScanner22get_relevant_detectorss8_0B9_
FN:555,_RNCNvMs0_NtCs2kADRy9cGvI_18code_guardian_core17optimized_scannerNtB7_15AdvancedScanner22get_relevant_detectorss9_0B9_
FN:540,_RNCNvMs0_NtCs2kADRy9cGvI_18code_guardian_core17optimized_scannerNtB7_15AdvancedScanner22get_relevant_detectorss_0B9_
FN:688,_RNCNvMs0_NtCs2kADRy9cGvI_18code_guardian_core17optimized_scannerNtB7_15AdvancedScanner25should_scan_file_advanced0B9_
FN:457,_RNCNvMs_NtCs2kADRy9cGvI_18code_guardian_core17optimized_scannerNtB6_16StreamingScanner13process_batch0B8_
FN:505,_RNCNvMs_NtCs2kADRy9cGvI_18code_guardian_core17optimized_scannerNtB6_16StreamingScanner13process_batchs_0B8_
FN:329,_RNCNvMs_NtCs2kADRy9cGvI_18code_guardian_core17optimized_scannerNtB6_16StreamingScanner22get_relevant_detectors0B8_
FN:334,_RNCNvMs_NtCs2kADRy9cGvI_18code_guardian_core17optimized_scannerNtB6_16StreamingScanner22get_relevant_detectorss0_0B8_
FN:336,_RNCNvMs_NtCs2kADRy9cGvI_18code_guardian_core17optimized_scannerNtB6_16StreamingScanner22get_relevant_detectorss1_0B8_
FN:338,_RNCNvMs_NtCs2kADRy9cGvI_18code_guardian_core17optimized_scannerNtB6_16StreamingScanner22get_relevant_detectorss2_0B8_
FN:340,_RNCNvMs_NtCs2kADRy9cGvI_18code_guardian_core17optimized_scannerNtB6_16StreamingScanner22get_relevant_detectorss3_0B8_
FN:342,_RNCNvMs_NtCs2kADRy9cGvI_18code_guardian_core17optimized_scannerNtB6_16StreamingScanner22get_relevant_detectorss4_0B8_
FN:344,_RNCNvMs_NtCs2kADRy9cGvI_18code_guardian_core17optimized_scannerNtB6_16StreamingScanner22get_relevant_detectorss5_0B8_
FN:332,_RNCNvMs_NtCs2kADRy9cGvI_18code_guardian_core17optimized_scannerNtB6_16StreamingScanner22get_relevant_detectorss_0B8_
FN:382,_RNCNvMs_NtCs2kADRy9cGvI_18code_guardian_core17optimized_scannerNtB6_16StreamingScanner26should_scan_file_streaming0B8_
FN:400,_RINvMs_NtCs2kADRy9cGvI_18code_guardian_core17optimized_scannerNtB5_16StreamingScanner14scan_streamingpEB7_
FN:415,_RNCINvMs_NtCs2kADRy9cGvI_18code_guardian_core17optimized_scannerNtB7_16StreamingScanner14scan_streamingpE0B9_
FN:308,_RNvMNtCs2kADRy9cGvI_18code_guardian_core17optimized_scannerNtB2_16OptimizedScanner11cache_stats
FN:302,_RNvMNtCs2kADRy9cGvI_18code_guardian_core17optimized_scannerNtB2_16OptimizedScanner11clear_cache
FN:272,_RNvMNtCs2kADRy9cGvI_18code_guardian_core17optimized_scannerNtB2_16OptimizedScanner12cache_result
FN:119,_RNvMNtCs2kADRy9cGvI_18code_guardian_core17optimized_scannerNtB2_16OptimizedScanner14scan_optimized
FN:44,_RNvMNtCs2kADRy9cGvI_18code_guardian_core17optimized_scannerNtB2_16OptimizedScanner15with_cache_size
FN:201,_RNvMNtCs2kADRy9cGvI_18code_guardian_core17optimized_scannerNtB2_16OptimizedScanner16should_scan_file
FN:252,_RNvMNtCs2kADRy9cGvI_18code_guardian_core17optimized_scannerNtB2_16OptimizedScanner17get_cached_result
FN:103,_RNvMNtCs2kADRy9cGvI_18code_guardian_core17optimized_scannerNtB2_16OptimizedScanner17read_file_content
FN:51,_RNvMNtCs2kADRy9cGvI_18code_guardian_core17optimized_scannerNtB2_16OptimizedScanner22get_relevant_detectors
FN:34,_RNvMNtCs2kADRy9cGvI_18code_guardian_core17optimized_scannerNtB2_16OptimizedScanner3new
FN:560,_RNvMs0_NtCs2kADRy9cGvI_18code_guardian_core17optimized_scannerNtB5_15AdvancedScanner13scan_advanced
FN:781,_RNvMs0_NtCs2kADRy9cGvI_18code_guardian_core17optimized_scannerNtB5_15AdvancedScanner15with_cache_size
FN:775,_RNvMs0_NtCs2kADRy9cGvI_18code_guardian_core17optimized_scannerNtB5_15AdvancedScanner19with_memory_mapping
FN:746,_RNvMs0_NtCs2kADRy9cGvI_18code_guardian_core17optimized_scannerNtB5_15AdvancedScanner21cache_result_advanced
FN:536,_RNvMs0_NtCs2kADRy9cGvI_18code_guardian_core17optimized_scannerNtB5_15AdvancedScanner22get_relevant_detectors
FN:655,_RNvMs0_NtCs2kADRy9cGvI_18code_guardian_core17optimized_scannerNtB5_15AdvancedScanner25should_scan_file_advanced
FN:726,_RNvMs0_NtCs2kADRy9cGvI_18code_guardian_core17optimized_scannerNtB5_15AdvancedScanner26get_cached_result_advanced
FN:705,_RNvMs0_NtCs2kADRy9cGvI_18code_guardian_core17optimized_scannerNtB5_15AdvancedScanner26read_file_content_advanced
FN:523,_RNvMs0_NtCs2kADRy9cGvI_18code_guardian_core17optimized_scannerNtB5_15AdvancedScanner3new
FN:454,_RNvMs_NtCs2kADRy9cGvI_18code_guardian_core17optimized_scannerNtB4_16StreamingScanner13process_batch
FN:328,_RNvMs_NtCs2kADRy9cGvI_18code_guardian_core17optimized_scannerNtB4_16StreamingScanner22get_relevant_detectors
FN:349,_RNvMs_NtCs2kADRy9cGvI_18code_guardian_core17optimized_scannerNtB4_16StreamingScanner26should_scan_file_streaming
FN:320,_RNvMs_NtCs2kADRy9cGvI_18code_guardian_core17optimized_scannerNtB4_16StreamingScanner3new
FN:400,_RINvMs_NtCs2kADRy9cGvI_18code_guardian_core17optimized_scannerNtB5_16StreamingScanner14scan_streamingNCNvNtCsbqVo1DIGE6C_17code_guardian_cli9benchmark13run_benchmark0EB1H_
FN:415,_RNCINvMs_NtCs2kADRy9cGvI_18code_guardian_core17optimized_scannerNtB7_16StreamingScanner14scan_streamingNCNvNtCsbqVo1DIGE6C_17code_guardian_cli9benchmark13run_benchmark0E0B1J_
FN:400,_RINvMs_NtCscyrExoi8aIO_18code_guardian_core17optimized_scannerNtB5_16StreamingScanner14scan_streamingpEB7_
FN:415,_RNCINvMs_NtCscyrExoi8aIO_18code_guardian_core17optimized_scannerNtB7_16StreamingScanner14scan_streamingpE0B9_
FN:615,_RNCNCNvMs0_NtCscyrExoi8aIO_18code_guardian_core17optimized_scannerNtB9_15AdvancedScanner13scan_advanced00Bb_
FN:628,_RNCNCNvMs0_NtCscyrExoi8aIO_18code_guardian_core17optimized_scannerNtB9_15AdvancedScanner13scan_advanced0s0_0Bb_
FN:621,_RNCNCNvMs0_NtCscyrExoi8aIO_18code_guardian_core17optimized_scannerNtB9_15AdvancedScanner13scan_advanced0s_0Bb_
FN:491,_RNCNCNvMs_NtCscyrExoi8aIO_18code_guardian_core17optimized_scannerNtB8_16StreamingScanner13process_batch00Ba_
FN:497,_RNCNCNvMs_NtCscyrExoi8aIO_18code_guardian_core17optimized_scannerNtB8_16StreamingScanner13process_batch0s_0Ba_
FN:571,_RNCNvMs0_NtCscyrExoi8aIO_18code_guardian_core17optimized_scannerNtB7_15AdvancedScanner13scan_advanced0B9_
FN:753,_RNCNvMs0_NtCscyrExoi8aIO_18code_guardian_core17optimized_scannerNtB7_15AdvancedScanner21cache_result_advanced0B9_
FN:765,_RNCNvMs0_NtCscyrExoi8aIO_18code_guardian_core17optimized_scannerNtB7_15AdvancedScanner21cache_result_advanceds_0B9_
FN:537,_RNCNvMs0_NtCscyrExoi8aIO_18code_guardian_core17optimized_scannerNtB7_15AdvancedScanner22get_relevant_detectors0B9_
FN:542,_RNCNvMs0_NtCscyrExoi8aIO_18code_guardian_core17optimized_scannerNtB7_15AdvancedScanner22get_relevant_detectorss0_0B9_
FN:544,_RNCNvMs0_NtCscyrExoi8aIO_18code_guardian_core17optimized_scannerNtB7_15AdvancedScanner22get_relevant_detectorss1_0B9_
FN:545,_RNCNvMs0_NtCscyrExoi8aIO_18code_guardian_core17optimized_scannerNtB7_15AdvancedScanner22get_relevant_detectorss2_0B9_
FN:547,_RNCNvMs0_NtCscyrExoi8aIO_18code_guardian_core17optimized_scannerNtB7_15AdvancedScanner22get_relevant_detectorss3_0B9_
FN:549,_RNCNvMs0_NtCscyrExoi8aIO_18code_guardian_core17optimized_scannerNtB7_15AdvancedScanner22get_relevant_detectorss4_0B9_
FN:550,_RNCNvMs0_NtCscyrExoi8aIO_18code_guardian_core17optimized_scannerNtB7_15AdvancedScanner22get_relevant_detectorss5_0B9_
FN:551,_RNCNvMs0_NtCscyrExoi8aIO_18code_guardian_core17optimized_scannerNtB7_15AdvancedScanner22get_relevant_detectorss6_0B9_
FN:552,_RNCNvMs0_NtCscyrExoi8aIO_18code_guardian_core17optimized_scannerNtB7_15AdvancedScanner22get_relevant_detectorss7_0B9_
FN:554,_RNCNvMs0_NtCscyrExoi8aIO_18code_guardian_core17optimized_scannerNtB7_15AdvancedScanner22get_relevant_detectorss8_0B9_
FN:555,_RNCNvMs0_NtCscyrExoi8aIO_18code_guardian_core17optimized_scannerNtB7_15AdvancedScanner22get_relevant_detectorss9_0B9_
FN:540,_RNCNvMs0_NtCscyrExoi8aIO_18code_guardian_core17optimized_scannerNtB7_15AdvancedScanner22get_relevant_detectorss_0B9_
FN:688,_RNCNvMs0_NtCscyrExoi8aIO_18code_guardian_core17optimized_scannerNtB7_15AdvancedScanner25should_scan_file_advanced0B9_
FN:457,_RNCNvMs_NtCscyrExoi8aIO_18code_guardian_core17optimized_scannerNtB6_16StreamingScanner13process_batch0B8_
FN:505,_RNCNvMs_NtCscyrExoi8aIO_18code_guardian_core17optimized_scannerNtB6_16StreamingScanner13process_batchs_0B8_
FN:329,_RNCNvMs_NtCscyrExoi8aIO_18code_guardian_core17optimized_scannerNtB6_16StreamingScanner22get_relevant_detectors0B8_
FN:334,_RNCNvMs_NtCscyrExoi8aIO_18code_guardian_core17optimized_scannerNtB6_16StreamingScanner22get_relevant_detectorss0_0B8_
FN:336,_RNCNvMs_NtCscyrExoi8aIO_18code_guardian_core17optimized_scannerNtB6_16StreamingScanner22get_relevant_detectorss1_0B8_
FN:338,_RNCNvMs_NtCscyrExoi8aIO_18code_guardian_core17optimized_scannerNtB6_16StreamingScanner22get_relevant_detectorss2_0B8_
FN:340,_RNCNvMs_NtCscyrExoi8aIO_18code_guardian_core17optimized_scannerNtB6_16StreamingScanner22get_relevant_detectorss3_0B8_
FN:342,_RNCNvMs_NtCscyrExoi8aIO_18code_guardian_core17optimized_scannerNtB6_16StreamingScanner22get_relevant_detectorss4_0B8_
FN:344,_RNCNvMs_NtCscyrExoi8aIO_18code_guardian_core17optimized_scannerNtB6_16StreamingScanner22get_relevant_detectorss5_0B8_
FN:332,_RNCNvMs_NtCscyrExoi8aIO_18code_guardian_core17optimized_scannerNtB6_16StreamingScanner22get_relevant_detectorss_0B8_
FN:382,_RNCNvMs_NtCscyrExoi8aIO_18code_guardian_core17optimized_scannerNtB6_16StreamingScanner26should_scan_file_streaming0B8_
FN:308,_RNvMNtCscyrExoi8aIO_18code_guardian_core17optimized_scannerNtB2_16OptimizedScanner11cache_stats
FN:302,_RNvMNtCscyrExoi8aIO_18code_guardian_core17optimized_scannerNtB2_16OptimizedScanner11clear_cache
FN:44,_RNvMNtCscyrExoi8aIO_18code_guardian_core17optimized_scannerNtB2_16OptimizedScanner15with_cache_size
FN:560,_RNvMs0_NtCscyrExoi8aIO_18code_guardian_core17optimized_scannerNtB5_15AdvancedScanner13scan_advanced
FN:781,_RNvMs0_NtCscyrExoi8aIO_18code_guardian_core17optimized_scannerNtB5_15AdvancedScanner15with_cache_size
FN:775,_RNvMs0_NtCscyrExoi8aIO_18code_guardian_core17optimized_scannerNtB5_15AdvancedScanner19with_memory_mapping
FN:746,_RNvMs0_NtCscyrExoi8aIO_18code_guardian_core17optimized_scannerNtB5_15AdvancedScanner21cache_result_advanced
FN:536,_RNvMs0_NtCscyrExoi8aIO_18code_guardian_core17optimized_scannerNtB5_15AdvancedScanner22get_relevant_detectors
FN:655,_RNvMs0_NtCscyrExoi8aIO_18code_guardian_core17optimized_scannerNtB5_15AdvancedScanner25should_scan_file_advanced
FN:726,_RNvMs0_NtCscyrExoi8aIO_18code_guardian_core17optimized_scannerNtB5_15AdvancedScanner26get_cached_result_advanced
FN:705,_RNvMs0_NtCscyrExoi8aIO_18code_guardian_core17optimized_scannerNtB5_15AdvancedScanner26read_file_content_advanced
FN:523,_RNvMs0_NtCscyrExoi8aIO_18code_guardian_core17optimized_scannerNtB5_15AdvancedScanner3new
FN:454,_RNvMs_NtCscyrExoi8aIO_18code_guardian_core17optimized_scannerNtB4_16StreamingScanner13process_batch
FN:328,_RNvMs_NtCscyrExoi8aIO_18code_guardian_core17optimized_scannerNtB4_16StreamingScanner22get_relevant_detectors
FN:349,_RNvMs_NtCscyrExoi8aIO_18code_guardian_core17optimized_scannerNtB4_16StreamingScanner26should_scan_file_streaming
FN:320,_RNvMs_NtCscyrExoi8aIO_18code_guardian_core17optimized_scannerNtB4_16StreamingScanner3new
FN:811,_RNvNtNtCscyrExoi8aIO_18code_guardian_core17optimized_scanner5testss_12test_caching
FN:794,_RNvNtNtCscyrExoi8aIO_18code_guardian_core17optimized_scanner5testss_22test_optimized_scanner
FN:168,_RNCNCNvMNtCscyrExoi8aIO_18code_guardian_core17optimized_scannerNtB6_16OptimizedScanner14scan_optimized00B8_
FN:174,_RNCNCNvMNtCscyrExoi8aIO_18code_guardian_core17optimized_scannerNtB6_16OptimizedScanner14scan_optimized0s_0B8_
FN:280,_RNCNvMNtCscyrExoi8aIO_18code_guardian_core17optimized_scannerNtB4_16OptimizedScanner12cache_result0B6_
FN:292,_RNCNvMNtCscyrExoi8aIO_18code_guardian_core17optimized_scannerNtB4_16OptimizedScanner12cache_results_0B6_
FN:131,_RNCNvMNtCscyrExoi8aIO_18code_guardian_core17optimized_scannerNtB4_16OptimizedScanner14scan_optimized0B6_
FN:234,_RNCNvMNtCscyrExoi8aIO_18code_guardian_core17optimized_scannerNtB4_16OptimizedScanner16should_scan_file0B6_
FN:52,_RNCNvMNtCscyrExoi8aIO_18code_guardian_core17optimized_scannerNtB4_16OptimizedScanner22get_relevant_detectors0B6_
FN:61,_RNCNvMNtCscyrExoi8aIO_18code_guardian_core17optimized_scannerNtB4_16OptimizedScanner22get_relevant_detectorss0_0B6_
FN:65,_RNCNvMNtCscyrExoi8aIO_18code_guardian_core17optimized_scannerNtB4_16OptimizedScanner22get_relevant_detectorss1_0B6_
FN:69,_RNCNvMNtCscyrExoi8aIO_18code_guardian_core17optimized_scannerNtB4_16OptimizedScanner22get_relevant_detectorss2_0B6_
FN:73,_RNCNvMNtCscyrExoi8aIO_18code_guardian_core17optimized_scannerNtB4_16OptimizedScanner22get_relevant_detectorss3_0B6_
FN:77,_RNCNvMNtCscyrExoi8aIO_18code_guardian_core17optimized_scannerNtB4_16OptimizedScanner22get_relevant_detectorss4_0B6_
FN:81,_RNCNvMNtCscyrExoi8aIO_18code_guardian_core17optimized_scannerNtB4_16OptimizedScanner22get_relevant_detectorss5_0B6_
FN:85,_RNCNvMNtCscyrExoi8aIO_18code_guardian_core17optimized_scannerNtB4_16OptimizedScanner22get_relevant_detectorss6_0B6_
FN:89,_RNCNvMNtCscyrExoi8aIO_18code_guardian_core17optimized_scannerNtB4_16OptimizedScanner22get_relevant_detectorss7_0B6_
FN:93,_RNCNvMNtCscyrExoi8aIO_18code_guardian_core17optimized_scannerNtB4_16OptimizedScanner22get_relevant_detectorss8_0B6_
FN:97,_RNCNvMNtCscyrExoi8aIO_18code_guardian_core17optimized_scannerNtB4_16OptimizedScanner22get_relevant_detectorss9_0B6_
FN:57,_RNCNvMNtCscyrExoi8aIO_18code_guardian_core17optimized_scannerNtB4_16OptimizedScanner22get_relevant_detectorss_0B6_
FN:272,_RNvMNtCscyrExoi8aIO_18code_guardian_core17optimized_scannerNtB2_16OptimizedScanner12cache_result
FN:119,_RNvMNtCscyrExoi8aIO_18code_guardian_core17optimized_scannerNtB2_16OptimizedScanner14scan_optimized
FN:201,_RNvMNtCscyrExoi8aIO_18code_guardian_core17optimized_scannerNtB2_16OptimizedScanner16should_scan_file
FN:252,_RNvMNtCscyrExoi8aIO_18code_guardian_core17optimized_scannerNtB2_16OptimizedScanner17get_cached_result
FN:103,_RNvMNtCscyrExoi8aIO_18code_guardian_core17optimized_scannerNtB2_16OptimizedScanner17read_file_content
FN:51,_RNvMNtCscyrExoi8aIO_18code_guardian_core17optimized_scannerNtB2_16OptimizedScanner22get_relevant_detectors
FN:34,_RNvMNtCscyrExoi8aIO_18code_guardian_core17optimized_scannerNtB2_16OptimizedScanner3new
FN:400,_RINvMs_NtCs2kADRy9cGvI_18code_guardian_core17optimized_scannerNtB5_16StreamingScanner14scan_streamingNCNCNvNtCsbqVo1DIGE6C_17code_guardian_cli13scan_handlers11handle_scan0s0_0ECs9djzN8x3YgW_26integration_workflow_tests
FN:415,_RNCINvMs_NtCs2kADRy9cGvI_18code_guardian_core17optimized_scannerNtB7_16StreamingScanner14scan_streamingNCNCNvNtCsbqVo1DIGE6C_17code_guardian_cli13scan_handlers11handle_scan0s0_0E0Cs9djzN8x3YgW_26integration_workflow_tests
FNDA:0,_RINvMs_NtCs2kADRy9cGvI_18code_guardian_core17optimized_scannerNtB5_16StreamingScanner14scan_streamingNCNCNvNtCsgJXiKT19grP_17code_guardian_cli13scan_handlers11handle_scan0s0_0EB1J_
FNDA:0,_RINvMs_NtCs2kADRy9cGvI_18code_guardian_core17optimized_scannerNtB5_16StreamingScanner14scan_streamingNCNvNtCsgJXiKT19grP_17code_guardian_cli9benchmark13run_benchmark0EB1H_
FNDA:0,_RNCINvMs_NtCs2kADRy9cGvI_18code_guardian_core17optimized_scannerNtB7_16StreamingScanner14scan_streamingNCNCNvNtCsgJXiKT19grP_17code_guardian_cli13scan_handlers11handle_scan0s0_0E0B1L_
FNDA:0,_RNCINvMs_NtCs2kADRy9cGvI_18code_guardian_core17optimized_scannerNtB7_16StreamingScanner14scan_streamingNCNvNtCsgJXiKT19grP_17code_guardian_cli9benchmark13run_benchmark0E0B1J_
FNDA:0,_RNCNCNvMNtCs2kADRy9cGvI_18code_guardian_core17optimized_scannerNtB6_16OptimizedScanner14scan_optimized00B8_
FNDA:6,_RNCNCNvMNtCs2kADRy9cGvI_18code_guardian_core17optimized_scannerNtB6_16OptimizedScanner14scan_optimized0s_0B8_
FNDA:0,_RNCNCNvMs0_NtCs2kADRy9cGvI_18code_guardian_core17optimized_scannerNtB9_15AdvancedScanner13scan_advanced00Bb_
FNDA:0,_RNCNCNvMs0_NtCs2kADRy9cGvI_18code_guardian_core17optimized_scannerNtB9_15AdvancedScanner13scan_advanced0s0_0Bb_
FNDA:0,_RNCNCNvMs0_NtCs2kADRy9cGvI_18code_guardian_core17optimized_scannerNtB9_15AdvancedScanner13scan_advanced0s_0Bb_
FNDA:3,_RNCNCNvMs_NtCs2kADRy9cGvI_18code_guardian_core17optimized_scannerNtB8_16StreamingScanner13process_batch00Ba_
FNDA:405,_RNCNCNvMs_NtCs2kADRy9cGvI_18code_guardian_core17optimized_scannerNtB8_16StreamingScanner13process_batch0s_0Ba_
FNDA:0,_RNCNvMNtCs2kADRy9cGvI_18code_guardian_core17optimized_scannerNtB4_16OptimizedScanner12cache_result0B6_
FNDA:3,_RNCNvMNtCs2kADRy9cGvI_18code_guardian_core17optimized_scannerNtB4_16OptimizedScanner12cache_results_0B6_
FNDA:9,_RNCNvMNtCs2kADRy9cGvI_18code_guardian_core17optimized_scannerNtB4_16OptimizedScanner14scan_optimized0B6_
FNDA:3,_RNCNvMNtCs2kADRy9cGvI_18code_guardian_core17optimized_scannerNtB4_16OptimizedScanner16should_scan_file0B6_
FNDA:3,_RNCNvMNtCs2kADRy9cGvI_18code_guardian_core17optimized_scannerNtB4_16OptimizedScanner22get_relevant_detectors0B6_
FNDA:0,_RNCNvMNtCs2kADRy9cGvI_18code_guardian_core17optimized_scannerNtB4_16OptimizedScanner22get_relevant_detectorss0_0B6_
FNDA:0,_RNCNvMNtCs2kADRy9cGvI_18code_guardian_core17optimized_scannerNtB4_16OptimizedScanner22get_relevant_detectorss1_0B6_
FNDA:0,_RNCNvMNtCs2kADRy9cGvI_18code_guardian_core17optimized_scannerNtB4_16OptimizedScanner22get_relevant_detectorss2_0B6_
FNDA:0,_RNCNvMNtCs2kADRy9cGvI_18code_guardian_core17optimized_scannerNtB4_16OptimizedScanner22get_relevant_detectorss3_0B6_
FNDA:0,_RNCNvMNtCs2kADRy9cGvI_18code_guardian_core17optimized_scannerNtB4_16OptimizedScanner22get_relevant_detectorss4_0B6_
FNDA:0,_RNCNvMNtCs2kADRy9cGvI_18code_guardian_core17optimized_scannerNtB4_16OptimizedScanner22get_relevant_detectorss5_0B6_
FNDA:0,_RNCNvMNtCs2kADRy9cGvI_18code_guardian_core17optimized_scannerNtB4_16OptimizedScanner22get_relevant_detectorss6_0B6_
FNDA:0,_RNCNvMNtCs2kADRy9cGvI_18code_guardian_core17optimized_scannerNtB4_16OptimizedScanner22get_relevant_detectorss7_0B6_
FNDA:0,_RNCNvMNtCs2kADRy9cGvI_18code_guardian_core17optimized_scannerNtB4_16OptimizedScanner22get_relevant_detectorss8_0B6_
FNDA:0,_RNCNvMNtCs2kADRy9cGvI_18code_guardian_core17optimized_scannerNtB4_16OptimizedScanner22get_relevant_detectorss9_0B6_
FNDA:6,_RNCNvMNtCs2kADRy9cGvI_18code_guardian_core17optimized_scannerNtB4_16OptimizedScanner22get_relevant_detectorss_0B6_
FNDA:0,_RNCNvMs0_NtCs2kADRy9cGvI_18code_guardian_core17optimized_scannerNtB7_15AdvancedScanner13scan_advanced0B9_
FNDA:0,_RNCNvMs0_NtCs2kADRy9cGvI_18code_guardian_core17optimized_scannerNtB7_15AdvancedScanner21cache_result_advanced0B9_
FNDA:0,_RNCNvMs0_NtCs2kADRy9cGvI_18code_guardian_core17optimized_scannerNtB7_15AdvancedScanner21cache_result_advanceds_0B9_
FNDA:0,_RNCNvMs0_NtCs2kADRy9cGvI_18code_guardian_core17optimized_scannerNtB7_15AdvancedScanner22get_relevant_detectors0B9_
FNDA:0,_RNCNvMs0_NtCs2kADRy9cGvI_18code_guardian_core17optimized_scannerNtB7_15AdvancedScanner22get_relevant_detectorss0_0B9_
FNDA:0,_RNCNvMs0_NtCs2kADRy9cGvI_18code_guardian_core17optimized_scannerNtB7_15AdvancedScanner22get_relevant_detectorss1_0B9_
FNDA:0,_RNCNvMs0_NtCs2kADRy9cGvI_18code_guardian_core17optimized_scannerNtB7_15AdvancedScanner22get_relevant_detectorss2_0B9_
FNDA:0,_RNCNvMs0_NtCs2kADRy9cGvI_18code_guardian_core17optimized_scannerNtB7_15AdvancedScanner22get_relevant_detectorss3_0B9_
FNDA:0,_RNCNvMs0_NtCs2kADRy9cGvI_18code_guardian_core17optimized_scannerNtB7_15AdvancedScanner22get_relevant_detectorss4_0B9_
FNDA:0,_RNCNvMs0_NtCs2kADRy9cGvI_18code_guardian_core17optimized_scannerNtB7_15AdvancedScanner22get_relevant_detectorss5_0B9_
FNDA:0,_RNCNvMs0_NtCs2kADRy9cGvI_18code_guardian_core17optimized_scannerNtB7_15AdvancedScanner22get_relevant_detectorss6_0B9_
FNDA:0,_RNCNvMs0_NtCs2kADRy9cGvI_18code_guardian_core17optimized_scannerNtB7_15AdvancedScanner22get_relevant_detectorss7_0B9_
FNDA:0,_RNCNvMs0_NtCs2kADRy9cGvI_18code_guardian_core17optimized_scannerNtB7_15AdvancedScanner22get_relevant_detectorss8_0B9_
FNDA:0,_RNCNvMs0_NtCs2kADRy9cGvI_18code_guardian_core17optimized_scannerNtB7_15AdvancedScanner22get_relevant_detectorss9_0B9_
FNDA:0,_RNCNvMs0_NtCs2kADRy9cGvI_18code_guardian_core17optimized_scannerNtB7_15AdvancedScanner22get_relevant_detectorss_0B9_
FNDA:0,_RNCNvMs0_NtCs2kADRy9cGvI_18code_guardian_core17optimized_scannerNtB7_15AdvancedScanner25should_scan_file_advanced0B9_
FNDA:16,_RNCNvMs_NtCs2kADRy9cGvI_18code_guardian_core17optimized_scannerNtB6_16StreamingScanner13process_batch0B8_
FNDA:16,_RNCNvMs_NtCs2kADRy9cGvI_18code_guardian_core17optimized_scannerNtB6_16StreamingScanner13process_batchs_0B8_
FNDA:16,_RNCNvMs_NtCs2kADRy9cGvI_18code_guardian_core17optimized_scannerNtB6_16StreamingScanner22get_relevant_detectors0B8_
FNDA:0,_RNCNvMs_NtCs2kADRy9cGvI_18code_guardian_core17optimized_scannerNtB6_16StreamingScanner22get_relevant_detectorss0_0B8_
FNDA:0,_RNCNvMs_NtCs2kADRy9cGvI_18code_guardian_core17optimized_scannerNtB6_16StreamingScanner22get_relevant_detectorss1_0B8_
FNDA:0,_RNCNvMs_NtCs2kADRy9cGvI_18code_guardian_core17optimized_scannerNtB6_16StreamingScanner22get_relevant_detectorss2_0B8_
FNDA:0,_RNCNvMs_NtCs2kADRy9cGvI_18code_guardian_core17optimized_scannerNtB6_16StreamingScanner22get_relevant_detectorss3_0B8_
FNDA:0,_RNCNvMs_NtCs2kADRy9cGvI_18code_guardian_core17optimized_scannerNtB6_16StreamingScanner22get_relevant_detectorss4_0B8_
FNDA:0,_RNCNvMs_NtCs2kADRy9cGvI_18code_guardian_core17optimized_scannerNtB6_16StreamingScanner22get_relevant_detectorss5_0B8_
FNDA:408,_RNCNvMs_NtCs2kADRy9cGvI_18code_guardian_core17optimized_scannerNtB6_16StreamingScanner22get_relevant_detectorss_0B8_
FNDA:16,_RNCNvMs_NtCs2kADRy9cGvI_18code_guardian_core17optimized_scannerNtB6_16StreamingScanner26should_scan_file_streaming0B8_
FNDA:0,_RINvMs_NtCs2kADRy9cGvI_18code_guardian_core17optimized_scannerNtB5_16StreamingScanner14scan_streamingpEB7_
FNDA:0,_RNCINvMs_NtCs2kADRy9cGvI_18code_guardian_core17optimized_scannerNtB7_16StreamingScanner14scan_streamingpE0B9_
FNDA:0,_RNvMNtCs2kADRy9cGvI_18code_guardian_core17optimized_scannerNtB2_16OptimizedScanner11cache_stats
FNDA:0,_RNvMNtCs2kADRy9cGvI_18code_guardian_core17optimized_scannerNtB2_16OptimizedScanner11clear_cache
FNDA:3,_RNvMNtCs2kADRy9cGvI_18code_guardian_core17optimized_scannerNtB2_16OptimizedScanner12cache_result
FNDA:4,_RNvMNtCs2kADRy9cGvI_18code_guardian_core17optimized_scannerNtB2_16OptimizedScanner14scan_optimized
FNDA:3,_RNvMNtCs2kADRy9cGvI_18code_guardian_core17optimized_scannerNtB2_16OptimizedScanner15with_cache_size
FNDA:5,_RNvMNtCs2kADRy9cGvI_18code_guardian_core17optimized_scannerNtB2_16OptimizedScanner16should_scan_file
FNDA:3,_RNvMNtCs2kADRy9cGvI_18code_guardian_core17optimized_scannerNtB2_16OptimizedScanner17get_cached_result
FNDA:3,_RNvMNtCs2kADRy9cGvI_18code_guardian_core17optimized_scannerNtB2_16OptimizedScanner17read_file_content
FNDA:3,_RNvMNtCs2kADRy9cGvI_18code_guardian_core17optimized_scannerNtB2_16OptimizedScanner22get_relevant_detectors
FNDA:4,_RNvMNtCs2kADRy9cGvI_18code_guardian_core17optimized_scannerNtB2_16OptimizedScanner3new
FNDA:0,_RNvMs0_NtCs2kADRy9cGvI_18code_guardian_core17optimized_scannerNtB5_15AdvancedScanner13scan_advanced
FNDA:0,_RNvMs0_NtCs2kADRy9cGvI_18code_guardian_core17optimized_scannerNtB5_15AdvancedScanner15with_cache_size
FNDA:0,_RNvMs0_NtCs2kADRy9cGvI_18code_guardian_core17optimized_scannerNtB5_15AdvancedScanner19with_memory_mapping
FNDA:0,_RNvMs0_NtCs2kADRy9cGvI_18code_guardian_core17optimized_scannerNtB5_15AdvancedScanner21cache_result_advanced
FNDA:0,_RNvMs0_NtCs2kADRy9cGvI_18code_guardian_core17optimized_scannerNtB5_15AdvancedScanner22get_relevant_detectors
FNDA:0,_RNvMs0_NtCs2kADRy9cGvI_18code_guardian_core17optimized_scannerNtB5_15AdvancedScanner25should_scan_file_advanced
FNDA:0,_RNvMs0_NtCs2kADRy9cGvI_18code_guardian_core17optimized_scannerNtB5_15AdvancedScanner26get_cached_result_advanced
FNDA:0,_RNvMs0_NtCs2kADRy9cGvI_18code_guardian_core17optimized_scannerNtB5_15AdvancedScanner26read_file_content_advanced
FNDA:0,_RNvMs0_NtCs2kADRy9cGvI_18code_guardian_core17optimized_scannerNtB5_15AdvancedScanner3new
FNDA:2,_RNvMs_NtCs2kADRy9cGvI_18code_guardian_core17optimized_scannerNtB4_16StreamingScanner13process_batch
FNDA:16,_RNvMs_NtCs2kADRy9cGvI_18code_guardian_core17optimized_scannerNtB4_16StreamingScanner22get_relevant_detectors
FNDA:18,_RNvMs_NtCs2kADRy9cGvI_18code_guardian_core17optimized_scannerNtB4_16StreamingScanner26should_scan_file_streaming
FNDA:3,_RNvMs_NtCs2kADRy9cGvI_18code_guardian_core17optimized_scannerNtB4_16StreamingScanner3new
FNDA:1,_RINvMs_NtCs2kADRy9cGvI_18code_guardian_core17optimized_scannerNtB5_16StreamingScanner14scan_streamingNCNvNtCsbqVo1DIGE6C_17code_guardian_cli9benchmark13run_benchmark0EB1H_
FNDA:0,_RNCINvMs_NtCs2kADRy9cGvI_18code_guardian_core17optimized_scannerNtB7_16StreamingScanner14scan_streamingNCNvNtCsbqVo1DIGE6C_17code_guardian_cli9benchmark13run_benchmark0E0B1J_
FNDA:0,_RINvMs_NtCscyrExoi8aIO_18code_guardian_core17optimized_scannerNtB5_16StreamingScanner14scan_streamingpEB7_
FNDA:0,_RNCINvMs_NtCscyrExoi8aIO_18code_guardian_core17optimized_scannerNtB7_16StreamingScanner14scan_streamingpE0B9_
FNDA:0,_RNCNCNvMs0_NtCscyrExoi8aIO_18code_guardian_core17optimized_scannerNtB9_15AdvancedScanner13scan_advanced00Bb_
FNDA:0,_RNCNCNvMs0_NtCscyrExoi8aIO_18code_guardian_core17optimized_scannerNtB9_15AdvancedScanner13scan_advanced0s0_0Bb_
FNDA:0,_RNCNCNvMs0_NtCscyrExoi8aIO_18code_guardian_core17optimized_scannerNtB9_15AdvancedScanner13scan_advanced0s_0Bb_
FNDA:0,_RNCNCNvMs_NtCscyrExoi8aIO_18code_guardian_core17optimized_scannerNtB8_16StreamingScanner13process_batch00Ba_
FNDA:0,_RNCNCNvMs_NtCscyrExoi8aIO_18code_guardian_core17optimized_scannerNtB8_16StreamingScanner13process_batch0s_0Ba_
FNDA:0,_RNCNvMs0_NtCscyrExoi8aIO_18code_guardian_core17optimized_scannerNtB7_15AdvancedScanner13scan_advanced0B9_
FNDA:0,_RNCNvMs0_NtCscyrExoi8aIO_18code_guardian_core17optimized_scannerNtB7_15AdvancedScanner21cache_result_advanced0B9_
FNDA:0,_RNCNvMs0_NtCscyrExoi8aIO_18code_guardian_core17optimized_scannerNtB7_15AdvancedScanner21cache_result_advanceds_0B9_
FNDA:0,_RNCNvMs0_NtCscyrExoi8aIO_18code_guardian_core17optimized_scannerNtB7_15AdvancedScanner22get_relevant_detectors0B9_
FNDA:0,_RNCNvMs0_NtCscyrExoi8aIO_18code_guardian_core17optimized_scannerNtB7_15AdvancedScanner22get_relevant_detectorss0_0B9_
FNDA:0,_RNCNvMs0_NtCscyrExoi8aIO_18code_guardian_core17optimized_scannerNtB7_15AdvancedScanner22get_relevant_detectorss1_0B9_
FNDA:0,_RNCNvMs0_NtCscyrExoi8aIO_18code_guardian_core17optimized_scannerNtB7_15AdvancedScanner22get_relevant_detectorss2_0B9_
FNDA:0,_RNCNvMs0_NtCscyrExoi8aIO_18code_guardian_core17optimized_scannerNtB7_15AdvancedScanner22get_relevant_detectorss3_0B9_
FNDA:0,_RNCNvMs0_NtCscyrExoi8aIO_18code_guardian_core17optimized_scannerNtB7_15AdvancedScanner22get_relevant_detectorss4_0B9_
FNDA:0,_RNCNvMs0_NtCscyrExoi8aIO_18code_guardian_core17optimized_scannerNtB7_15AdvancedScanner22get_relevant_detectorss5_0B9_
FNDA:0,_RNCNvMs0_NtCscyrExoi8aIO_18code_guardian_core17optimized_scannerNtB7_15AdvancedScanner22get_relevant_detectorss6_0B9_
FNDA:0,_RNCNvMs0_NtCscyrExoi8aIO_18code_guardian_core17optimized_scannerNtB7_15AdvancedScanner22get_relevant_detectorss7_0B9_
FNDA:0,_RNCNvMs0_NtCscyrExoi8aIO_18code_guardian_core17optimized_scannerNtB7_15AdvancedScanner22get_relevant_detectorss8_0B9_
FNDA:0,_RNCNvMs0_NtCscyrExoi8aIO_18code_guardian_core17optimized_scannerNtB7_15AdvancedScanner22get_relevant_detectorss9_0B9_
FNDA:0,_RNCNvMs0_NtCscyrExoi8aIO_18code_guardian_core17optimized_scannerNtB7_15AdvancedScanner22get_relevant_detectorss_0B9_
FNDA:0,_RNCNvMs0_NtCscyrExoi8aIO_18code_guardian_core17optimized_scannerNtB7_15AdvancedScanner25should_scan_file_advanced0B9_
FNDA:0,_RNCNvMs_NtCscyrExoi8aIO_18code_guardian_core17optimized_scannerNtB6_16StreamingScanner13process_batch0B8_
FNDA:0,_RNCNvMs_NtCscyrExoi8aIO_18code_guardian_core17optimized_scannerNtB6_16StreamingScanner13process_batchs_0B8_
FNDA:0,_RNCNvMs_NtCscyrExoi8aIO_18code_guardian_core17optimized_scannerNtB6_16StreamingScanner22get_relevant_detectors0B8_
FNDA:0,_RNCNvMs_NtCscyrExoi8aIO_18code_guardian_core17optimized_scannerNtB6_16StreamingScanner22get_relevant_detectorss0_0B8_
FNDA:0,_RNCNvMs_NtCscyrExoi8aIO_18code_guardian_core17optimized_scannerNtB6_16StreamingScanner22get_relevant_detectorss1_0B8_
FNDA:0,_RNCNvMs_NtCscyrExoi8aIO_18code_guardian_core17optimized_scannerNtB6_16StreamingScanner22get_relevant_detectorss2_0B8_
FNDA:0,_RNCNvMs_NtCscyrExoi8aIO_18code_guardian_core17optimized_scannerNtB6_16StreamingScanner22get_relevant_detectorss3_0B8_
FNDA:0,_RNCNvMs_NtCscyrExoi8aIO_18code_guardian_core17optimized_scannerNtB6_16StreamingScanner22get_relevant_detectorss4_0B8_
FNDA:0,_RNCNvMs_NtCscyrExoi8aIO_18code_guardian_core17optimized_scannerNtB6_16StreamingScanner22get_relevant_detectorss5_0B8_
FNDA:0,_RNCNvMs_NtCscyrExoi8aIO_18code_guardian_core17optimized_scannerNtB6_16StreamingScanner22get_relevant_detectorss_0B8_
FNDA:0,_RNCNvMs_NtCscyrExoi8aIO_18code_guardian_core17optimized_scannerNtB6_16StreamingScanner26should_scan_file_streaming0B8_
FNDA:0,_RNvMNtCscyrExoi8aIO_18code_guardian_core17optimized_scannerNtB2_16OptimizedScanner11cache_stats
FNDA:0,_RNvMNtCscyrExoi8aIO_18code_guardian_core17optimized_scannerNtB2_16OptimizedScanner11clear_cache
FNDA:0,_RNvMNtCscyrExoi8aIO_18code_guardian_core17optimized_scannerNtB2_16OptimizedScanner15with_cache_size
FNDA:0,_RNvMs0_NtCscyrExoi8aIO_18code_guardian_core17optimized_scannerNtB5_15AdvancedScanner13scan_advanced
FNDA:0,_RNvMs0_NtCscyrExoi8aIO_18code_guardian_core17optimized_scannerNtB5_15AdvancedScanner15with_cache_size
FNDA:0,_RNvMs0_NtCscyrExoi8aIO_18code_guardian_core17optimized_scannerNtB5_15AdvancedScanner19with_memory_mapping
FNDA:0,_RNvMs0_NtCscyrExoi8aIO_18code_guardian_core17optimized_scannerNtB5_15AdvancedScanner21cache_result_advanced
FNDA:0,_RNvMs0_NtCscyrExoi8aIO_18code_guardian_core17optimized_scannerNtB5_15AdvancedScanner22get_relevant_detectors
FNDA:0,_RNvMs0_NtCscyrExoi8aIO_18code_guardian_core17optimized_scannerNtB5_15AdvancedScanner25should_scan_file_advanced
FNDA:0,_RNvMs0_NtCscyrExoi8aIO_18code_guardian_core17optimized_scannerNtB5_15AdvancedScanner26get_cached_result_advanced
FNDA:0,_RNvMs0_NtCscyrExoi8aIO_18code_guardian_core17optimized_scannerNtB5_15AdvancedScanner26read_file_content_advanced
FNDA:0,_RNvMs0_NtCscyrExoi8aIO_18code_guardian_core17optimized_scannerNtB5_15AdvancedScanner3new
FNDA:0,_RNvMs_NtCscyrExoi8aIO_18code_guardian_core17optimized_scannerNtB4_16StreamingScanner13process_batch
FNDA:0,_RNvMs_NtCscyrExoi8aIO_18code_guardian_core17optimized_scannerNtB4_16StreamingScanner22get_relevant_detectors
FNDA:0,_RNvMs_NtCscyrExoi8aIO_18code_guardian_core17optimized_scannerNtB4_16StreamingScanner26should_scan_file_streaming
FNDA:0,_RNvMs_NtCscyrExoi8aIO_18code_guardian_core17optimized_scannerNtB4_16StreamingScanner3new
FNDA:1,_RNvNtNtCscyrExoi8aIO_18code_guardian_core17optimized_scanner5testss_12test_caching
FNDA:1,_RNvNtNtCscyrExoi8aIO_18code_guardian_core17optimized_scanner5testss_22test_optimized_scanner
FNDA:0,_RNCNCNvMNtCscyrExoi8aIO_18code_guardian_core17optimized_scannerNtB6_16OptimizedScanner14scan_optimized00B8_
FNDA:3,_RNCNCNvMNtCscyrExoi8aIO_18code_guardian_core17optimized_scannerNtB6_16OptimizedScanner14scan_optimized0s_0B8_
FNDA:0,_RNCNvMNtCscyrExoi8aIO_18code_guardian_core17optimized_scannerNtB4_16OptimizedScanner12cache_result0B6_
FNDA:2,_RNCNvMNtCscyrExoi8aIO_18code_guardian_core17optimized_scannerNtB4_16OptimizedScanner12cache_results_0B6_
FNDA:6,_RNCNvMNtCscyrExoi8aIO_18code_guardian_core17optimized_scannerNtB4_16OptimizedScanner14scan_optimized0B6_
FNDA:3,_RNCNvMNtCscyrExoi8aIO_18code_guardian_core17optimized_scannerNtB4_16OptimizedScanner16should_scan_file0B6_
FNDA:2,_RNCNvMNtCscyrExoi8aIO_18code_guardian_core17optimized_scannerNtB4_16OptimizedScanner22get_relevant_detectors0B6_
FNDA:0,_RNCNvMNtCscyrExoi8aIO_18code_guardian_core17optimized_scannerNtB4_16OptimizedScanner22get_relevant_detectorss0_0B6_
FNDA:0,_RNCNvMNtCscyrExoi8aIO_18code_guardian_core17optimized_scannerNtB4_16OptimizedScanner22get_relevant_detectorss1_0B6_
FNDA:0,_RNCNvMNtCscyrExoi8aIO_18code_guardian_core17optimized_scannerNtB4_16OptimizedScanner22get_relevant_detectorss2_0B6_
FNDA:0,_RNCNvMNtCscyrExoi8aIO_18code_guardian_core17optimized_scannerNtB4_16OptimizedScanner22get_relevant_detectorss3_0B6_
FNDA:0,_RNCNvMNtCscyrExoi8aIO_18code_guardian_core17optimized_scannerNtB4_16OptimizedScanner22get_relevant_detectorss4_0B6_
FNDA:0,_RNCNvMNtCscyrExoi8aIO_18code_guardian_core17optimized_scannerNtB4_16OptimizedScanner22get_relevant_detectorss5_0B6_
FNDA:0,_RNCNvMNtCscyrExoi8aIO_18code_guardian_core17optimized_scannerNtB4_16OptimizedScanner22get_relevant_detectorss6_0B6_
FNDA:0,_RNCNvMNtCscyrExoi8aIO_18code_guardian_core17optimized_scannerNtB4_16OptimizedScanner22get_relevant_detectorss7_0B6_
FNDA:0,_RNCNvMNtCscyrExoi8aIO_18code_guardian_core17optimized_scannerNtB4_16OptimizedScanner22get_relevant_detectorss8_0B6_
FNDA:0,_RNCNvMNtCscyrExoi8aIO_18code_guardian_core17optimized_scannerNtB4_16OptimizedScanner22get_relevant_detectorss9_0B6_
FNDA:3,_RNCNvMNtCscyrExoi8aIO_18code_guardian_core17optimized_scannerNtB4_16OptimizedScanner22get_relevant_detectorss_0B6_
FNDA:2,_RNvMNtCscyrExoi8aIO_18code_guardian_core17optimized_scannerNtB2_16OptimizedScanner12cache_result
FNDA:3,_RNvMNtCscyrExoi8aIO_18code_guardian_core17optimized_scannerNtB2_16OptimizedScanner14scan_optimized
FNDA:3,_RNvMNtCscyrExoi8aIO_18code_guardian_core17optimized_scannerNtB2_16OptimizedScanner16should_scan_file
FNDA:3,_RNvMNtCscyrExoi8aIO_18code_guardian_core17optimized_scannerNtB2_16OptimizedScanner17get_cached_result
FNDA:2,_RNvMNtCscyrExoi8aIO_18code_guardian_core17optimized_scannerNtB2_16OptimizedScanner17read_file_content
FNDA:2,_RNvMNtCscyrExoi8aIO_18code_guardian_core17optimized_scannerNtB2_16OptimizedScanner22get_relevant_detectors
FNDA:2,_RNvMNtCscyrExoi8aIO_18code_guardian_core17optimized_scannerNtB2_16OptimizedScanner3new
FNDA:2,_RINvMs_NtCs2kADRy9cGvI_18code_guardian_core17optimized_scannerNtB5_16StreamingScanner14scan_streamingNCNCNvNtCsbqVo1DIGE6C_17code_guardian_cli13scan_handlers11handle_scan0s0_0ECs9djzN8x3YgW_26integration_workflow_tests
FNDA:21,_RNCINvMs_NtCs2kADRy9cGvI_18code_guardian_core17optimized_scannerNtB7_16StreamingScanner14scan_streamingNCNCNvNtCsbqVo1DIGE6C_17code_guardian_cli13scan_handlers11handle_scan0s0_0E0Cs9djzN8x3YgW_26integration_workflow_tests
FNF:77
FNH:29
DA:34,6
DA:35,6
DA:36,6
DA:37,6
DA:38,6
DA:39,6
DA:40,6
DA:41,6
DA:44,3
DA:45,3
DA:46,3
DA:47,3
DA:51,5
DA:52,5
DA:54,5
DA:55,5
DA:57,9
DA:59,0
DA:61,0
DA:63,0
DA:65,0
DA:67,0
DA:69,0
DA:71,0
DA:73,0
DA:75,0
DA:77,0
DA:79,0
DA:81,0
DA:83,0
DA:85,0
DA:87,0
DA:89,0
DA:91,0
DA:93,0
DA:97,0
DA:100,5
DA:103,5
DA:104,5
DA:106,5
DA:108,0
DA:109,0
DA:110,0
DA:111,0
DA:114,5
DA:116,5
DA:119,7
DA:120,7
DA:121,7
DA:122,7
DA:123,7
DA:124,7
DA:127,7
DA:128,7
DA:129,7
DA:130,7
DA:131,15
DA:132,15
DA:133,14
DA:135,14
DA:136,6
DA:137,8
DA:139,8
DA:142,8
DA:143,2
DA:144,6
DA:146,6
DA:148,6
DA:151,6
DA:152,1
DA:153,1
DA:154,5
DA:156,5
DA:159,5
DA:160,5
DA:163,5
DA:164,5
DA:166,0
DA:167,0
DA:168,0
DA:169,0
DA:172,5
DA:173,5
DA:174,9
DA:175,5
DA:179,5
DA:181,5
DA:182,15
DA:183,7
DA:184,7
DA:186,7
DA:188,7
DA:189,7
DA:190,7
DA:191,7
DA:192,7
DA:193,7
DA:194,7
DA:195,7
DA:197,7
DA:198,7
DA:201,8
DA:203,8
DA:204,8
DA:205,8
DA:206,8
DA:207,8
DA:208,8
DA:209,8
DA:210,8
DA:212,0
DA:213,8
DA:214,0
DA:217,8
DA:218,8
DA:219,0
DA:220,8
DA:221,0
DA:224,8
DA:225,8
DA:226,8
DA:227,8
DA:228,2
DA:229,6
DA:230,0
DA:231,0
DA:234,6
DA:235,6
DA:237,6
DA:239,6
DA:241,6
DA:243,6
DA:244,6
DA:246,0
DA:248,6
DA:249,8
DA:252,6
DA:253,6
DA:254,6
DA:255,6
DA:256,1
DA:257,1
DA:258,1
DA:259,1
DA:260,1
DA:262,1
DA:263,1
DA:264,0
DA:265,5
DA:266,0
DA:267,0
DA:268,5
DA:269,6
DA:272,5
DA:274,5
DA:276,0
DA:277,0
DA:278,0
DA:279,0
DA:280,0
DA:281,0
DA:283,0
DA:284,0
DA:285,0
DA:286,5
DA:288,5
DA:289,5
DA:290,5
DA:291,5
DA:292,5
DA:293,5
DA:295,5
DA:296,5
DA:297,0
DA:298,0
DA:299,5
DA:302,0
DA:303,0
DA:304,0
DA:305,0
DA:308,0
DA:309,0
DA:310,0
DA:320,3
DA:321,3
DA:322,3
DA:323,3
DA:324,3
DA:325,3
DA:328,16
DA:329,16
DA:331,16
DA:332,408
DA:333,0
DA:334,0
DA:336,0
DA:337,0
DA:338,0
DA:340,0
DA:341,0
DA:342,0
DA:344,0
DA:346,16
DA:349,18
DA:351,18
DA:352,18
DA:353,18
DA:354,18
DA:355,18
DA:356,18
DA:357,18
DA:358,18
DA:360,0
DA:361,18
DA:362,0
DA:365,18
DA:366,18
DA:367,0
DA:368,18
DA:369,0
DA:372,18
DA:373,18
DA:374,18
DA:375,18
DA:376,2
DA:377,16
DA:378,0
DA:379,0
DA:382,16
DA:383,16
DA:385,16
DA:387,16
DA:389,16
DA:391,16
DA:392,16
DA:394,0
DA:396,16
DA:397,18
DA:400,3
DA:401,3
DA:402,3
DA:404,3
DA:405,3
DA:406,3
DA:407,3
DA:409,3
DA:411,3
DA:413,24
DA:414,22
DA:415,21
DA:416,18
DA:418,16
DA:420,16
DA:421,0
DA:422,0
DA:423,0
DA:424,0
DA:426,0
DA:427,0
DA:428,16
DA:429,5
DA:433,2
DA:434,2
DA:435,2
DA:436,2
DA:437,2
DA:439,2
DA:440,0
DA:442,2
DA:444,2
DA:445,2
DA:446,2
DA:447,2
DA:448,2
DA:449,2
DA:450,2
DA:451,2
DA:452,3
DA:454,2
DA:455,2
DA:456,2
DA:457,16
DA:459,16
DA:460,16
DA:462,0
DA:463,0
DA:464,0
DA:465,0
DA:466,0
DA:469,0
DA:470,0
DA:471,0
DA:474,0
DA:478,16
DA:479,16
DA:480,16
DA:483,0
DA:486,16
DA:487,16
DA:489,1
DA:490,1
DA:491,3
DA:492,1
DA:495,15
DA:496,15
DA:497,405
DA:498,15
DA:501,16
DA:502,16
DA:503,2
DA:505,16
DA:506,2
DA:508,2
DA:509,2
DA:523,0
DA:524,0
DA:526,0
DA:527,0
DA:528,0
DA:529,0
DA:530,0
DA:531,0
DA:532,0
DA:533,0
DA:536,0
DA:537,0
DA:539,0
DA:540,0
DA:541,0
DA:542,0
DA:544,0
DA:545,0
DA:546,0
DA:547,0
DA:549,0
DA:550,0
DA:551,0
DA:552,0
DA:553,0
DA:554,0
DA:555,0
DA:557,0
DA:560,0
DA:561,0
DA:562,0
DA:563,0
DA:564,0
DA:565,0
DA:567,0
DA:568,0
DA:569,0
DA:570,0
DA:571,0
DA:572,0
DA:573,0
DA:575,0
DA:576,0
DA:577,0
DA:579,0
DA:582,0
DA:583,0
DA:584,0
DA:586,0
DA:587,0
DA:590,0
DA:591,0
DA:592,0
DA:593,0
DA:595,0
DA:598,0
DA:599,0
DA:602,0
DA:605,0
DA:606,0
DA:608,0
DA:609,0
DA:610,0
DA:613,0
DA:614,0
DA:615,0
DA:616,0
DA:617,0
DA:621,0
DA:622,0
DA:623,0
DA:624,0
DA:625,0
DA:626,0
DA:627,0
DA:628,0
DA:629,0
DA:630,0
DA:633,0
DA:635,0
DA:636,0
DA:637,0
DA:638,0
DA:640,0
DA:642,0
DA:643,0
DA:644,0
DA:645,0
DA:646,0
DA:647,0
DA:648,0
DA:649,0
DA:651,0
DA:652,0
DA:655,0
DA:657,0
DA:658,0
DA:659,0
DA:660,0
DA:661,0
DA:662,0
DA:663,0
DA:664,0
DA:666,0
DA:667,0
DA:668,0
DA:671,0
DA:672,0
DA:673,0
DA:674,0
DA:675,0
DA:678,0
DA:679,0
DA:680,0
DA:681,0
DA:682,0
DA:683,0
DA:684,0
DA:685,0
DA:688,0
DA:689,0
DA:691,0
DA:692,0
DA:693,0
DA:694,0
DA:695,0
DA:697,0
DA:699,0
DA:701,0
DA:702,0
DA:705,0
DA:706,0
DA:707,0
DA:708,0
DA:710,0
DA:712,0
DA:715,0
DA:716,0
DA:717,0
DA:718,0
DA:721,0
DA:723,0
DA:726,0
DA:727,0
DA:728,0
DA:729,0
DA:730,0
DA:731,0
DA:732,0
DA:733,0
DA:734,0
DA:736,0
DA:737,0
DA:738,0
DA:739,0
DA:740,0
DA:741,0
DA:742,0
DA:743,0
DA:746,0
DA:748,0
DA:749,0
DA:750,0
DA:751,0
DA:752,0
DA:753,0
DA:754,0
DA:756,0
DA:757,0
DA:758,0
DA:759,0
DA:761,0
DA:762,0
DA:763,0
DA:764,0
DA:765,0
DA:766,0
DA:768,0
DA:769,0
DA:770,0
DA:771,0
DA:772,0
DA:775,0
DA:776,0
DA:777,0
DA:778,0
DA:781,0
DA:782,0
DA:783,0
DA:784,0
DA:794,1
DA:795,1
DA:796,1
DA:797,1
DA:799,1
DA:800,1
DA:802,1
DA:803,1
DA:805,1
DA:806,1
DA:807,1
DA:808,1
DA:811,1
DA:812,1
DA:813,1
DA:814,1
DA:816,1
DA:817,1
DA:820,1
DA:823,1
DA:825,1
DA:826,1
DA:827,1
BRF:0
BRH:0
LF:578
LH:262
end_of_record
SF:/workspaces/code-guardian/crates/core/src/performance.rs
FN:55,_RNCNvMNtCs2kADRy9cGvI_18code_guardian_core11performanceNtB4_19PerformanceProfiler15operation_count0B6_
FN:48,_RNvMNtCs2kADRy9cGvI_18code_guardian_core11performanceNtB2_19PerformanceProfiler14total_duration
FN:54,_RNvMNtCs2kADRy9cGvI_18code_guardian_core11performanceNtB2_19PerformanceProfiler15operation_count
FN:37,_RNvMNtCs2kADRy9cGvI_18code_guardian_core11performanceNtB2_19PerformanceProfiler16average_duration
FN:26,_RNvMNtCs2kADRy9cGvI_18code_guardian_core11performanceNtB2_19PerformanceProfiler3end
FN:12,_RNvMNtCs2kADRy9cGvI_18code_guardian_core11performanceNtB2_19PerformanceProfiler3new
FN:88,_RNvMNtCs2kADRy9cGvI_18code_guardian_core11performanceNtB2_19PerformanceProfiler5clear
FN:20,_RNvMNtCs2kADRy9cGvI_18code_guardian_core11performanceNtB2_19PerformanceProfiler5start
FN:59,_RNvMNtCs2kADRy9cGvI_18code_guardian_core11performanceNtB2_19PerformanceProfiler6report
FN:124,_RNvMs0_NtCs2kADRy9cGvI_18code_guardian_core11performanceNtB5_13MemoryTracker10deallocate
FN:134,_RNvMs0_NtCs2kADRy9cGvI_18code_guardian_core11performanceNtB5_13MemoryTracker10peak_usage
FN:129,_RNvMs0_NtCs2kADRy9cGvI_18code_guardian_core11performanceNtB5_13MemoryTracker13current_usage
FN:108,_RNvMs0_NtCs2kADRy9cGvI_18code_guardian_core11performanceNtB5_13MemoryTracker3new
FN:139,_RNvMs0_NtCs2kADRy9cGvI_18code_guardian_core11performanceNtB5_13MemoryTracker5reset
FN:116,_RNvMs0_NtCs2kADRy9cGvI_18code_guardian_core11performanceNtB5_13MemoryTracker8allocate
FN:225,_RNvMs2_NtCs2kADRy9cGvI_18code_guardian_core11performanceNtB5_18PerformanceMetrics6report
FN:177,_RNvMs2_NtCs2kADRy9cGvI_18code_guardian_core11performanceNtB5_18PerformanceMetrics9calculate
FN:146,_RNvXs1_NtCs2kADRy9cGvI_18code_guardian_core11performanceNtB5_13MemoryTrackerNtNtCs66KPHxksi63_4core7default7Default7default
FN:95,_RNvXs_NtCs2kADRy9cGvI_18code_guardian_core11performanceNtB4_19PerformanceProfilerNtNtCs66KPHxksi63_4core7default7Default7default
FN:55,_RNCNvMNtCscyrExoi8aIO_18code_guardian_core11performanceNtB4_19PerformanceProfiler15operation_count0B6_
FN:265,_RNvNtNtCscyrExoi8aIO_18code_guardian_core11performance5testss_19test_memory_tracker
FN:282,_RNvNtNtCscyrExoi8aIO_18code_guardian_core11performance5testss_24test_performance_metrics
FN:253,_RNvNtNtCscyrExoi8aIO_18code_guardian_core11performance5testss_25test_performance_profiler
FN:48,_RNvMNtCscyrExoi8aIO_18code_guardian_core11performanceNtB2_19PerformanceProfiler14total_duration
FN:88,_RNvMNtCscyrExoi8aIO_18code_guardian_core11performanceNtB2_19PerformanceProfiler5clear
FN:59,_RNvMNtCscyrExoi8aIO_18code_guardian_core11performanceNtB2_19PerformanceProfiler6report
FN:139,_RNvMs0_NtCscyrExoi8aIO_18code_guardian_core11performanceNtB5_13MemoryTracker5reset
FN:225,_RNvMs2_NtCscyrExoi8aIO_18code_guardian_core11performanceNtB5_18PerformanceMetrics6report
FN:146,_RNvXs1_NtCscyrExoi8aIO_18code_guardian_core11performanceNtB5_13MemoryTrackerNtNtCs66KPHxksi63_4core7default7Default7default
FN:95,_RNvXs_NtCscyrExoi8aIO_18code_guardian_core11performanceNtB4_19PerformanceProfilerNtNtCs66KPHxksi63_4core7default7Default7default
FN:54,_RNvMNtCscyrExoi8aIO_18code_guardian_core11performanceNtB2_19PerformanceProfiler15operation_count
FN:37,_RNvMNtCscyrExoi8aIO_18code_guardian_core11performanceNtB2_19PerformanceProfiler16average_duration
FN:26,_RNvMNtCscyrExoi8aIO_18code_guardian_core11performanceNtB2_19PerformanceProfiler3end
FN:12,_RNvMNtCscyrExoi8aIO_18code_guardian_core11performanceNtB2_19PerformanceProfiler3new
FN:20,_RNvMNtCscyrExoi8aIO_18code_guardian_core11performanceNtB2_19PerformanceProfiler5start
FN:124,_RNvMs0_NtCscyrExoi8aIO_18code_guardian_core11performanceNtB5_13MemoryTracker10deallocate
FN:134,_RNvMs0_NtCscyrExoi8aIO_18code_guardian_core11performanceNtB5_13MemoryTracker10peak_usage
FN:129,_RNvMs0_NtCscyrExoi8aIO_18code_guardian_core11performanceNtB5_13MemoryTracker13current_usage
FN:108,_RNvMs0_NtCscyrExoi8aIO_18code_guardian_core11performanceNtB5_13MemoryTracker3new
FN:116,_RNvMs0_NtCscyrExoi8aIO_18code_guardian_core11performanceNtB5_13MemoryTracker8allocate
FN:177,_RNvMs2_NtCscyrExoi8aIO_18code_guardian_core11performanceNtB5_18PerformanceMetrics9calculate
FNDA:0,_RNCNvMNtCs2kADRy9cGvI_18code_guardian_core11performanceNtB4_19PerformanceProfiler15operation_count0B6_
FNDA:0,_RNvMNtCs2kADRy9cGvI_18code_guardian_core11performanceNtB2_19PerformanceProfiler14total_duration
FNDA:0,_RNvMNtCs2kADRy9cGvI_18code_guardian_core11performanceNtB2_19PerformanceProfiler15operation_count
FNDA:0,_RNvMNtCs2kADRy9cGvI_18code_guardian_core11performanceNtB2_19PerformanceProfiler16average_duration
FNDA:0,_RNvMNtCs2kADRy9cGvI_18code_guardian_core11performanceNtB2_19PerformanceProfiler3end
FNDA:0,_RNvMNtCs2kADRy9cGvI_18code_guardian_core11performanceNtB2_19PerformanceProfiler3new
FNDA:0,_RNvMNtCs2kADRy9cGvI_18code_guardian_core11performanceNtB2_19PerformanceProfiler5clear
FNDA:0,_RNvMNtCs2kADRy9cGvI_18code_guardian_core11performanceNtB2_19PerformanceProfiler5start
FNDA:0,_RNvMNtCs2kADRy9cGvI_18code_guardian_core11performanceNtB2_19PerformanceProfiler6report
FNDA:0,_RNvMs0_NtCs2kADRy9cGvI_18code_guardian_core11performanceNtB5_13MemoryTracker10deallocate
FNDA:0,_RNvMs0_NtCs2kADRy9cGvI_18code_guardian_core11performanceNtB5_13MemoryTracker10peak_usage
FNDA:0,_RNvMs0_NtCs2kADRy9cGvI_18code_guardian_core11performanceNtB5_13MemoryTracker13current_usage
FNDA:0,_RNvMs0_NtCs2kADRy9cGvI_18code_guardian_core11performanceNtB5_13MemoryTracker3new
FNDA:0,_RNvMs0_NtCs2kADRy9cGvI_18code_guardian_core11performanceNtB5_13MemoryTracker5reset
FNDA:0,_RNvMs0_NtCs2kADRy9cGvI_18code_guardian_core11performanceNtB5_13MemoryTracker8allocate
FNDA:0,_RNvMs2_NtCs2kADRy9cGvI_18code_guardian_core11performanceNtB5_18PerformanceMetrics6report
FNDA:0,_RNvMs2_NtCs2kADRy9cGvI_18code_guardian_core11performanceNtB5_18PerformanceMetrics9calculate
FNDA:0,_RNvXs1_NtCs2kADRy9cGvI_18code_guardian_core11performanceNtB5_13MemoryTrackerNtNtCs66KPHxksi63_4core7default7Default7default
FNDA:0,_RNvXs_NtCs2kADRy9cGvI_18code_guardian_core11performanceNtB4_19PerformanceProfilerNtNtCs66KPHxksi63_4core7default7Default7default
FNDA:1,_RNCNvMNtCscyrExoi8aIO_18code_guardian_core11performanceNtB4_19PerformanceProfiler15operation_count0B6_
FNDA:1,_RNvNtNtCscyrExoi8aIO_18code_guardian_core11performance5testss_19test_memory_tracker
FNDA:1,_RNvNtNtCscyrExoi8aIO_18code_guardian_core11performance5testss_24test_performance_metrics
FNDA:1,_RNvNtNtCscyrExoi8aIO_18code_guardian_core11performance5testss_25test_performance_profiler
FNDA:0,_RNvMNtCscyrExoi8aIO_18code_guardian_core11performanceNtB2_19PerformanceProfiler14total_duration
FNDA:0,_RNvMNtCscyrExoi8aIO_18code_guardian_core11performanceNtB2_19PerformanceProfiler5clear
FNDA:0,_RNvMNtCscyrExoi8aIO_18code_guardian_core11performanceNtB2_19PerformanceProfiler6report
FNDA:0,_RNvMs0_NtCscyrExoi8aIO_18code_guardian_core11performanceNtB5_13MemoryTracker5reset
FNDA:0,_RNvMs2_NtCscyrExoi8aIO_18code_guardian_core11performanceNtB5_18PerformanceMetrics6report
FNDA:0,_RNvXs1_NtCscyrExoi8aIO_18code_guardian_core11performanceNtB5_13MemoryTrackerNtNtCs66KPHxksi63_4core7default7Default7default
FNDA:0,_RNvXs_NtCscyrExoi8aIO_18code_guardian_core11performanceNtB4_19PerformanceProfilerNtNtCs66KPHxksi63_4core7default7Default7default
FNDA:1,_RNvMNtCscyrExoi8aIO_18code_guardian_core11performanceNtB2_19PerformanceProfiler15operation_count
FNDA:1,_RNvMNtCscyrExoi8aIO_18code_guardian_core11performanceNtB2_19PerformanceProfiler16average_duration
FNDA:1,_RNvMNtCscyrExoi8aIO_18code_guardian_core11performanceNtB2_19PerformanceProfiler3end
FNDA:1,_RNvMNtCscyrExoi8aIO_18code_guardian_core11performanceNtB2_19PerformanceProfiler3new
FNDA:1,_RNvMNtCscyrExoi8aIO_18code_guardian_core11performanceNtB2_19PerformanceProfiler5start
FNDA:1,_RNvMs0_NtCscyrExoi8aIO_18code_guardian_core11performanceNtB5_13MemoryTracker10deallocate
FNDA:3,_RNvMs0_NtCscyrExoi8aIO_18code_guardian_core11performanceNtB5_13MemoryTracker10peak_usage
FNDA:3,_RNvMs0_NtCscyrExoi8aIO_18code_guardian_core11performanceNtB5_13MemoryTracker13current_usage
FNDA:1,_RNvMs0_NtCscyrExoi8aIO_18code_guardian_core11performanceNtB5_13MemoryTracker3new
FNDA:2,_RNvMs0_NtCscyrExoi8aIO_18code_guardian_core11performanceNtB5_13MemoryTracker8allocate
FNDA:1,_RNvMs2_NtCscyrExoi8aIO_18code_guardian_core11performanceNtB5_18PerformanceMetrics9calculate
FNF:22
FNH:15
DA:12,1
DA:13,1
DA:14,1
DA:15,1
DA:16,1
DA:17,1
DA:20,1
DA:21,1
DA:22,1
DA:23,1
DA:26,1
DA:27,1
DA:28,1
DA:29,1
DA:30,1
DA:31,1
DA:32,1
DA:33,1
DA:34,1
DA:37,1
DA:38,1
DA:39,1
DA:40,0
DA:41,1
DA:43,1
DA:44,1
DA:45,1
DA:48,0
DA:49,0
DA:50,0
DA:51,0
DA:54,1
DA:55,1
DA:56,1
DA:59,0
DA:60,0
DA:61,0
DA:63,0
DA:64,0
DA:65,0
DA:66,0
DA:68,0
DA:69,0
DA:70,0
DA:71,0
DA:73,0
DA:74,0
DA:75,0
DA:76,0
DA:77,0
DA:78,0
DA:79,0
DA:80,0
DA:81,0
DA:84,0
DA:85,0
DA:88,0
DA:89,0
DA:90,0
DA:91,0
DA:95,0
DA:96,0
DA:97,0
DA:108,1
DA:109,1
DA:110,1
DA:111,1
DA:112,1
DA:113,1
DA:116,2
DA:117,2
DA:118,2
DA:119,2
DA:120,2
DA:121,2
DA:124,1
DA:125,1
DA:126,1
DA:129,3
DA:130,3
DA:131,3
DA:134,3
DA:135,3
DA:136,3
DA:139,0
DA:140,0
DA:141,0
DA:142,0
DA:146,0
DA:147,0
DA:148,0
DA:177,1
DA:178,1
DA:180,1
DA:181,1
DA:183,0
DA:186,1
DA:187,1
DA:189,0
DA:192,1
DA:193,1
DA:195,0
DA:198,1
DA:199,1
DA:201,0
DA:204,1
DA:207,1
DA:208,1
DA:209,1
DA:211,0
DA:214,1
DA:215,1
DA:216,1
DA:217,1
DA:218,1
DA:219,1
DA:220,1
DA:221,1
DA:222,1
DA:223,1
DA:225,0
DA:226,0
DA:227,0
DA:228,0
DA:229,0
DA:230,0
DA:231,0
DA:232,0
DA:233,0
DA:234,0
DA:235,0
DA:240,0
DA:242,0
DA:244,0
DA:253,1
DA:254,1
DA:256,1
DA:257,1
DA:258,1
DA:260,1
DA:261,1
DA:262,1
DA:265,1
DA:266,1
DA:268,1
DA:269,1
DA:270,1
DA:272,1
DA:273,1
DA:274,1
DA:276,1
DA:277,1
DA:278,1
DA:279,1
DA:282,1
DA:283,1
DA:284,1
DA:285,1
DA:286,1
DA:287,1
DA:288,1
DA:289,1
DA:290,1
DA:291,1
DA:292,1
DA:293,1
DA:295,1
DA:296,1
DA:297,1
DA:298,1
DA:299,1
DA:300,1
BRF:0
BRH:0
LF:173
LH:113
end_of_record
SF:/workspaces/code-guardian/crates/output/src/formatters/csv.rs
FN:9,_RNvXNtNtCslriTvUV8Ri9_20code_guardian_output10formatters3csvNtB2_12CsvFormatterNtB4_9Formatter6format
FN:9,_RNvXNtNtCs61Sk9WpjmEU_20code_guardian_output10formatters3csvNtB2_12CsvFormatterNtB4_9Formatter6format
FN:108,_RNvNtNtNtCs61Sk9WpjmEU_20code_guardian_output10formatters3csv14proptest_tests9arb_match
FN:117,_RNCNvNtNtNtCs61Sk9WpjmEU_20code_guardian_output10formatters3csv14proptest_tests9arb_match0B9_
FN:87,_RNvNtNtNtCs61Sk9WpjmEU_20code_guardian_output10formatters3csv5testss_17test_csv_escaping
FN:45,_RNvNtNtNtCs61Sk9WpjmEU_20code_guardian_output10formatters3csv5testss_17test_single_match
FN:35,_RNvNtNtNtCs61Sk9WpjmEU_20code_guardian_output10formatters3csv5testss_18test_empty_matches
FN:61,_RNvNtNtNtCs61Sk9WpjmEU_20code_guardian_output10formatters3csv5testss_21test_multiple_matches
FNDA:21,_RNvXNtNtCslriTvUV8Ri9_20code_guardian_output10formatters3csvNtB2_12CsvFormatterNtB4_9Formatter6format
FNDA:263,_RNvXNtNtCs61Sk9WpjmEU_20code_guardian_output10formatters3csvNtB2_12CsvFormatterNtB4_9Formatter6format
FNDA:1,_RNvNtNtNtCs61Sk9WpjmEU_20code_guardian_output10formatters3csv14proptest_tests9arb_match
FNDA:1097,_RNCNvNtNtNtCs61Sk9WpjmEU_20code_guardian_output10formatters3csv14proptest_tests9arb_match0B9_
FNDA:1,_RNvNtNtNtCs61Sk9WpjmEU_20code_guardian_output10formatters3csv5testss_17test_csv_escaping
FNDA:1,_RNvNtNtNtCs61Sk9WpjmEU_20code_guardian_output10formatters3csv5testss_17test_single_match
FNDA:1,_RNvNtNtNtCs61Sk9WpjmEU_20code_guardian_output10formatters3csv5testss_18test_empty_matches
FNDA:1,_RNvNtNtNtCs61Sk9WpjmEU_20code_guardian_output10formatters3csv5testss_21test_multiple_matches
FNF:7
FNH:7
DA:9,284
DA:10,284
DA:11,284
DA:12,284
DA:14,12408
DA:15,12124
DA:16,12124
DA:17,12124
DA:18,12124
DA:19,12124
DA:20,12124
DA:21,12124
DA:22,12124
DA:23,12124
DA:25,284
DA:26,284
DA:27,284
DA:35,1
DA:36,1
DA:37,1
DA:38,1
DA:39,1
DA:40,1
DA:41,1
DA:42,1
DA:45,1
DA:46,1
DA:47,1
DA:48,1
DA:49,1
DA:50,1
DA:51,1
DA:52,1
DA:53,1
DA:54,1
DA:55,1
DA:56,1
DA:57,1
DA:58,1
DA:61,1
DA:62,1
DA:63,1
DA:64,1
DA:65,1
DA:66,1
DA:67,1
DA:68,1
DA:69,1
DA:70,1
DA:71,1
DA:72,1
DA:73,1
DA:74,1
DA:75,1
DA:76,1
DA:77,1
DA:79,1
DA:80,1
DA:81,1
DA:82,1
DA:83,1
DA:84,1
DA:87,1
DA:88,1
DA:89,1
DA:90,1
DA:91,1
DA:92,1
DA:93,1
DA:94,1
DA:95,1
DA:96,1
DA:97,1
DA:98,1
DA:99,1
DA:100,1
DA:108,1
DA:109,1
DA:110,1
DA:111,1
DA:112,1
DA:113,1
DA:114,1
DA:115,1
DA:116,1
DA:117,1097
DA:118,1097
DA:119,1097
DA:120,1097
DA:121,1097
DA:122,1097
DA:123,1
BRF:0
BRH:0
LF:92
LH:92
end_of_record
SF:/workspaces/code-guardian/crates/output/src/formatters/html.rs
FN:66,_RNvNtNtCslriTvUV8Ri9_20code_guardian_output10formatters4html11html_escape
FN:9,_RNvXNtNtCslriTvUV8Ri9_20code_guardian_output10formatters4htmlNtB2_13HtmlFormatterNtB4_9Formatter6format
FN:163,_RNCNvNtNtNtCs61Sk9WpjmEU_20code_guardian_output10formatters4html14proptest_tests9arb_match0B9_
FN:66,_RNvNtNtCs61Sk9WpjmEU_20code_guardian_output10formatters4html11html_escape
FN:9,_RNvXNtNtCs61Sk9WpjmEU_20code_guardian_output10formatters4htmlNtB2_13HtmlFormatterNtB4_9Formatter6format
FN:154,_RNvNtNtNtCs61Sk9WpjmEU_20code_guardian_output10formatters4html14proptest_tests9arb_match
FN:108,_RNvNtNtNtCs61Sk9WpjmEU_20code_guardian_output10formatters4html5testss_16test_html_escape
FN:89,_RNvNtNtNtCs61Sk9WpjmEU_20code_guardian_output10formatters4html5testss_17test_single_match
FN:79,_RNvNtNtNtCs61Sk9WpjmEU_20code_guardian_output10formatters4html5testss_18test_empty_matches
FN:123,_RNvNtNtNtCs61Sk9WpjmEU_20code_guardian_output10formatters4html5testss_21test_multiple_matches
FNDA:33060,_RNvNtNtCslriTvUV8Ri9_20code_guardian_output10formatters4html11html_escape
FNDA:21,_RNvXNtNtCslriTvUV8Ri9_20code_guardian_output10formatters4htmlNtB2_13HtmlFormatterNtB4_9Formatter6format
FNDA:1119,_RNCNvNtNtNtCs61Sk9WpjmEU_20code_guardian_output10formatters4html14proptest_tests9arb_match0B9_
FNDA:3378,_RNvNtNtCs61Sk9WpjmEU_20code_guardian_output10formatters4html11html_escape
FNDA:263,_RNvXNtNtCs61Sk9WpjmEU_20code_guardian_output10formatters4htmlNtB2_13HtmlFormatterNtB4_9Formatter6format
FNDA:1,_RNvNtNtNtCs61Sk9WpjmEU_20code_guardian_output10formatters4html14proptest_tests9arb_match
FNDA:1,_RNvNtNtNtCs61Sk9WpjmEU_20code_guardian_output10formatters4html5testss_16test_html_escape
FNDA:1,_RNvNtNtNtCs61Sk9WpjmEU_20code_guardian_output10formatters4html5testss_17test_single_match
FNDA:1,_RNvNtNtNtCs61Sk9WpjmEU_20code_guardian_output10formatters4html5testss_18test_empty_matches
FNDA:1,_RNvNtNtNtCs61Sk9WpjmEU_20code_guardian_output10formatters4html5testss_21test_multiple_matches
FNF:8
FNH:8
DA:9,284
DA:10,284
DA:38,284
DA:39,28
DA:40,28
DA:41,12402
DA:42,12146
DA:43,12146
DA:44,12146
DA:45,12146
DA:46,12146
DA:47,12146
DA:48,12146
DA:49,12146
DA:50,12146
DA:53,284
DA:54,284
DA:55,284
DA:56,284
DA:57,284
DA:58,284
DA:61,284
DA:62,284
DA:66,36438
DA:67,36438
DA:68,36438
DA:69,36438
DA:70,36438
DA:71,36438
DA:72,36438
DA:79,1
DA:80,1
DA:81,1
DA:82,1
DA:83,1
DA:84,1
DA:85,1
DA:86,1
DA:89,1
DA:90,1
DA:91,1
DA:92,1
DA:93,1
DA:94,1
DA:95,1
DA:96,1
DA:97,1
DA:98,1
DA:99,1
DA:100,1
DA:101,1
DA:102,1
DA:103,1
DA:104,1
DA:105,1
DA:108,1
DA:109,1
DA:110,1
DA:111,1
DA:112,1
DA:113,1
DA:114,1
DA:115,1
DA:116,1
DA:117,1
DA:118,1
DA:119,1
DA:120,1
DA:123,1
DA:124,1
DA:125,1
DA:126,1
DA:127,1
DA:128,1
DA:129,1
DA:130,1
DA:131,1
DA:132,1
DA:133,1
DA:134,1
DA:135,1
DA:136,1
DA:137,1
DA:138,1
DA:139,1
DA:141,1
DA:142,1
DA:143,1
DA:144,1
DA:145,1
DA:146,1
DA:154,1
DA:155,1
DA:156,1
DA:157,1
DA:158,1
DA:159,1
DA:160,1
DA:161,1
DA:162,1
DA:163,1119
DA:164,1119
DA:165,1119
DA:166,1119
DA:167,1119
DA:168,1119
DA:169,1
BRF:0
BRH:0
LF:107
LH:107
end_of_record
SF:/workspaces/code-guardian/crates/output/src/formatters/json.rs
FN:9,_RNvXNtNtCslriTvUV8Ri9_20code_guardian_output10formatters4jsonNtB2_13JsonFormatterNtB4_9Formatter6format
FN:10,_RNCNvXNtNtCslriTvUV8Ri9_20code_guardian_output10formatters4jsonNtB4_13JsonFormatterNtB6_9Formatter6format0B8_
FN:10,_RNCNvXNtNtCs61Sk9WpjmEU_20code_guardian_output10formatters4jsonNtB4_13JsonFormatterNtB6_9Formatter6format0B8_
FN:9,_RNvXNtNtCs61Sk9WpjmEU_20code_guardian_output10formatters4jsonNtB2_13JsonFormatterNtB4_9Formatter6format
FN:81,_RNvNtNtNtCs61Sk9WpjmEU_20code_guardian_output10formatters4json14proptest_tests9arb_match
FN:90,_RNCNvNtNtNtCs61Sk9WpjmEU_20code_guardian_output10formatters4json14proptest_tests9arb_match0B9_
FN:28,_RNvNtNtNtCs61Sk9WpjmEU_20code_guardian_output10formatters4json5testss_17test_single_match
FN:20,_RNvNtNtNtCs61Sk9WpjmEU_20code_guardian_output10formatters4json5testss_18test_empty_matches
FN:51,_RNvNtNtNtCs61Sk9WpjmEU_20code_guardian_output10formatters4json5testss_21test_multiple_matches
FNDA:24,_RNvXNtNtCslriTvUV8Ri9_20code_guardian_output10formatters4jsonNtB2_13JsonFormatterNtB4_9Formatter6format
FNDA:0,_RNCNvXNtNtCslriTvUV8Ri9_20code_guardian_output10formatters4jsonNtB4_13JsonFormatterNtB6_9Formatter6format0B8_
FNDA:0,_RNCNvXNtNtCs61Sk9WpjmEU_20code_guardian_output10formatters4jsonNtB4_13JsonFormatterNtB6_9Formatter6format0B8_
FNDA:262,_RNvXNtNtCs61Sk9WpjmEU_20code_guardian_output10formatters4jsonNtB2_13JsonFormatterNtB4_9Formatter6format
FNDA:1,_RNvNtNtNtCs61Sk9WpjmEU_20code_guardian_output10formatters4json14proptest_tests9arb_match
FNDA:1114,_RNCNvNtNtNtCs61Sk9WpjmEU_20code_guardian_output10formatters4json14proptest_tests9arb_match0B9_
FNDA:1,_RNvNtNtNtCs61Sk9WpjmEU_20code_guardian_output10formatters4json5testss_17test_single_match
FNDA:1,_RNvNtNtNtCs61Sk9WpjmEU_20code_guardian_output10formatters4json5testss_18test_empty_matches
FNDA:1,_RNvNtNtNtCs61Sk9WpjmEU_20code_guardian_output10formatters4json5testss_21test_multiple_matches
FNF:7
FNH:6
DA:9,286
DA:10,286
DA:11,286
DA:20,1
DA:21,1
DA:22,1
DA:23,1
DA:24,1
DA:25,1
DA:28,1
DA:29,1
DA:30,1
DA:31,1
DA:32,1
DA:33,1
DA:34,1
DA:35,1
DA:36,1
DA:37,1
DA:38,1
DA:39,1
DA:40,1
DA:41,1
DA:42,1
DA:43,1
DA:44,1
DA:45,1
DA:46,1
DA:47,1
DA:48,1
DA:51,1
DA:52,1
DA:53,1
DA:54,1
DA:55,1
DA:56,1
DA:57,1
DA:58,1
DA:59,1
DA:60,1
DA:61,1
DA:62,1
DA:63,1
DA:64,1
DA:65,1
DA:66,1
DA:67,1
DA:69,1
DA:71,1
DA:72,1
DA:73,1
DA:81,1
DA:82,1
DA:83,1
DA:84,1
DA:85,1
DA:86,1
DA:87,1
DA:88,1
DA:89,1
DA:90,1114
DA:91,1114
DA:92,1114
DA:93,1114
DA:94,1114
DA:95,1114
DA:96,1
BRF:0
BRH:0
LF:68
LH:67
end_of_record
SF:/workspaces/code-guardian/crates/output/src/formatters/markdown.rs
FN:33,_RNvNtNtCslriTvUV8Ri9_20code_guardian_output10formatters8markdown9escape_md
FN:9,_RNvXNtNtCslriTvUV8Ri9_20code_guardian_output10formatters8markdownNtB2_17MarkdownFormatterNtB4_9Formatter6format
FN:111,_RNvNtNtNtCs61Sk9WpjmEU_20code_guardian_output10formatters8markdown14proptest_tests9arb_match
FN:120,_RNCNvNtNtNtCs61Sk9WpjmEU_20code_guardian_output10formatters8markdown14proptest_tests9arb_match0B9_
FN:33,_RNvNtNtCs61Sk9WpjmEU_20code_guardian_output10formatters8markdown9escape_md
FN:9,_RNvXNtNtCs61Sk9WpjmEU_20code_guardian_output10formatters8markdownNtB2_17MarkdownFormatterNtB4_9Formatter6format
FN:65,_RNvNtNtNtCs61Sk9WpjmEU_20code_guardian_output10formatters8markdown5testss_17test_escape_pipes
FN:50,_RNvNtNtNtCs61Sk9WpjmEU_20code_guardian_output10formatters8markdown5testss_17test_single_match
FN:42,_RNvNtNtNtCs61Sk9WpjmEU_20code_guardian_output10formatters8markdown5testss_18test_empty_matches
FN:80,_RNvNtNtNtCs61Sk9WpjmEU_20code_guardian_output10formatters8markdown5testss_21test_multiple_matches
FNDA:33060,_RNvNtNtCslriTvUV8Ri9_20code_guardian_output10formatters8markdown9escape_md
FNDA:21,_RNvXNtNtCslriTvUV8Ri9_20code_guardian_output10formatters8markdownNtB2_17MarkdownFormatterNtB4_9Formatter6format
FNDA:1,_RNvNtNtNtCs61Sk9WpjmEU_20code_guardian_output10formatters8markdown14proptest_tests9arb_match
FNDA:1200,_RNCNvNtNtNtCs61Sk9WpjmEU_20code_guardian_output10formatters8markdown14proptest_tests9arb_match0B9_
FNDA:3618,_RNvNtNtCs61Sk9WpjmEU_20code_guardian_output10formatters8markdown9escape_md
FNDA:262,_RNvXNtNtCs61Sk9WpjmEU_20code_guardian_output10formatters8markdownNtB2_17MarkdownFormatterNtB4_9Formatter6format
FNDA:1,_RNvNtNtNtCs61Sk9WpjmEU_20code_guardian_output10formatters8markdown5testss_17test_escape_pipes
FNDA:1,_RNvNtNtNtCs61Sk9WpjmEU_20code_guardian_output10formatters8markdown5testss_17test_single_match
FNDA:1,_RNvNtNtNtCs61Sk9WpjmEU_20code_guardian_output10formatters8markdown5testss_18test_empty_matches
FNDA:1,_RNvNtNtNtCs61Sk9WpjmEU_20code_guardian_output10formatters8markdown5testss_21test_multiple_matches
FNF:8
FNH:8
DA:9,283
DA:10,283
DA:11,25
DA:12,258
DA:14,258
DA:15,258
DA:17,12484
DA:18,12226
DA:19,12226
DA:20,12226
DA:21,12226
DA:22,12226
DA:23,12226
DA:24,12226
DA:25,12226
DA:26,12226
DA:28,258
DA:29,283
DA:33,36678
DA:34,36678
DA:35,36678
DA:42,1
DA:43,1
DA:44,1
DA:45,1
DA:46,1
DA:47,1
DA:50,1
DA:51,1
DA:52,1
DA:53,1
DA:54,1
DA:55,1
DA:56,1
DA:57,1
DA:58,1
DA:59,1
DA:60,1
DA:61,1
DA:62,1
DA:65,1
DA:66,1
DA:67,1
DA:68,1
DA:69,1
DA:70,1
DA:71,1
DA:72,1
DA:73,1
DA:74,1
DA:75,1
DA:76,1
DA:77,1
DA:80,1
DA:81,1
DA:82,1
DA:83,1
DA:84,1
DA:85,1
DA:86,1
DA:87,1
DA:88,1
DA:89,1
DA:90,1
DA:91,1
DA:92,1
DA:93,1
DA:94,1
DA:95,1
DA:96,1
DA:98,1
DA:99,1
DA:100,1
DA:101,1
DA:102,1
DA:103,1
DA:111,1
DA:112,1
DA:113,1
DA:114,1
DA:115,1
DA:116,1
DA:117,1
DA:118,1
DA:119,1
DA:120,1200
DA:121,1200
DA:122,1200
DA:123,1200
DA:124,1200
DA:125,1200
DA:126,1
BRF:0
BRH:0
LF:92
LH:92
end_of_record
SF:/workspaces/code-guardian/crates/output/src/formatters/text.rs
FN:9,_RNvXNtNtCslriTvUV8Ri9_20code_guardian_output10formatters4textNtB2_13TextFormatterNtB4_9Formatter6format
FN:115,_RNCNvNtNtNtCs61Sk9WpjmEU_20code_guardian_output10formatters4text14proptest_tests9arb_match0B9_
FN:9,_RNvXNtNtCs61Sk9WpjmEU_20code_guardian_output10formatters4textNtB2_13TextFormatterNtB4_9Formatter6format
FN:38,_RNvNtNtNtCs61Sk9WpjmEU_20code_guardian_output10formatters4text5testss_17test_single_match
FN:30,_RNvNtNtNtCs61Sk9WpjmEU_20code_guardian_output10formatters4text5testss_18test_empty_matches
FN:77,_RNvNtNtNtCs61Sk9WpjmEU_20code_guardian_output10formatters4text5testss_21test_multiple_matches
FN:53,_RNvNtNtNtCs61Sk9WpjmEU_20code_guardian_output10formatters4text5testss_30test_multiple_matches_snapshot
FN:106,_RNvNtNtNtCs61Sk9WpjmEU_20code_guardian_output10formatters4text14proptest_tests9arb_match
FNDA:43,_RNvXNtNtCslriTvUV8Ri9_20code_guardian_output10formatters4textNtB2_13TextFormatterNtB4_9Formatter6format
FNDA:1135,_RNCNvNtNtNtCs61Sk9WpjmEU_20code_guardian_output10formatters4text14proptest_tests9arb_match0B9_
FNDA:262,_RNvXNtNtCs61Sk9WpjmEU_20code_guardian_output10formatters4textNtB2_13TextFormatterNtB4_9Formatter6format
FNDA:1,_RNvNtNtNtCs61Sk9WpjmEU_20code_guardian_output10formatters4text5testss_17test_single_match
FNDA:1,_RNvNtNtNtCs61Sk9WpjmEU_20code_guardian_output10formatters4text5testss_18test_empty_matches
FNDA:1,_RNvNtNtNtCs61Sk9WpjmEU_20code_guardian_output10formatters4text5testss_21test_multiple_matches
FNDA:1,_RNvNtNtNtCs61Sk9WpjmEU_20code_guardian_output10formatters4text5testss_30test_multiple_matches_snapshot
FNDA:1,_RNvNtNtNtCs61Sk9WpjmEU_20code_guardian_output10formatters4text14proptest_tests9arb_match
FNF:7
FNH:7
DA:9,305
DA:10,305
DA:11,30
DA:12,275
DA:14,275
DA:15,12565
DA:16,12290
DA:17,12290
DA:18,12290
DA:19,12290
DA:20,12290
DA:21,275
DA:22,305
DA:30,1
DA:31,1
DA:32,1
DA:33,1
DA:34,1
DA:35,1
DA:38,1
DA:39,1
DA:40,1
DA:41,1
DA:42,1
DA:43,1
DA:44,1
DA:45,1
DA:46,1
DA:47,1
DA:48,1
DA:49,1
DA:50,1
DA:53,1
DA:54,1
DA:55,1
DA:56,1
DA:57,1
DA:58,1
DA:59,1
DA:60,1
DA:61,1
DA:62,1
DA:63,1
DA:64,1
DA:65,1
DA:66,1
DA:67,1
DA:68,1
DA:69,1
DA:71,1
DA:72,1
DA:73,1
DA:74,1
DA:77,1
DA:78,1
DA:79,1
DA:80,1
DA:81,1
DA:82,1
DA:83,1
DA:84,1
DA:85,1
DA:86,1
DA:87,1
DA:88,1
DA:89,1
DA:90,1
DA:91,1
DA:92,1
DA:93,1
DA:95,1
DA:96,1
DA:97,1
DA:98,1
DA:106,1
DA:107,1
DA:108,1
DA:109,1
DA:110,1
DA:111,1
DA:112,1
DA:113,1
DA:114,1
DA:115,1135
DA:116,1135
DA:117,1135
DA:118,1135
DA:119,1135
DA:120,1135
DA:121,1
BRF:0
BRH:0
LF:90
LH:90
end_of_record
SF:/workspaces/code-guardian/crates/output/src/lib.rs
FN:10,_RNvNtCs61Sk9WpjmEU_20code_guardian_output5tests19create_test_matches
FN:30,_RNvNtCs61Sk9WpjmEU_20code_guardian_output5testss_31test_all_formatters_integration
FN:67,_RNvNtCs61Sk9WpjmEU_20code_guardian_output5testss_34test_formatters_with_empty_matches
FN:79,_RNvNtCs61Sk9WpjmEU_20code_guardian_output5testss_39test_formatters_with_special_characters
FNDA:1,_RNvNtCs61Sk9WpjmEU_20code_guardian_output5tests19create_test_matches
FNDA:1,_RNvNtCs61Sk9WpjmEU_20code_guardian_output5testss_31test_all_formatters_integration
FNDA:1,_RNvNtCs61Sk9WpjmEU_20code_guardian_output5testss_34test_formatters_with_empty_matches
FNDA:1,_RNvNtCs61Sk9WpjmEU_20code_guardian_output5testss_39test_formatters_with_special_characters
FNF:4
FNH:4
DA:10,1
DA:11,1
DA:12,1
DA:13,1
DA:14,1
DA:15,1
DA:16,1
DA:17,1
DA:18,1
DA:19,1
DA:20,1
DA:21,1
DA:22,1
DA:23,1
DA:24,1
DA:25,1
DA:27,1
DA:30,1
DA:31,1
DA:34,1
DA:35,1
DA:36,1
DA:37,1
DA:40,1
DA:41,1
DA:42,1
DA:43,1
DA:46,1
DA:47,1
DA:48,1
DA:49,1
DA:52,1
DA:53,1
DA:54,1
DA:55,1
DA:56,1
DA:59,1
DA:60,1
DA:61,1
DA:62,1
DA:63,1
DA:64,1
DA:67,1
DA:68,1
DA:71,1
DA:72,1
DA:73,1
DA:74,1
DA:75,1
DA:76,1
DA:79,1
DA:80,1
DA:81,1
DA:82,1
DA:83,1
DA:84,1
DA:85,1
DA:86,1
DA:89,1
DA:90,1
DA:92,1
DA:94,1
DA:96,1
DA:97,1
DA:98,1
BRF:0
BRH:0
LF:65
LH:65
end_of_record
SF:/workspaces/code-guardian/crates/storage/src/lib.rs
FN:48,_RINvMCsl0hHw25Zx3g_21code_guardian_storageNtB3_20SqliteScanRepository3newRNtNtCsiKSG5X70Gj7_3std4path7PathBufECsgJXiKT19grP_17code_guardian_cli
FN:41,_RNvMCsl0hHw25Zx3g_21code_guardian_storageNtB2_20SqliteScanRepository13new_in_memory
FN:55,_RNvMCsl0hHw25Zx3g_21code_guardian_storageNtB2_20SqliteScanRepository7init_db
FN:134,_RNvXs_Csl0hHw25Zx3g_21code_guardian_storageNtB4_20SqliteScanRepositoryNtB4_14ScanRepository11delete_scan
FN:115,_RNvXs_Csl0hHw25Zx3g_21code_guardian_storageNtB4_20SqliteScanRepositoryNtB4_14ScanRepository13get_all_scans
FN:79,_RNvXs_Csl0hHw25Zx3g_21code_guardian_storageNtB4_20SqliteScanRepositoryNtB4_14ScanRepository8get_scan
FN:62,_RNvXs_Csl0hHw25Zx3g_21code_guardian_storageNtB4_20SqliteScanRepositoryNtB4_14ScanRepository9save_scan
FN:48,_RINvMCsl0hHw25Zx3g_21code_guardian_storageNtB3_20SqliteScanRepository3newpEB3_
FN:119,_RNCNvXs_Csl0hHw25Zx3g_21code_guardian_storageNtB6_20SqliteScanRepositoryNtB6_14ScanRepository13get_all_scans0B6_
FN:84,_RNCNvXs_Csl0hHw25Zx3g_21code_guardian_storageNtB6_20SqliteScanRepositoryNtB6_14ScanRepository8get_scan0B6_
FN:97,_RNCNvXs_Csl0hHw25Zx3g_21code_guardian_storageNtB6_20SqliteScanRepositoryNtB6_14ScanRepository8get_scans_0B6_
FN:48,_RINvMCsl0hHw25Zx3g_21code_guardian_storageNtB3_20SqliteScanRepository3newRNtNtCsiKSG5X70Gj7_3std4path7PathBufECsbqVo1DIGE6C_17code_guardian_cli
FN:48,_RINvMCsl0hHw25Zx3g_21code_guardian_storageNtB3_20SqliteScanRepository3newRNtNtCsiKSG5X70Gj7_3std4path7PathBufECs3FCRTWxsZpL_3cli
FN:48,_RINvMCsO2HqpL7NDx_21code_guardian_storageNtB3_20SqliteScanRepository3newRNtNtCsiKSG5X70Gj7_3std4path7PathBufEB3_
FN:119,_RNCNvXs_CsO2HqpL7NDx_21code_guardian_storageNtB6_20SqliteScanRepositoryNtB6_14ScanRepository13get_all_scans0B6_
FN:84,_RNCNvXs_CsO2HqpL7NDx_21code_guardian_storageNtB6_20SqliteScanRepositoryNtB6_14ScanRepository8get_scan0B6_
FN:97,_RNCNvXs_CsO2HqpL7NDx_21code_guardian_storageNtB6_20SqliteScanRepositoryNtB6_14ScanRepository8get_scans_0B6_
FN:201,_RNvNtCsO2HqpL7NDx_21code_guardian_storage5testss_16test_delete_scan
FN:175,_RNvNtCsO2HqpL7NDx_21code_guardian_storage5testss_18test_get_all_scans
FN:221,_RNvNtCsO2HqpL7NDx_21code_guardian_storage5testss_20test_file_based_repo
FN:150,_RNvNtCsO2HqpL7NDx_21code_guardian_storage5testss_22test_save_and_get_scan
FN:257,_RNCNvNtCsO2HqpL7NDx_21code_guardian_storage14proptest_tests9arb_match0B5_
FN:41,_RNvMCsO2HqpL7NDx_21code_guardian_storageNtB2_20SqliteScanRepository13new_in_memory
FN:55,_RNvMCsO2HqpL7NDx_21code_guardian_storageNtB2_20SqliteScanRepository7init_db
FN:134,_RNvXs_CsO2HqpL7NDx_21code_guardian_storageNtB4_20SqliteScanRepositoryNtB4_14ScanRepository11delete_scan
FN:115,_RNvXs_CsO2HqpL7NDx_21code_guardian_storageNtB4_20SqliteScanRepositoryNtB4_14ScanRepository13get_all_scans
FN:79,_RNvXs_CsO2HqpL7NDx_21code_guardian_storageNtB4_20SqliteScanRepositoryNtB4_14ScanRepository8get_scan
FN:62,_RNvXs_CsO2HqpL7NDx_21code_guardian_storageNtB4_20SqliteScanRepositoryNtB4_14ScanRepository9save_scan
FN:248,_RNvNtCsO2HqpL7NDx_21code_guardian_storage14proptest_tests9arb_match
FNDA:18,_RINvMCsl0hHw25Zx3g_21code_guardian_storageNtB3_20SqliteScanRepository3newRNtNtCsiKSG5X70Gj7_3std4path7PathBufECsgJXiKT19grP_17code_guardian_cli
FNDA:0,_RNvMCsl0hHw25Zx3g_21code_guardian_storageNtB2_20SqliteScanRepository13new_in_memory
FNDA:40,_RNvMCsl0hHw25Zx3g_21code_guardian_storageNtB2_20SqliteScanRepository7init_db
FNDA:0,_RNvXs_Csl0hHw25Zx3g_21code_guardian_storageNtB4_20SqliteScanRepositoryNtB4_14ScanRepository11delete_scan
FNDA:4,_RNvXs_Csl0hHw25Zx3g_21code_guardian_storageNtB4_20SqliteScanRepositoryNtB4_14ScanRepository13get_all_scans
FNDA:14,_RNvXs_Csl0hHw25Zx3g_21code_guardian_storageNtB4_20SqliteScanRepositoryNtB4_14ScanRepository8get_scan
FNDA:29,_RNvXs_Csl0hHw25Zx3g_21code_guardian_storageNtB4_20SqliteScanRepositoryNtB4_14ScanRepository9save_scan
FNDA:0,_RINvMCsl0hHw25Zx3g_21code_guardian_storageNtB3_20SqliteScanRepository3newpEB3_
FNDA:4,_RNCNvXs_Csl0hHw25Zx3g_21code_guardian_storageNtB6_20SqliteScanRepositoryNtB6_14ScanRepository13get_all_scans0B6_
FNDA:13,_RNCNvXs_Csl0hHw25Zx3g_21code_guardian_storageNtB6_20SqliteScanRepositoryNtB6_14ScanRepository8get_scan0B6_
FNDA:18,_RNCNvXs_Csl0hHw25Zx3g_21code_guardian_storageNtB6_20SqliteScanRepositoryNtB6_14ScanRepository8get_scans_0B6_
FNDA:14,_RINvMCsl0hHw25Zx3g_21code_guardian_storageNtB3_20SqliteScanRepository3newRNtNtCsiKSG5X70Gj7_3std4path7PathBufECsbqVo1DIGE6C_17code_guardian_cli
FNDA:9,_RINvMCsl0hHw25Zx3g_21code_guardian_storageNtB3_20SqliteScanRepository3newRNtNtCsiKSG5X70Gj7_3std4path7PathBufECs3FCRTWxsZpL_3cli
FNDA:2,_RINvMCsO2HqpL7NDx_21code_guardian_storageNtB3_20SqliteScanRepository3newRNtNtCsiKSG5X70Gj7_3std4path7PathBufEB3_
FNDA:3,_RNCNvXs_CsO2HqpL7NDx_21code_guardian_storageNtB6_20SqliteScanRepositoryNtB6_14ScanRepository13get_all_scans0B6_
FNDA:257,_RNCNvXs_CsO2HqpL7NDx_21code_guardian_storageNtB6_20SqliteScanRepositoryNtB6_14ScanRepository8get_scan0B6_
FNDA:1218,_RNCNvXs_CsO2HqpL7NDx_21code_guardian_storageNtB6_20SqliteScanRepositoryNtB6_14ScanRepository8get_scans_0B6_
FNDA:1,_RNvNtCsO2HqpL7NDx_21code_guardian_storage5testss_16test_delete_scan
FNDA:1,_RNvNtCsO2HqpL7NDx_21code_guardian_storage5testss_18test_get_all_scans
FNDA:1,_RNvNtCsO2HqpL7NDx_21code_guardian_storage5testss_20test_file_based_repo
FNDA:1,_RNvNtCsO2HqpL7NDx_21code_guardian_storage5testss_22test_save_and_get_scan
FNDA:1217,_RNCNvNtCsO2HqpL7NDx_21code_guardian_storage14proptest_tests9arb_match0B5_
FNDA:259,_RNvMCsO2HqpL7NDx_21code_guardian_storageNtB2_20SqliteScanRepository13new_in_memory
FNDA:261,_RNvMCsO2HqpL7NDx_21code_guardian_storageNtB2_20SqliteScanRepository7init_db
FNDA:1,_RNvXs_CsO2HqpL7NDx_21code_guardian_storageNtB4_20SqliteScanRepositoryNtB4_14ScanRepository11delete_scan
FNDA:2,_RNvXs_CsO2HqpL7NDx_21code_guardian_storageNtB4_20SqliteScanRepositoryNtB4_14ScanRepository13get_all_scans
FNDA:258,_RNvXs_CsO2HqpL7NDx_21code_guardian_storageNtB4_20SqliteScanRepositoryNtB4_14ScanRepository8get_scan
FNDA:261,_RNvXs_CsO2HqpL7NDx_21code_guardian_storageNtB4_20SqliteScanRepositoryNtB4_14ScanRepository9save_scan
FNDA:1,_RNvNtCsO2HqpL7NDx_21code_guardian_storage14proptest_tests9arb_match
FNF:16
FNH:16
DA:41,259
DA:42,259
DA:43,259
DA:44,259
DA:45,259
DA:48,43
DA:49,43
DA:50,42
DA:51,42
DA:52,43
DA:55,301
DA:56,301
DA:57,301
DA:58,301
DA:62,290
DA:63,290
DA:64,290
DA:65,290
DA:66,290
DA:67,290
DA:68,290
DA:69,1644
DA:70,1354
DA:71,1354
DA:72,1354
DA:73,1354
DA:75,290
DA:76,290
DA:77,290
DA:79,272
DA:80,272
DA:81,272
DA:82,272
DA:83,272
DA:84,272
DA:86,270
DA:87,270
DA:88,270
DA:89,270
DA:91,270
DA:92,272
DA:93,272
DA:94,270
DA:95,270
DA:96,0
DA:97,1236
DA:99,1236
DA:100,1236
DA:101,1236
DA:102,1236
DA:103,1236
DA:105,1236
DA:106,1506
DA:107,1236
DA:109,270
DA:111,2
DA:113,272
DA:115,6
DA:116,6
DA:117,6
DA:118,6
DA:119,7
DA:121,7
DA:122,7
DA:123,7
DA:124,7
DA:126,7
DA:127,6
DA:128,13
DA:129,7
DA:131,6
DA:132,6
DA:134,1
DA:135,1
DA:136,1
DA:137,1
DA:138,1
DA:139,1
DA:140,1
DA:150,1
DA:151,1
DA:152,1
DA:153,1
DA:154,1
DA:155,1
DA:156,1
DA:157,1
DA:158,1
DA:159,1
DA:160,1
DA:161,1
DA:162,1
DA:163,1
DA:164,1
DA:165,1
DA:166,1
DA:167,1
DA:168,1
DA:169,1
DA:170,1
DA:171,1
DA:172,1
DA:175,1
DA:176,1
DA:177,1
DA:178,1
DA:179,1
DA:180,1
DA:181,1
DA:182,1
DA:183,1
DA:184,1
DA:185,1
DA:186,1
DA:187,1
DA:188,1
DA:189,1
DA:190,1
DA:191,1
DA:192,1
DA:193,1
DA:194,1
DA:196,1
DA:197,1
DA:198,1
DA:201,1
DA:202,1
DA:203,1
DA:204,1
DA:205,1
DA:206,1
DA:207,1
DA:208,1
DA:209,1
DA:210,1
DA:211,1
DA:212,1
DA:213,1
DA:214,1
DA:215,1
DA:216,1
DA:217,1
DA:218,1
DA:221,1
DA:222,1
DA:223,1
DA:224,1
DA:225,1
DA:226,1
DA:227,1
DA:228,1
DA:229,1
DA:230,1
DA:231,1
DA:232,1
DA:233,1
DA:235,1
DA:236,1
DA:237,1
DA:239,1
DA:248,1
DA:249,1
DA:250,1
DA:251,1
DA:252,1
DA:253,1
DA:254,1
DA:255,1
DA:256,1
DA:257,1217
DA:258,1217
DA:259,1217
DA:260,1217
DA:261,1217
DA:262,1217
DA:263,1
BRF:0
BRH:0
LF:181
LH:178
end_of_record