SF:/workspaces/code-guardian/crates/cli/src/advanced_handlers.rs
FN:280,_RNCNCNCNCNvNtCs16s6DcJnmvZ_17code_guardian_cli17advanced_handlers18handle_distributed0000Bb_
FN:279,_RNCNCNCNvNtCs16s6DcJnmvZ_17code_guardian_cli17advanced_handlers18handle_distributed000B9_
FN:278,_RNCNCNvNtCs16s6DcJnmvZ_17code_guardian_cli17advanced_handlers18handle_distributed00B7_
FN:199,_RNCNvNtCs16s6DcJnmvZ_17code_guardian_cli17advanced_handlers18handle_distributed0B5_
FN:166,_RNCNvNtCs16s6DcJnmvZ_17code_guardian_cli17advanced_handlers18handle_incremental0B5_
FN:167,_RNCNvNtCs16s6DcJnmvZ_17code_guardian_cli17advanced_handlers18handle_incrementals_0B5_
FN:199,_RNvNtCs16s6DcJnmvZ_17code_guardian_cli17advanced_handlers18handle_distributed
FN:100,_RNvNtCs16s6DcJnmvZ_17code_guardian_cli17advanced_handlers18handle_incremental
FN:7,_RNvNtCs16s6DcJnmvZ_17code_guardian_cli17advanced_handlers23handle_custom_detectors
FN:280,_RNCNCNCNCNvNtCs65Py60REsPg_17code_guardian_cli17advanced_handlers18handle_distributed0000Bb_
FN:279,_RNCNCNCNvNtCs65Py60REsPg_17code_guardian_cli17advanced_handlers18handle_distributed000B9_
FN:278,_RNCNCNvNtCs65Py60REsPg_17code_guardian_cli17advanced_handlers18handle_distributed00B7_
FN:199,_RNCNvNtCs65Py60REsPg_17code_guardian_cli17advanced_handlers18handle_distributed0B5_
FN:166,_RNCNvNtCs65Py60REsPg_17code_guardian_cli17advanced_handlers18handle_incremental0B5_
FN:167,_RNCNvNtCs65Py60REsPg_17code_guardian_cli17advanced_handlers18handle_incrementals_0B5_
FN:199,_RNvNtCs65Py60REsPg_17code_guardian_cli17advanced_handlers18handle_distributed
FN:100,_RNvNtCs65Py60REsPg_17code_guardian_cli17advanced_handlers18handle_incremental
FN:7,_RNvNtCs65Py60REsPg_17code_guardian_cli17advanced_handlers23handle_custom_detectors
FN:280,_RNCNCNCNCNvNtCsi8MTORxUhGy_17code_guardian_cli17advanced_handlers18handle_distributed0000Bb_
FN:279,_RNCNCNCNvNtCsi8MTORxUhGy_17code_guardian_cli17advanced_handlers18handle_distributed000B9_
FN:278,_RNCNCNvNtCsi8MTORxUhGy_17code_guardian_cli17advanced_handlers18handle_distributed00B7_
FN:199,_RNCNvNtCsi8MTORxUhGy_17code_guardian_cli17advanced_handlers18handle_distributed0B5_
FN:166,_RNCNvNtCsi8MTORxUhGy_17code_guardian_cli17advanced_handlers18handle_incremental0B5_
FN:167,_RNCNvNtCsi8MTORxUhGy_17code_guardian_cli17advanced_handlers18handle_incrementals_0B5_
FN:199,_RNvNtCsi8MTORxUhGy_17code_guardian_cli17advanced_handlers18handle_distributed
FN:100,_RNvNtCsi8MTORxUhGy_17code_guardian_cli17advanced_handlers18handle_incremental
FN:7,_RNvNtCsi8MTORxUhGy_17code_guardian_cli17advanced_handlers23handle_custom_detectors
FN:166,_RNCNvNtCs5xHA0DhfRKe_17code_guardian_cli17advanced_handlers18handle_incremental0B5_
FN:167,_RNCNvNtCs5xHA0DhfRKe_17code_guardian_cli17advanced_handlers18handle_incrementals_0B5_
FNDA:2,_RNCNCNCNCNvNtCs16s6DcJnmvZ_17code_guardian_cli17advanced_handlers18handle_distributed0000Bb_
FNDA:2,_RNCNCNCNvNtCs16s6DcJnmvZ_17code_guardian_cli17advanced_handlers18handle_distributed000B9_
FNDA:2,_RNCNCNvNtCs16s6DcJnmvZ_17code_guardian_cli17advanced_handlers18handle_distributed00B7_
FNDA:2,_RNCNvNtCs16s6DcJnmvZ_17code_guardian_cli17advanced_handlers18handle_distributed0B5_
FNDA:0,_RNCNvNtCs16s6DcJnmvZ_17code_guardian_cli17advanced_handlers18handle_incremental0B5_
FNDA:0,_RNCNvNtCs16s6DcJnmvZ_17code_guardian_cli17advanced_handlers18handle_incrementals_0B5_
FNDA:2,_RNvNtCs16s6DcJnmvZ_17code_guardian_cli17advanced_handlers18handle_distributed
FNDA:2,_RNvNtCs16s6DcJnmvZ_17code_guardian_cli17advanced_handlers18handle_incremental
FNDA:5,_RNvNtCs16s6DcJnmvZ_17code_guardian_cli17advanced_handlers23handle_custom_detectors
FNDA:0,_RNCNCNCNCNvNtCs65Py60REsPg_17code_guardian_cli17advanced_handlers18handle_distributed0000Bb_
FNDA:0,_RNCNCNCNvNtCs65Py60REsPg_17code_guardian_cli17advanced_handlers18handle_distributed000B9_
FNDA:0,_RNCNCNvNtCs65Py60REsPg_17code_guardian_cli17advanced_handlers18handle_distributed00B7_
FNDA:0,_RNCNvNtCs65Py60REsPg_17code_guardian_cli17advanced_handlers18handle_distributed0B5_
FNDA:0,_RNCNvNtCs65Py60REsPg_17code_guardian_cli17advanced_handlers18handle_incremental0B5_
FNDA:0,_RNCNvNtCs65Py60REsPg_17code_guardian_cli17advanced_handlers18handle_incrementals_0B5_
FNDA:0,_RNvNtCs65Py60REsPg_17code_guardian_cli17advanced_handlers18handle_distributed
FNDA:0,_RNvNtCs65Py60REsPg_17code_guardian_cli17advanced_handlers18handle_incremental
FNDA:0,_RNvNtCs65Py60REsPg_17code_guardian_cli17advanced_handlers23handle_custom_detectors
FNDA:0,_RNCNCNCNCNvNtCsi8MTORxUhGy_17code_guardian_cli17advanced_handlers18handle_distributed0000Bb_
FNDA:0,_RNCNCNCNvNtCsi8MTORxUhGy_17code_guardian_cli17advanced_handlers18handle_distributed000B9_
FNDA:0,_RNCNCNvNtCsi8MTORxUhGy_17code_guardian_cli17advanced_handlers18handle_distributed00B7_
FNDA:0,_RNCNvNtCsi8MTORxUhGy_17code_guardian_cli17advanced_handlers18handle_distributed0B5_
FNDA:0,_RNCNvNtCsi8MTORxUhGy_17code_guardian_cli17advanced_handlers18handle_incremental0B5_
FNDA:0,_RNCNvNtCsi8MTORxUhGy_17code_guardian_cli17advanced_handlers18handle_incrementals_0B5_
FNDA:0,_RNvNtCsi8MTORxUhGy_17code_guardian_cli17advanced_handlers18handle_distributed
FNDA:0,_RNvNtCsi8MTORxUhGy_17code_guardian_cli17advanced_handlers18handle_incremental
FNDA:0,_RNvNtCsi8MTORxUhGy_17code_guardian_cli17advanced_handlers23handle_custom_detectors
FNDA:0,_RNCNvNtCs5xHA0DhfRKe_17code_guardian_cli17advanced_handlers18handle_incremental0B5_
FNDA:0,_RNCNvNtCs5xHA0DhfRKe_17code_guardian_cli17advanced_handlers18handle_incrementals_0B5_
FNF:9
FNH:7
DA:7,5
DA:8,5
DA:10,0
DA:11,0
DA:13,0
DA:14,0
DA:15,0
DA:16,0
DA:18,0
DA:19,0
DA:20,0
DA:21,0
DA:22,0
DA:23,0
DA:24,0
DA:25,0
DA:26,0
DA:27,0
DA:31,3
DA:32,3
DA:33,3
DA:34,3
DA:35,3
DA:36,3
DA:37,3
DA:41,1
DA:42,1
DA:43,1
DA:45,1
DA:46,1
DA:47,1
DA:48,1
DA:49,1
DA:52,4
DA:53,3
DA:54,3
DA:56,3
DA:57,3
DA:59,0
DA:66,1
DA:67,1
DA:69,1
DA:70,1
DA:72,1
DA:73,1
DA:75,1
DA:77,1
DA:78,4
DA:79,3
DA:80,3
DA:81,0
DA:82,0
DA:83,0
DA:84,0
DA:85,0
DA:86,3
DA:89,1
DA:90,1
DA:91,1
DA:92,0
DA:93,0
DA:97,5
DA:98,5
DA:100,2
DA:101,2
DA:103,2
DA:105,1
DA:106,1
DA:107,1
DA:108,1
DA:109,0
DA:112,0
DA:113,0
DA:114,0
DA:115,0
DA:116,0
DA:120,0
DA:121,0
DA:122,0
DA:124,0
DA:125,0
DA:127,0
DA:128,0
DA:129,0
DA:130,0
DA:131,0
DA:132,0
DA:133,0
DA:134,0
DA:138,1
DA:139,0
DA:140,0
DA:141,0
DA:142,1
DA:143,1
DA:144,1
DA:148,0
DA:149,0
DA:150,0
DA:151,0
DA:153,0
DA:154,0
DA:156,0
DA:157,0
DA:158,0
DA:160,0
DA:161,0
DA:162,0
DA:164,0
DA:165,0
DA:166,0
DA:167,0
DA:169,0
DA:170,0
DA:171,0
DA:180,0
DA:181,0
DA:182,0
DA:184,0
DA:185,0
DA:186,0
DA:187,0
DA:188,0
DA:189,0
DA:190,0
DA:191,0
DA:192,0
DA:196,1
DA:197,2
DA:199,2
DA:200,2
DA:201,1
DA:202,1
DA:203,1
DA:207,1
DA:209,2
DA:210,2
DA:211,2
DA:212,2
DA:213,2
DA:214,2
DA:215,2
DA:216,2
DA:217,2
DA:218,2
DA:219,2
DA:220,2
DA:221,2
DA:222,2
DA:223,2
DA:224,2
DA:225,2
DA:227,1
DA:228,1
DA:229,1
DA:230,1
DA:231,1
DA:232,1
DA:235,1
DA:236,1
DA:237,1
DA:243,1
DA:244,1
DA:245,1
DA:247,1
DA:248,1
DA:250,1
DA:253,2
DA:254,2
DA:255,2
DA:256,2
DA:257,2
DA:258,2
DA:259,2
DA:260,2
DA:261,2
DA:262,2
DA:263,2
DA:266,1
DA:267,1
DA:268,1
DA:270,1
DA:271,1
DA:272,1
DA:276,1
DA:277,1
DA:278,2
DA:279,2
DA:280,2
DA:281,1
DA:283,1
DA:285,2
DA:286,2
DA:287,1
DA:289,1
DA:290,1
DA:292,1
DA:294,1
DA:295,1
DA:296,1
DA:297,1
DA:298,1
DA:301,1
DA:302,1
DA:303,1
DA:304,1
DA:305,1
DA:306,1
DA:307,1
DA:308,1
DA:309,1
DA:310,1
DA:311,1
DA:313,1
DA:314,0
DA:315,1
DA:316,0
DA:320,2
DA:321,2
BRF:0
BRH:0
LF:225
LH:144
end_of_record
SF:/workspaces/code-guardian/crates/cli/src/benchmark.rs
FN:9,_RNvNtCs16s6DcJnmvZ_17code_guardian_cli9benchmark13run_benchmark
FN:124,_RNvNtCs16s6DcJnmvZ_17code_guardian_cli9benchmark22quick_performance_test
FN:62,_RNCNvNtCs16s6DcJnmvZ_17code_guardian_cli9benchmark13run_benchmark0B5_
FN:62,_RNCNvNtCs65Py60REsPg_17code_guardian_cli9benchmark13run_benchmark0B5_
FN:9,_RNvNtCs65Py60REsPg_17code_guardian_cli9benchmark13run_benchmark
FN:124,_RNvNtCs65Py60REsPg_17code_guardian_cli9benchmark22quick_performance_test
FN:62,_RNCNvNtCsi8MTORxUhGy_17code_guardian_cli9benchmark13run_benchmark0B5_
FN:9,_RNvNtCsi8MTORxUhGy_17code_guardian_cli9benchmark13run_benchmark
FN:124,_RNvNtCsi8MTORxUhGy_17code_guardian_cli9benchmark22quick_performance_test
FN:62,_RNCNvNtCs5xHA0DhfRKe_17code_guardian_cli9benchmark13run_benchmark0B5_
FN:9,_RNvNtCs5xHA0DhfRKe_17code_guardian_cli9benchmark13run_benchmark
FN:124,_RNvNtCs5xHA0DhfRKe_17code_guardian_cli9benchmark22quick_performance_test
FNDA:0,_RNvNtCs16s6DcJnmvZ_17code_guardian_cli9benchmark13run_benchmark
FNDA:1,_RNvNtCs16s6DcJnmvZ_17code_guardian_cli9benchmark22quick_performance_test
FNDA:0,_RNCNvNtCs16s6DcJnmvZ_17code_guardian_cli9benchmark13run_benchmark0B5_
FNDA:0,_RNCNvNtCs65Py60REsPg_17code_guardian_cli9benchmark13run_benchmark0B5_
FNDA:0,_RNvNtCs65Py60REsPg_17code_guardian_cli9benchmark13run_benchmark
FNDA:0,_RNvNtCs65Py60REsPg_17code_guardian_cli9benchmark22quick_performance_test
FNDA:0,_RNCNvNtCsi8MTORxUhGy_17code_guardian_cli9benchmark13run_benchmark0B5_
FNDA:0,_RNvNtCsi8MTORxUhGy_17code_guardian_cli9benchmark13run_benchmark
FNDA:0,_RNvNtCsi8MTORxUhGy_17code_guardian_cli9benchmark22quick_performance_test
FNDA:0,_RNCNvNtCs5xHA0DhfRKe_17code_guardian_cli9benchmark13run_benchmark0B5_
FNDA:1,_RNvNtCs5xHA0DhfRKe_17code_guardian_cli9benchmark13run_benchmark
FNDA:0,_RNvNtCs5xHA0DhfRKe_17code_guardian_cli9benchmark22quick_performance_test
FNF:3
FNH:2
DA:9,1
DA:10,1
DA:11,1
DA:13,1
DA:14,1
DA:17,1
DA:18,1
DA:19,1
DA:20,1
DA:21,1
DA:22,1
DA:23,1
DA:24,1
DA:27,1
DA:28,1
DA:29,1
DA:30,1
DA:31,1
DA:32,1
DA:33,1
DA:34,1
DA:37,1
DA:38,1
DA:39,1
DA:40,1
DA:41,1
DA:42,1
DA:43,1
DA:44,1
DA:45,1
DA:46,1
DA:49,1
DA:50,1
DA:53,1
DA:54,1
DA:55,1
DA:58,1
DA:59,1
DA:60,1
DA:61,1
DA:62,1
DA:63,0
DA:64,0
DA:65,1
DA:66,0
DA:67,0
DA:68,0
DA:69,0
DA:70,0
DA:73,0
DA:74,0
DA:77,0
DA:80,0
DA:81,0
DA:83,0
DA:84,0
DA:85,0
DA:86,0
DA:87,0
DA:88,0
DA:89,0
DA:90,0
DA:92,0
DA:93,0
DA:94,0
DA:95,0
DA:96,0
DA:97,0
DA:99,0
DA:100,0
DA:101,0
DA:102,0
DA:103,0
DA:104,0
DA:106,0
DA:107,0
DA:108,0
DA:109,0
DA:110,0
DA:111,0
DA:112,0
DA:113,0
DA:114,0
DA:115,0
DA:117,0
DA:118,0
DA:120,0
DA:121,1
DA:124,1
DA:125,1
DA:126,1
DA:128,1
DA:129,1
DA:130,1
DA:131,1
DA:133,1
DA:134,1
DA:135,1
DA:136,1
DA:137,1
DA:138,1
DA:139,1
DA:140,1
DA:142,1
DA:143,1
DA:144,1
DA:147,1
DA:148,0
DA:149,0
DA:150,0
DA:151,1
DA:153,1
DA:154,1
BRF:0
BRH:0
LF:115
LH:65
end_of_record
SF:/workspaces/code-guardian/crates/cli/src/command_handlers.rs
FN:64,_RNvNtCs16s6DcJnmvZ_17code_guardian_cli16command_handlers10handle_git
FN:15,_RNvNtCs16s6DcJnmvZ_17code_guardian_cli16command_handlers14handle_history
FN:48,_RNvNtCs16s6DcJnmvZ_17code_guardian_cli16command_handlers16handle_benchmark
FN:40,_RNvNtCs16s6DcJnmvZ_17code_guardian_cli16command_handlers17handle_completion
FN:49,_RNCNvNtCs16s6DcJnmvZ_17code_guardian_cli16command_handlers16handle_benchmark0B5_
FN:49,_RNCNvNtCs65Py60REsPg_17code_guardian_cli16command_handlers16handle_benchmark0B5_
FN:64,_RNvNtCs65Py60REsPg_17code_guardian_cli16command_handlers10handle_git
FN:15,_RNvNtCs65Py60REsPg_17code_guardian_cli16command_handlers14handle_history
FN:48,_RNvNtCs65Py60REsPg_17code_guardian_cli16command_handlers16handle_benchmark
FN:40,_RNvNtCs65Py60REsPg_17code_guardian_cli16command_handlers17handle_completion
FN:49,_RNCNvNtCsi8MTORxUhGy_17code_guardian_cli16command_handlers16handle_benchmark0B5_
FN:64,_RNvNtCsi8MTORxUhGy_17code_guardian_cli16command_handlers10handle_git
FN:15,_RNvNtCsi8MTORxUhGy_17code_guardian_cli16command_handlers14handle_history
FN:48,_RNvNtCsi8MTORxUhGy_17code_guardian_cli16command_handlers16handle_benchmark
FN:40,_RNvNtCsi8MTORxUhGy_17code_guardian_cli16command_handlers17handle_completion
FN:49,_RNCNvNtCs5xHA0DhfRKe_17code_guardian_cli16command_handlers16handle_benchmark0B5_
FN:64,_RNvNtCs5xHA0DhfRKe_17code_guardian_cli16command_handlers10handle_git
FN:15,_RNvNtCs5xHA0DhfRKe_17code_guardian_cli16command_handlers14handle_history
FN:48,_RNvNtCs5xHA0DhfRKe_17code_guardian_cli16command_handlers16handle_benchmark
FN:40,_RNvNtCs5xHA0DhfRKe_17code_guardian_cli16command_handlers17handle_completion
FNDA:0,_RNvNtCs16s6DcJnmvZ_17code_guardian_cli16command_handlers10handle_git
FNDA:1,_RNvNtCs16s6DcJnmvZ_17code_guardian_cli16command_handlers14handle_history
FNDA:1,_RNvNtCs16s6DcJnmvZ_17code_guardian_cli16command_handlers16handle_benchmark
FNDA:1,_RNvNtCs16s6DcJnmvZ_17code_guardian_cli16command_handlers17handle_completion
FNDA:0,_RNCNvNtCs16s6DcJnmvZ_17code_guardian_cli16command_handlers16handle_benchmark0B5_
FNDA:0,_RNCNvNtCs65Py60REsPg_17code_guardian_cli16command_handlers16handle_benchmark0B5_
FNDA:0,_RNvNtCs65Py60REsPg_17code_guardian_cli16command_handlers10handle_git
FNDA:0,_RNvNtCs65Py60REsPg_17code_guardian_cli16command_handlers14handle_history
FNDA:0,_RNvNtCs65Py60REsPg_17code_guardian_cli16command_handlers16handle_benchmark
FNDA:0,_RNvNtCs65Py60REsPg_17code_guardian_cli16command_handlers17handle_completion
FNDA:0,_RNCNvNtCsi8MTORxUhGy_17code_guardian_cli16command_handlers16handle_benchmark0B5_
FNDA:0,_RNvNtCsi8MTORxUhGy_17code_guardian_cli16command_handlers10handle_git
FNDA:0,_RNvNtCsi8MTORxUhGy_17code_guardian_cli16command_handlers14handle_history
FNDA:0,_RNvNtCsi8MTORxUhGy_17code_guardian_cli16command_handlers16handle_benchmark
FNDA:0,_RNvNtCsi8MTORxUhGy_17code_guardian_cli16command_handlers17handle_completion
FNDA:0,_RNCNvNtCs5xHA0DhfRKe_17code_guardian_cli16command_handlers16handle_benchmark0B5_
FNDA:0,_RNvNtCs5xHA0DhfRKe_17code_guardian_cli16command_handlers10handle_git
FNDA:1,_RNvNtCs5xHA0DhfRKe_17code_guardian_cli16command_handlers14handle_history
FNDA:1,_RNvNtCs5xHA0DhfRKe_17code_guardian_cli16command_handlers16handle_benchmark
FNDA:0,_RNvNtCs5xHA0DhfRKe_17code_guardian_cli16command_handlers17handle_completion
FNF:5
FNH:3
DA:15,2
DA:16,2
DA:17,2
DA:18,1
DA:20,1
DA:21,0
DA:22,0
DA:23,1
DA:25,1
DA:26,2
DA:27,1
DA:28,1
DA:29,1
DA:30,1
DA:31,1
DA:32,1
DA:33,1
DA:34,1
DA:35,1
DA:36,1
DA:37,2
DA:40,1
DA:41,1
DA:42,1
DA:43,1
DA:44,1
DA:45,1
DA:48,2
DA:49,2
DA:51,2
DA:52,1
DA:54,1
DA:56,2
DA:64,0
DA:65,0
DA:66,0
DA:67,0
DA:69,0
DA:70,0
DA:71,0
DA:72,0
DA:74,0
DA:75,0
DA:77,0
DA:78,0
DA:79,0
DA:81,0
DA:82,0
DA:84,0
DA:85,0
DA:86,0
DA:87,0
DA:89,0
DA:90,0
DA:91,0
DA:93,0
DA:94,0
DA:96,0
DA:97,0
DA:98,0
DA:99,0
DA:101,0
DA:102,0
DA:104,0
DA:105,0
DA:106,0
DA:107,0
DA:108,0
DA:109,0
DA:110,0
DA:112,0
DA:115,0
BRF:0
BRH:0
LF:73
LH:30
end_of_record
SF:/workspaces/code-guardian/crates/cli/src/comparison_handlers.rs
FN:25,_RNvNtCs16s6DcJnmvZ_17code_guardian_cli19comparison_handlers13compare_scans
FN:9,_RNvNtCs16s6DcJnmvZ_17code_guardian_cli19comparison_handlers14handle_compare
FN:31,_RNCNvNtCs16s6DcJnmvZ_17code_guardian_cli19comparison_handlers13compare_scans0B5_
FN:36,_RNCNvNtCs16s6DcJnmvZ_17code_guardian_cli19comparison_handlers13compare_scanss_0B5_
FN:31,_RNCNvNtCs65Py60REsPg_17code_guardian_cli19comparison_handlers13compare_scans0B5_
FN:36,_RNCNvNtCs65Py60REsPg_17code_guardian_cli19comparison_handlers13compare_scanss_0B5_
FN:25,_RNvNtCs65Py60REsPg_17code_guardian_cli19comparison_handlers13compare_scans
FN:9,_RNvNtCs65Py60REsPg_17code_guardian_cli19comparison_handlers14handle_compare
FN:31,_RNCNvNtCsi8MTORxUhGy_17code_guardian_cli19comparison_handlers13compare_scans0B5_
FN:36,_RNCNvNtCsi8MTORxUhGy_17code_guardian_cli19comparison_handlers13compare_scanss_0B5_
FN:25,_RNvNtCsi8MTORxUhGy_17code_guardian_cli19comparison_handlers13compare_scans
FN:9,_RNvNtCsi8MTORxUhGy_17code_guardian_cli19comparison_handlers14handle_compare
FN:31,_RNCNvNtCs5xHA0DhfRKe_17code_guardian_cli19comparison_handlers13compare_scans0B5_
FN:36,_RNCNvNtCs5xHA0DhfRKe_17code_guardian_cli19comparison_handlers13compare_scanss_0B5_
FNDA:2,_RNvNtCs16s6DcJnmvZ_17code_guardian_cli19comparison_handlers13compare_scans
FNDA:2,_RNvNtCs16s6DcJnmvZ_17code_guardian_cli19comparison_handlers14handle_compare
FNDA:2,_RNCNvNtCs16s6DcJnmvZ_17code_guardian_cli19comparison_handlers13compare_scans0B5_
FNDA:4,_RNCNvNtCs16s6DcJnmvZ_17code_guardian_cli19comparison_handlers13compare_scanss_0B5_
FNDA:0,_RNCNvNtCs65Py60REsPg_17code_guardian_cli19comparison_handlers13compare_scans0B5_
FNDA:0,_RNCNvNtCs65Py60REsPg_17code_guardian_cli19comparison_handlers13compare_scanss_0B5_
FNDA:0,_RNvNtCs65Py60REsPg_17code_guardian_cli19comparison_handlers13compare_scans
FNDA:0,_RNvNtCs65Py60REsPg_17code_guardian_cli19comparison_handlers14handle_compare
FNDA:0,_RNCNvNtCsi8MTORxUhGy_17code_guardian_cli19comparison_handlers13compare_scans0B5_
FNDA:0,_RNCNvNtCsi8MTORxUhGy_17code_guardian_cli19comparison_handlers13compare_scanss_0B5_
FNDA:0,_RNvNtCsi8MTORxUhGy_17code_guardian_cli19comparison_handlers13compare_scans
FNDA:0,_RNvNtCsi8MTORxUhGy_17code_guardian_cli19comparison_handlers14handle_compare
FNDA:0,_RNCNvNtCs5xHA0DhfRKe_17code_guardian_cli19comparison_handlers13compare_scans0B5_
FNDA:0,_RNCNvNtCs5xHA0DhfRKe_17code_guardian_cli19comparison_handlers13compare_scanss_0B5_
FNF:4
FNH:4
DA:9,2
DA:10,2
DA:11,2
DA:12,2
DA:13,2
DA:14,2
DA:15,2
DA:16,2
DA:17,2
DA:18,2
DA:19,2
DA:20,0
DA:22,2
DA:23,2
DA:25,2
DA:28,2
DA:29,2
DA:30,2
DA:31,2
DA:32,2
DA:33,2
DA:34,2
DA:35,2
DA:36,4
DA:37,2
DA:38,2
DA:39,2
BRF:0
BRH:0
LF:29
LH:28
end_of_record
SF:/workspaces/code-guardian/crates/cli/src/git_integration.rs
FN:182,_RNCNvNtCs16s6DcJnmvZ_17code_guardian_cli15git_integration14parse_git_diff0B5_
FN:60,_RNvMNtCs16s6DcJnmvZ_17code_guardian_cli15git_integrationNtB2_14GitIntegration16get_staged_lines
FN:159,_RNvNtCs16s6DcJnmvZ_17code_guardian_cli15git_integration14parse_git_diff
FN:49,_RNvMNtCs16s6DcJnmvZ_17code_guardian_cli15git_integrationNtB2_14GitIntegration11is_git_repo
FN:33,_RNvMNtCs16s6DcJnmvZ_17code_guardian_cli15git_integrationNtB2_14GitIntegration13get_repo_root
FN:10,_RNvMNtCs16s6DcJnmvZ_17code_guardian_cli15git_integrationNtB2_14GitIntegration16get_staged_files
FN:76,_RNvMNtCs16s6DcJnmvZ_17code_guardian_cli15git_integrationNtB2_14GitIntegration23install_pre_commit_hook
FN:117,_RNvMNtCs16s6DcJnmvZ_17code_guardian_cli15git_integrationNtB2_14GitIntegration25uninstall_pre_commit_hook
FN:54,_RNCNvMNtCs16s6DcJnmvZ_17code_guardian_cli15git_integrationNtB4_14GitIntegration11is_git_repo0B6_
FN:24,_RNCNvMNtCs16s6DcJnmvZ_17code_guardian_cli15git_integrationNtB4_14GitIntegration16get_staged_files0B6_
FN:26,_RNCNvMNtCs16s6DcJnmvZ_17code_guardian_cli15git_integrationNtB4_14GitIntegration16get_staged_filess0_0B6_
FN:25,_RNCNvMNtCs16s6DcJnmvZ_17code_guardian_cli15git_integrationNtB4_14GitIntegration16get_staged_filess_0B6_
FN:258,_RNvNtNtCs65Py60REsPg_17code_guardian_cli15git_integration5testss_15test_line_range
FN:252,_RNvNtNtCs65Py60REsPg_17code_guardian_cli15git_integration5testss_16test_is_git_repo
FN:233,_RNvNtNtCs65Py60REsPg_17code_guardian_cli15git_integration5testss_26test_git_integration_basic
FN:54,_RNCNvMNtCs65Py60REsPg_17code_guardian_cli15git_integrationNtB4_14GitIntegration11is_git_repo0B6_
FN:49,_RNvMNtCs65Py60REsPg_17code_guardian_cli15git_integrationNtB2_14GitIntegration11is_git_repo
FN:24,_RNCNvMNtCs65Py60REsPg_17code_guardian_cli15git_integrationNtB4_14GitIntegration16get_staged_files0B6_
FN:26,_RNCNvMNtCs65Py60REsPg_17code_guardian_cli15git_integrationNtB4_14GitIntegration16get_staged_filess0_0B6_
FN:25,_RNCNvMNtCs65Py60REsPg_17code_guardian_cli15git_integrationNtB4_14GitIntegration16get_staged_filess_0B6_
FN:182,_RNCNvNtCs65Py60REsPg_17code_guardian_cli15git_integration14parse_git_diff0B5_
FN:33,_RNvMNtCs65Py60REsPg_17code_guardian_cli15git_integrationNtB2_14GitIntegration13get_repo_root
FN:10,_RNvMNtCs65Py60REsPg_17code_guardian_cli15git_integrationNtB2_14GitIntegration16get_staged_files
FN:60,_RNvMNtCs65Py60REsPg_17code_guardian_cli15git_integrationNtB2_14GitIntegration16get_staged_lines
FN:76,_RNvMNtCs65Py60REsPg_17code_guardian_cli15git_integrationNtB2_14GitIntegration23install_pre_commit_hook
FN:117,_RNvMNtCs65Py60REsPg_17code_guardian_cli15git_integrationNtB2_14GitIntegration25uninstall_pre_commit_hook
FN:159,_RNvNtCs65Py60REsPg_17code_guardian_cli15git_integration14parse_git_diff
FN:24,_RNCNvMNtCsi8MTORxUhGy_17code_guardian_cli15git_integrationNtB4_14GitIntegration16get_staged_files0B6_
FN:26,_RNCNvMNtCsi8MTORxUhGy_17code_guardian_cli15git_integrationNtB4_14GitIntegration16get_staged_filess0_0B6_
FN:25,_RNCNvMNtCsi8MTORxUhGy_17code_guardian_cli15git_integrationNtB4_14GitIntegration16get_staged_filess_0B6_
FN:182,_RNCNvNtCsi8MTORxUhGy_17code_guardian_cli15git_integration14parse_git_diff0B5_
FN:33,_RNvMNtCsi8MTORxUhGy_17code_guardian_cli15git_integrationNtB2_14GitIntegration13get_repo_root
FN:10,_RNvMNtCsi8MTORxUhGy_17code_guardian_cli15git_integrationNtB2_14GitIntegration16get_staged_files
FN:60,_RNvMNtCsi8MTORxUhGy_17code_guardian_cli15git_integrationNtB2_14GitIntegration16get_staged_lines
FN:76,_RNvMNtCsi8MTORxUhGy_17code_guardian_cli15git_integrationNtB2_14GitIntegration23install_pre_commit_hook
FN:117,_RNvMNtCsi8MTORxUhGy_17code_guardian_cli15git_integrationNtB2_14GitIntegration25uninstall_pre_commit_hook
FN:159,_RNvNtCsi8MTORxUhGy_17code_guardian_cli15git_integration14parse_git_diff
FN:49,_RNvMNtCsi8MTORxUhGy_17code_guardian_cli15git_integrationNtB2_14GitIntegration11is_git_repo
FN:54,_RNCNvMNtCsi8MTORxUhGy_17code_guardian_cli15git_integrationNtB4_14GitIntegration11is_git_repo0B6_
FN:258,_RNvNtNtCsi8MTORxUhGy_17code_guardian_cli15git_integration5testss_15test_line_range
FN:252,_RNvNtNtCsi8MTORxUhGy_17code_guardian_cli15git_integration5testss_16test_is_git_repo
FN:233,_RNvNtNtCsi8MTORxUhGy_17code_guardian_cli15git_integration5testss_26test_git_integration_basic
FN:49,_RNvMNtCs5xHA0DhfRKe_17code_guardian_cli15git_integrationNtB2_14GitIntegration11is_git_repo
FN:33,_RNvMNtCs5xHA0DhfRKe_17code_guardian_cli15git_integrationNtB2_14GitIntegration13get_repo_root
FN:10,_RNvMNtCs5xHA0DhfRKe_17code_guardian_cli15git_integrationNtB2_14GitIntegration16get_staged_files
FN:60,_RNvMNtCs5xHA0DhfRKe_17code_guardian_cli15git_integrationNtB2_14GitIntegration16get_staged_lines
FN:76,_RNvMNtCs5xHA0DhfRKe_17code_guardian_cli15git_integrationNtB2_14GitIntegration23install_pre_commit_hook
FN:117,_RNvMNtCs5xHA0DhfRKe_17code_guardian_cli15git_integrationNtB2_14GitIntegration25uninstall_pre_commit_hook
FN:159,_RNvNtCs5xHA0DhfRKe_17code_guardian_cli15git_integration14parse_git_diff
FN:54,_RNCNvMNtCs5xHA0DhfRKe_17code_guardian_cli15git_integrationNtB4_14GitIntegration11is_git_repo0B6_
FN:24,_RNCNvMNtCs5xHA0DhfRKe_17code_guardian_cli15git_integrationNtB4_14GitIntegration16get_staged_files0B6_
FN:26,_RNCNvMNtCs5xHA0DhfRKe_17code_guardian_cli15git_integrationNtB4_14GitIntegration16get_staged_filess0_0B6_
FN:25,_RNCNvMNtCs5xHA0DhfRKe_17code_guardian_cli15git_integrationNtB4_14GitIntegration16get_staged_filess_0B6_
FN:182,_RNCNvNtCs5xHA0DhfRKe_17code_guardian_cli15git_integration14parse_git_diff0B5_
FNDA:0,_RNCNvNtCs16s6DcJnmvZ_17code_guardian_cli15git_integration14parse_git_diff0B5_
FNDA:0,_RNvMNtCs16s6DcJnmvZ_17code_guardian_cli15git_integrationNtB2_14GitIntegration16get_staged_lines
FNDA:0,_RNvNtCs16s6DcJnmvZ_17code_guardian_cli15git_integration14parse_git_diff
FNDA:0,_RNvMNtCs16s6DcJnmvZ_17code_guardian_cli15git_integrationNtB2_14GitIntegration11is_git_repo
FNDA:0,_RNvMNtCs16s6DcJnmvZ_17code_guardian_cli15git_integrationNtB2_14GitIntegration13get_repo_root
FNDA:0,_RNvMNtCs16s6DcJnmvZ_17code_guardian_cli15git_integrationNtB2_14GitIntegration16get_staged_files
FNDA:0,_RNvMNtCs16s6DcJnmvZ_17code_guardian_cli15git_integrationNtB2_14GitIntegration23install_pre_commit_hook
FNDA:0,_RNvMNtCs16s6DcJnmvZ_17code_guardian_cli15git_integrationNtB2_14GitIntegration25uninstall_pre_commit_hook
FNDA:0,_RNCNvMNtCs16s6DcJnmvZ_17code_guardian_cli15git_integrationNtB4_14GitIntegration11is_git_repo0B6_
FNDA:0,_RNCNvMNtCs16s6DcJnmvZ_17code_guardian_cli15git_integrationNtB4_14GitIntegration16get_staged_files0B6_
FNDA:0,_RNCNvMNtCs16s6DcJnmvZ_17code_guardian_cli15git_integrationNtB4_14GitIntegration16get_staged_filess0_0B6_
FNDA:0,_RNCNvMNtCs16s6DcJnmvZ_17code_guardian_cli15git_integrationNtB4_14GitIntegration16get_staged_filess_0B6_
FNDA:1,_RNvNtNtCs65Py60REsPg_17code_guardian_cli15git_integration5testss_15test_line_range
FNDA:1,_RNvNtNtCs65Py60REsPg_17code_guardian_cli15git_integration5testss_16test_is_git_repo
FNDA:1,_RNvNtNtCs65Py60REsPg_17code_guardian_cli15git_integration5testss_26test_git_integration_basic
FNDA:1,_RNCNvMNtCs65Py60REsPg_17code_guardian_cli15git_integrationNtB4_14GitIntegration11is_git_repo0B6_
FNDA:1,_RNvMNtCs65Py60REsPg_17code_guardian_cli15git_integrationNtB2_14GitIntegration11is_git_repo
FNDA:0,_RNCNvMNtCs65Py60REsPg_17code_guardian_cli15git_integrationNtB4_14GitIntegration16get_staged_files0B6_
FNDA:0,_RNCNvMNtCs65Py60REsPg_17code_guardian_cli15git_integrationNtB4_14GitIntegration16get_staged_filess0_0B6_
FNDA:0,_RNCNvMNtCs65Py60REsPg_17code_guardian_cli15git_integrationNtB4_14GitIntegration16get_staged_filess_0B6_
FNDA:0,_RNCNvNtCs65Py60REsPg_17code_guardian_cli15git_integration14parse_git_diff0B5_
FNDA:0,_RNvMNtCs65Py60REsPg_17code_guardian_cli15git_integrationNtB2_14GitIntegration13get_repo_root
FNDA:0,_RNvMNtCs65Py60REsPg_17code_guardian_cli15git_integrationNtB2_14GitIntegration16get_staged_files
FNDA:0,_RNvMNtCs65Py60REsPg_17code_guardian_cli15git_integrationNtB2_14GitIntegration16get_staged_lines
FNDA:0,_RNvMNtCs65Py60REsPg_17code_guardian_cli15git_integrationNtB2_14GitIntegration23install_pre_commit_hook
FNDA:0,_RNvMNtCs65Py60REsPg_17code_guardian_cli15git_integrationNtB2_14GitIntegration25uninstall_pre_commit_hook
FNDA:0,_RNvNtCs65Py60REsPg_17code_guardian_cli15git_integration14parse_git_diff
FNDA:0,_RNCNvMNtCsi8MTORxUhGy_17code_guardian_cli15git_integrationNtB4_14GitIntegration16get_staged_files0B6_
FNDA:0,_RNCNvMNtCsi8MTORxUhGy_17code_guardian_cli15git_integrationNtB4_14GitIntegration16get_staged_filess0_0B6_
FNDA:0,_RNCNvMNtCsi8MTORxUhGy_17code_guardian_cli15git_integrationNtB4_14GitIntegration16get_staged_filess_0B6_
FNDA:0,_RNCNvNtCsi8MTORxUhGy_17code_guardian_cli15git_integration14parse_git_diff0B5_
FNDA:0,_RNvMNtCsi8MTORxUhGy_17code_guardian_cli15git_integrationNtB2_14GitIntegration13get_repo_root
FNDA:0,_RNvMNtCsi8MTORxUhGy_17code_guardian_cli15git_integrationNtB2_14GitIntegration16get_staged_files
FNDA:0,_RNvMNtCsi8MTORxUhGy_17code_guardian_cli15git_integrationNtB2_14GitIntegration16get_staged_lines
FNDA:0,_RNvMNtCsi8MTORxUhGy_17code_guardian_cli15git_integrationNtB2_14GitIntegration23install_pre_commit_hook
FNDA:0,_RNvMNtCsi8MTORxUhGy_17code_guardian_cli15git_integrationNtB2_14GitIntegration25uninstall_pre_commit_hook
FNDA:0,_RNvNtCsi8MTORxUhGy_17code_guardian_cli15git_integration14parse_git_diff
FNDA:1,_RNvMNtCsi8MTORxUhGy_17code_guardian_cli15git_integrationNtB2_14GitIntegration11is_git_repo
FNDA:1,_RNCNvMNtCsi8MTORxUhGy_17code_guardian_cli15git_integrationNtB4_14GitIntegration11is_git_repo0B6_
FNDA:1,_RNvNtNtCsi8MTORxUhGy_17code_guardian_cli15git_integration5testss_15test_line_range
FNDA:1,_RNvNtNtCsi8MTORxUhGy_17code_guardian_cli15git_integration5testss_16test_is_git_repo
FNDA:1,_RNvNtNtCsi8MTORxUhGy_17code_guardian_cli15git_integration5testss_26test_git_integration_basic
FNDA:0,_RNvMNtCs5xHA0DhfRKe_17code_guardian_cli15git_integrationNtB2_14GitIntegration11is_git_repo
FNDA:0,_RNvMNtCs5xHA0DhfRKe_17code_guardian_cli15git_integrationNtB2_14GitIntegration13get_repo_root
FNDA:0,_RNvMNtCs5xHA0DhfRKe_17code_guardian_cli15git_integrationNtB2_14GitIntegration16get_staged_files
FNDA:0,_RNvMNtCs5xHA0DhfRKe_17code_guardian_cli15git_integrationNtB2_14GitIntegration16get_staged_lines
FNDA:0,_RNvMNtCs5xHA0DhfRKe_17code_guardian_cli15git_integrationNtB2_14GitIntegration23install_pre_commit_hook
FNDA:0,_RNvMNtCs5xHA0DhfRKe_17code_guardian_cli15git_integrationNtB2_14GitIntegration25uninstall_pre_commit_hook
FNDA:0,_RNvNtCs5xHA0DhfRKe_17code_guardian_cli15git_integration14parse_git_diff
FNDA:0,_RNCNvMNtCs5xHA0DhfRKe_17code_guardian_cli15git_integrationNtB4_14GitIntegration11is_git_repo0B6_
FNDA:0,_RNCNvMNtCs5xHA0DhfRKe_17code_guardian_cli15git_integrationNtB4_14GitIntegration16get_staged_files0B6_
FNDA:0,_RNCNvMNtCs5xHA0DhfRKe_17code_guardian_cli15git_integrationNtB4_14GitIntegration16get_staged_filess0_0B6_
FNDA:0,_RNCNvMNtCs5xHA0DhfRKe_17code_guardian_cli15git_integrationNtB4_14GitIntegration16get_staged_filess_0B6_
FNDA:0,_RNCNvNtCs5xHA0DhfRKe_17code_guardian_cli15git_integration14parse_git_diff0B5_
FNF:15
FNH:5
DA:10,0
DA:11,0
DA:12,0
DA:13,0
DA:14,0
DA:16,0
DA:17,0
DA:18,0
DA:19,0
DA:21,0
DA:22,0
DA:23,0
DA:24,0
DA:25,0
DA:26,0
DA:27,0
DA:29,0
DA:30,0
DA:33,0
DA:34,0
DA:35,0
DA:36,0
DA:37,0
DA:39,0
DA:40,0
DA:41,0
DA:43,0
DA:44,0
DA:45,0
DA:46,0
DA:49,2
DA:50,2
DA:51,2
DA:52,2
DA:53,2
DA:54,2
DA:55,2
DA:56,2
DA:60,0
DA:61,0
DA:62,0
DA:63,0
DA:64,0
DA:66,0
DA:67,0
DA:68,0
DA:69,0
DA:71,0
DA:72,0
DA:73,0
DA:76,0
DA:77,0
DA:78,0
DA:81,0
DA:84,0
DA:85,0
DA:86,0
DA:87,0
DA:88,0
DA:89,0
DA:90,0
DA:91,0
DA:92,0
DA:93,0
DA:94,0
DA:95,0
DA:96,0
DA:97,0
DA:99,0
DA:105,0
DA:106,0
DA:107,0
DA:110,0
DA:111,0
DA:113,0
DA:114,0
DA:117,0
DA:118,0
DA:120,0
DA:122,0
DA:123,0
DA:124,0
DA:125,0
DA:126,0
DA:127,0
DA:128,0
DA:129,0
DA:130,0
DA:131,0
DA:132,0
DA:133,0
DA:134,0
DA:136,0
DA:137,0
DA:159,0
DA:160,0
DA:161,0
DA:162,0
DA:163,0
DA:165,0
DA:166,0
DA:168,0
DA:169,0
DA:170,0
DA:171,0
DA:172,0
DA:173,0
DA:174,0
DA:175,0
DA:177,0
DA:178,0
DA:179,0
DA:180,0
DA:182,0
DA:183,0
DA:184,0
DA:186,0
DA:187,0
DA:188,0
DA:189,0
DA:191,0
DA:192,0
DA:193,0
DA:194,0
DA:195,0
DA:196,0
DA:199,0
DA:200,0
DA:201,0
DA:202,0
DA:204,0
DA:205,0
DA:206,0
DA:207,0
DA:208,0
DA:209,0
DA:210,0
DA:211,0
DA:212,0
DA:216,0
DA:217,0
DA:218,0
DA:219,0
DA:220,0
DA:221,0
DA:222,0
DA:224,0
DA:225,0
DA:233,2
DA:235,2
DA:236,2
DA:237,2
DA:240,2
DA:241,2
DA:242,2
DA:243,2
DA:244,2
DA:245,2
DA:247,2
DA:248,2
DA:249,2
DA:252,2
DA:253,2
DA:254,2
DA:255,2
DA:258,2
DA:259,2
DA:260,2
DA:261,2
DA:262,2
BRF:0
BRH:0
LF:175
LH:31
end_of_record
SF:/workspaces/code-guardian/crates/cli/src/main.rs
FN:27,_RNCNvCs16s6DcJnmvZ_17code_guardian_cli4main0B3_
FN:27,_RNvCs16s6DcJnmvZ_17code_guardian_cli4main
FN:27,_RNCNvCs65Py60REsPg_17code_guardian_cli4main0B3_
FN:27,_RNvCs65Py60REsPg_17code_guardian_cli4main
FNDA:31,_RNCNvCs16s6DcJnmvZ_17code_guardian_cli4main0B3_
FNDA:31,_RNvCs16s6DcJnmvZ_17code_guardian_cli4main
FNDA:0,_RNCNvCs65Py60REsPg_17code_guardian_cli4main0B3_
FNDA:0,_RNvCs65Py60REsPg_17code_guardian_cli4main
FNF:2
FNH:2
DA:27,31
DA:29,31
DA:30,31
DA:31,31
DA:33,31
DA:35,31
DA:36,31
DA:37,31
DA:38,31
DA:39,31
DA:40,31
DA:41,31
DA:42,31
DA:43,31
DA:44,31
DA:45,31
DA:46,31
DA:47,31
DA:48,31
DA:49,31
DA:50,31
DA:51,31
DA:52,31
DA:53,31
DA:54,10
DA:55,10
DA:56,10
DA:57,10
DA:58,10
DA:59,10
DA:60,10
DA:61,10
DA:62,10
DA:63,10
DA:64,10
DA:65,10
DA:66,10
DA:67,10
DA:68,10
DA:69,10
DA:70,31
DA:71,31
DA:72,31
DA:73,31
DA:74,31
DA:75,31
DA:76,31
DA:77,31
DA:78,31
DA:79,31
DA:80,31
DA:81,31
DA:82,31
DA:83,31
DA:84,31
DA:85,31
DA:86,31
DA:87,31
DA:88,31
DA:89,31
DA:90,31
DA:91,31
DA:92,31
DA:93,31
DA:94,31
DA:95,31
DA:96,31
DA:97,31
DA:98,31
DA:99,31
DA:100,31
DA:101,31
DA:102,31
DA:103,31
DA:104,31
DA:105,31
DA:106,31
DA:107,31
DA:108,31
DA:109,31
DA:110,31
DA:111,31
DA:112,31
DA:113,31
DA:114,31
DA:115,31
DA:116,31
DA:117,31
DA:118,31
DA:119,31
DA:120,31
DA:121,31
DA:122,31
DA:123,31
DA:124,31
DA:125,31
DA:126,31
DA:127,31
BRF:0
BRH:0
LF:180
LH:145
end_of_record
SF:/workspaces/code-guardian/crates/cli/src/production_handlers.rs
FN:309,_RNvNtCs16s6DcJnmvZ_17code_guardian_cli19production_handlers12handle_watch
FN:182,_RNvNtCs16s6DcJnmvZ_17code_guardian_cli19production_handlers14handle_ci_gate
FN:254,_RNvNtCs16s6DcJnmvZ_17code_guardian_cli19production_handlers16handle_lang_scan
FN:357,_RNvNtCs16s6DcJnmvZ_17code_guardian_cli19production_handlers16is_high_severity
FN:333,_RNvNtCs16s6DcJnmvZ_17code_guardian_cli19production_handlers17count_by_severity
FN:91,_RNvNtCs16s6DcJnmvZ_17code_guardian_cli19production_handlers17handle_pre_commit
FN:323,_RNvNtCs16s6DcJnmvZ_17code_guardian_cli19production_handlers18filter_by_severity
FN:387,_RNvNtCs16s6DcJnmvZ_17code_guardian_cli19production_handlers20generate_json_output
FN:353,_RNvNtCs16s6DcJnmvZ_17code_guardian_cli19production_handlers20is_critical_severity
FN:399,_RNvNtCs16s6DcJnmvZ_17code_guardian_cli19production_handlers23generate_summary_output
FN:12,_RNvNtCs16s6DcJnmvZ_17code_guardian_cli19production_handlers23handle_production_check
FN:342,_RNvNtCs16s6DcJnmvZ_17code_guardian_cli19production_handlers24get_severity_for_pattern
FN:361,_RNvNtCs16s6DcJnmvZ_17code_guardian_cli19production_handlers27map_languages_to_extensions
FN:417,_RNvNtCs16s6DcJnmvZ_17code_guardian_cli19production_handlers31generate_production_text_output
FN:284,_RNCNCNvNtCs16s6DcJnmvZ_17code_guardian_cli19production_handlers16handle_lang_scan00B7_
FN:212,_RNCNvNtCs16s6DcJnmvZ_17code_guardian_cli19production_handlers14handle_ci_gate0B5_
FN:281,_RNCNvNtCs16s6DcJnmvZ_17code_guardian_cli19production_handlers16handle_lang_scan0B5_
FN:140,_RNCNvNtCs16s6DcJnmvZ_17code_guardian_cli19production_handlers17handle_pre_commit0B5_
FN:172,_RNCNvNtCs16s6DcJnmvZ_17code_guardian_cli19production_handlers17handle_pre_commits0_0B5_
FN:161,_RNCNvNtCs16s6DcJnmvZ_17code_guardian_cli19production_handlers17handle_pre_commits_0B5_
FN:326,_RNCNvNtCs16s6DcJnmvZ_17code_guardian_cli19production_handlers18filter_by_severity0B5_
FN:357,_RNvNtCs65Py60REsPg_17code_guardian_cli19production_handlers16is_high_severity
FN:333,_RNvNtCs65Py60REsPg_17code_guardian_cli19production_handlers17count_by_severity
FN:353,_RNvNtCs65Py60REsPg_17code_guardian_cli19production_handlers20is_critical_severity
FN:342,_RNvNtCs65Py60REsPg_17code_guardian_cli19production_handlers24get_severity_for_pattern
FN:361,_RNvNtCs65Py60REsPg_17code_guardian_cli19production_handlers27map_languages_to_extensions
FN:581,_RNvNtNtCs65Py60REsPg_17code_guardian_cli19production_handlers5testss_21test_is_high_severity
FN:573,_RNvNtNtCs65Py60REsPg_17code_guardian_cli19production_handlers5testss_25test_is_critical_severity
FN:591,_RNvNtNtCs65Py60REsPg_17code_guardian_cli19production_handlers5testss_28test_count_by_severity_empty
FN:564,_RNvNtNtCs65Py60REsPg_17code_guardian_cli19production_handlers5testss_29test_get_severity_for_pattern
FN:552,_RNvNtNtCs65Py60REsPg_17code_guardian_cli19production_handlers5testss_32test_map_languages_to_extensions
FN:598,_RNvNtNtCs65Py60REsPg_17code_guardian_cli19production_handlers5testss_35test_language_mapping_comprehensive
FN:284,_RNCNCNvNtCs65Py60REsPg_17code_guardian_cli19production_handlers16handle_lang_scan00B7_
FN:212,_RNCNvNtCs65Py60REsPg_17code_guardian_cli19production_handlers14handle_ci_gate0B5_
FN:281,_RNCNvNtCs65Py60REsPg_17code_guardian_cli19production_handlers16handle_lang_scan0B5_
FN:140,_RNCNvNtCs65Py60REsPg_17code_guardian_cli19production_handlers17handle_pre_commit0B5_
FN:172,_RNCNvNtCs65Py60REsPg_17code_guardian_cli19production_handlers17handle_pre_commits0_0B5_
FN:161,_RNCNvNtCs65Py60REsPg_17code_guardian_cli19production_handlers17handle_pre_commits_0B5_
FN:326,_RNCNvNtCs65Py60REsPg_17code_guardian_cli19production_handlers18filter_by_severity0B5_
FN:309,_RNvNtCs65Py60REsPg_17code_guardian_cli19production_handlers12handle_watch
FN:182,_RNvNtCs65Py60REsPg_17code_guardian_cli19production_handlers14handle_ci_gate
FN:254,_RNvNtCs65Py60REsPg_17code_guardian_cli19production_handlers16handle_lang_scan
FN:91,_RNvNtCs65Py60REsPg_17code_guardian_cli19production_handlers17handle_pre_commit
FN:323,_RNvNtCs65Py60REsPg_17code_guardian_cli19production_handlers18filter_by_severity
FN:387,_RNvNtCs65Py60REsPg_17code_guardian_cli19production_handlers20generate_json_output
FN:399,_RNvNtCs65Py60REsPg_17code_guardian_cli19production_handlers23generate_summary_output
FN:12,_RNvNtCs65Py60REsPg_17code_guardian_cli19production_handlers23handle_production_check
FN:417,_RNvNtCs65Py60REsPg_17code_guardian_cli19production_handlers31generate_production_text_output
FN:284,_RNCNCNvNtCsi8MTORxUhGy_17code_guardian_cli19production_handlers16handle_lang_scan00B7_
FN:212,_RNCNvNtCsi8MTORxUhGy_17code_guardian_cli19production_handlers14handle_ci_gate0B5_
FN:281,_RNCNvNtCsi8MTORxUhGy_17code_guardian_cli19production_handlers16handle_lang_scan0B5_
FN:140,_RNCNvNtCsi8MTORxUhGy_17code_guardian_cli19production_handlers17handle_pre_commit0B5_
FN:172,_RNCNvNtCsi8MTORxUhGy_17code_guardian_cli19production_handlers17handle_pre_commits0_0B5_
FN:161,_RNCNvNtCsi8MTORxUhGy_17code_guardian_cli19production_handlers17handle_pre_commits_0B5_
FN:326,_RNCNvNtCsi8MTORxUhGy_17code_guardian_cli19production_handlers18filter_by_severity0B5_
FN:309,_RNvNtCsi8MTORxUhGy_17code_guardian_cli19production_handlers12handle_watch
FN:182,_RNvNtCsi8MTORxUhGy_17code_guardian_cli19production_handlers14handle_ci_gate
FN:254,_RNvNtCsi8MTORxUhGy_17code_guardian_cli19production_handlers16handle_lang_scan
FN:91,_RNvNtCsi8MTORxUhGy_17code_guardian_cli19production_handlers17handle_pre_commit
FN:323,_RNvNtCsi8MTORxUhGy_17code_guardian_cli19production_handlers18filter_by_severity
FN:387,_RNvNtCsi8MTORxUhGy_17code_guardian_cli19production_handlers20generate_json_output
FN:399,_RNvNtCsi8MTORxUhGy_17code_guardian_cli19production_handlers23generate_summary_output
FN:12,_RNvNtCsi8MTORxUhGy_17code_guardian_cli19production_handlers23handle_production_check
FN:417,_RNvNtCsi8MTORxUhGy_17code_guardian_cli19production_handlers31generate_production_text_output
FN:357,_RNvNtCsi8MTORxUhGy_17code_guardian_cli19production_handlers16is_high_severity
FN:333,_RNvNtCsi8MTORxUhGy_17code_guardian_cli19production_handlers17count_by_severity
FN:353,_RNvNtCsi8MTORxUhGy_17code_guardian_cli19production_handlers20is_critical_severity
FN:342,_RNvNtCsi8MTORxUhGy_17code_guardian_cli19production_handlers24get_severity_for_pattern
FN:361,_RNvNtCsi8MTORxUhGy_17code_guardian_cli19production_handlers27map_languages_to_extensions
FN:581,_RNvNtNtCsi8MTORxUhGy_17code_guardian_cli19production_handlers5testss_21test_is_high_severity
FN:573,_RNvNtNtCsi8MTORxUhGy_17code_guardian_cli19production_handlers5testss_25test_is_critical_severity
FN:591,_RNvNtNtCsi8MTORxUhGy_17code_guardian_cli19production_handlers5testss_28test_count_by_severity_empty
FN:564,_RNvNtNtCsi8MTORxUhGy_17code_guardian_cli19production_handlers5testss_29test_get_severity_for_pattern
FN:552,_RNvNtNtCsi8MTORxUhGy_17code_guardian_cli19production_handlers5testss_32test_map_languages_to_extensions
FN:598,_RNvNtNtCsi8MTORxUhGy_17code_guardian_cli19production_handlers5testss_35test_language_mapping_comprehensive
FN:284,_RNCNCNvNtCs5xHA0DhfRKe_17code_guardian_cli19production_handlers16handle_lang_scan00B7_
FN:212,_RNCNvNtCs5xHA0DhfRKe_17code_guardian_cli19production_handlers14handle_ci_gate0B5_
FN:281,_RNCNvNtCs5xHA0DhfRKe_17code_guardian_cli19production_handlers16handle_lang_scan0B5_
FN:140,_RNCNvNtCs5xHA0DhfRKe_17code_guardian_cli19production_handlers17handle_pre_commit0B5_
FN:172,_RNCNvNtCs5xHA0DhfRKe_17code_guardian_cli19production_handlers17handle_pre_commits0_0B5_
FN:161,_RNCNvNtCs5xHA0DhfRKe_17code_guardian_cli19production_handlers17handle_pre_commits_0B5_
FN:326,_RNCNvNtCs5xHA0DhfRKe_17code_guardian_cli19production_handlers18filter_by_severity0B5_
FN:309,_RNvNtCs5xHA0DhfRKe_17code_guardian_cli19production_handlers12handle_watch
FN:182,_RNvNtCs5xHA0DhfRKe_17code_guardian_cli19production_handlers14handle_ci_gate
FN:254,_RNvNtCs5xHA0DhfRKe_17code_guardian_cli19production_handlers16handle_lang_scan
FN:357,_RNvNtCs5xHA0DhfRKe_17code_guardian_cli19production_handlers16is_high_severity
FN:333,_RNvNtCs5xHA0DhfRKe_17code_guardian_cli19production_handlers17count_by_severity
FN:91,_RNvNtCs5xHA0DhfRKe_17code_guardian_cli19production_handlers17handle_pre_commit
FN:323,_RNvNtCs5xHA0DhfRKe_17code_guardian_cli19production_handlers18filter_by_severity
FN:387,_RNvNtCs5xHA0DhfRKe_17code_guardian_cli19production_handlers20generate_json_output
FN:353,_RNvNtCs5xHA0DhfRKe_17code_guardian_cli19production_handlers20is_critical_severity
FN:399,_RNvNtCs5xHA0DhfRKe_17code_guardian_cli19production_handlers23generate_summary_output
FN:12,_RNvNtCs5xHA0DhfRKe_17code_guardian_cli19production_handlers23handle_production_check
FN:342,_RNvNtCs5xHA0DhfRKe_17code_guardian_cli19production_handlers24get_severity_for_pattern
FN:361,_RNvNtCs5xHA0DhfRKe_17code_guardian_cli19production_handlers27map_languages_to_extensions
FN:417,_RNvNtCs5xHA0DhfRKe_17code_guardian_cli19production_handlers31generate_production_text_output
FNDA:0,_RNvNtCs16s6DcJnmvZ_17code_guardian_cli19production_handlers12handle_watch
FNDA:0,_RNvNtCs16s6DcJnmvZ_17code_guardian_cli19production_handlers14handle_ci_gate
FNDA:0,_RNvNtCs16s6DcJnmvZ_17code_guardian_cli19production_handlers16handle_lang_scan
FNDA:0,_RNvNtCs16s6DcJnmvZ_17code_guardian_cli19production_handlers16is_high_severity
FNDA:0,_RNvNtCs16s6DcJnmvZ_17code_guardian_cli19production_handlers17count_by_severity
FNDA:0,_RNvNtCs16s6DcJnmvZ_17code_guardian_cli19production_handlers17handle_pre_commit
FNDA:0,_RNvNtCs16s6DcJnmvZ_17code_guardian_cli19production_handlers18filter_by_severity
FNDA:0,_RNvNtCs16s6DcJnmvZ_17code_guardian_cli19production_handlers20generate_json_output
FNDA:0,_RNvNtCs16s6DcJnmvZ_17code_guardian_cli19production_handlers20is_critical_severity
FNDA:0,_RNvNtCs16s6DcJnmvZ_17code_guardian_cli19production_handlers23generate_summary_output
FNDA:0,_RNvNtCs16s6DcJnmvZ_17code_guardian_cli19production_handlers23handle_production_check
FNDA:0,_RNvNtCs16s6DcJnmvZ_17code_guardian_cli19production_handlers24get_severity_for_pattern
FNDA:0,_RNvNtCs16s6DcJnmvZ_17code_guardian_cli19production_handlers27map_languages_to_extensions
FNDA:0,_RNvNtCs16s6DcJnmvZ_17code_guardian_cli19production_handlers31generate_production_text_output
FNDA:0,_RNCNCNvNtCs16s6DcJnmvZ_17code_guardian_cli19production_handlers16handle_lang_scan00B7_
FNDA:0,_RNCNvNtCs16s6DcJnmvZ_17code_guardian_cli19production_handlers14handle_ci_gate0B5_
FNDA:0,_RNCNvNtCs16s6DcJnmvZ_17code_guardian_cli19production_handlers16handle_lang_scan0B5_
FNDA:0,_RNCNvNtCs16s6DcJnmvZ_17code_guardian_cli19production_handlers17handle_pre_commit0B5_
FNDA:0,_RNCNvNtCs16s6DcJnmvZ_17code_guardian_cli19production_handlers17handle_pre_commits0_0B5_
FNDA:0,_RNCNvNtCs16s6DcJnmvZ_17code_guardian_cli19production_handlers17handle_pre_commits_0B5_
FNDA:0,_RNCNvNtCs16s6DcJnmvZ_17code_guardian_cli19production_handlers18filter_by_severity0B5_
FNDA:6,_RNvNtCs65Py60REsPg_17code_guardian_cli19production_handlers16is_high_severity
FNDA:1,_RNvNtCs65Py60REsPg_17code_guardian_cli19production_handlers17count_by_severity
FNDA:4,_RNvNtCs65Py60REsPg_17code_guardian_cli19production_handlers20is_critical_severity
FNDA:5,_RNvNtCs65Py60REsPg_17code_guardian_cli19production_handlers24get_severity_for_pattern
FNDA:6,_RNvNtCs65Py60REsPg_17code_guardian_cli19production_handlers27map_languages_to_extensions
FNDA:1,_RNvNtNtCs65Py60REsPg_17code_guardian_cli19production_handlers5testss_21test_is_high_severity
FNDA:1,_RNvNtNtCs65Py60REsPg_17code_guardian_cli19production_handlers5testss_25test_is_critical_severity
FNDA:1,_RNvNtNtCs65Py60REsPg_17code_guardian_cli19production_handlers5testss_28test_count_by_severity_empty
FNDA:1,_RNvNtNtCs65Py60REsPg_17code_guardian_cli19production_handlers5testss_29test_get_severity_for_pattern
FNDA:1,_RNvNtNtCs65Py60REsPg_17code_guardian_cli19production_handlers5testss_32test_map_languages_to_extensions
FNDA:1,_RNvNtNtCs65Py60REsPg_17code_guardian_cli19production_handlers5testss_35test_language_mapping_comprehensive
FNDA:0,_RNCNCNvNtCs65Py60REsPg_17code_guardian_cli19production_handlers16handle_lang_scan00B7_
FNDA:0,_RNCNvNtCs65Py60REsPg_17code_guardian_cli19production_handlers14handle_ci_gate0B5_
FNDA:0,_RNCNvNtCs65Py60REsPg_17code_guardian_cli19production_handlers16handle_lang_scan0B5_
FNDA:0,_RNCNvNtCs65Py60REsPg_17code_guardian_cli19production_handlers17handle_pre_commit0B5_
FNDA:0,_RNCNvNtCs65Py60REsPg_17code_guardian_cli19production_handlers17handle_pre_commits0_0B5_
FNDA:0,_RNCNvNtCs65Py60REsPg_17code_guardian_cli19production_handlers17handle_pre_commits_0B5_
FNDA:0,_RNCNvNtCs65Py60REsPg_17code_guardian_cli19production_handlers18filter_by_severity0B5_
FNDA:0,_RNvNtCs65Py60REsPg_17code_guardian_cli19production_handlers12handle_watch
FNDA:0,_RNvNtCs65Py60REsPg_17code_guardian_cli19production_handlers14handle_ci_gate
FNDA:0,_RNvNtCs65Py60REsPg_17code_guardian_cli19production_handlers16handle_lang_scan
FNDA:0,_RNvNtCs65Py60REsPg_17code_guardian_cli19production_handlers17handle_pre_commit
FNDA:0,_RNvNtCs65Py60REsPg_17code_guardian_cli19production_handlers18filter_by_severity
FNDA:0,_RNvNtCs65Py60REsPg_17code_guardian_cli19production_handlers20generate_json_output
FNDA:0,_RNvNtCs65Py60REsPg_17code_guardian_cli19production_handlers23generate_summary_output
FNDA:0,_RNvNtCs65Py60REsPg_17code_guardian_cli19production_handlers23handle_production_check
FNDA:0,_RNvNtCs65Py60REsPg_17code_guardian_cli19production_handlers31generate_production_text_output
FNDA:0,_RNCNCNvNtCsi8MTORxUhGy_17code_guardian_cli19production_handlers16handle_lang_scan00B7_
FNDA:0,_RNCNvNtCsi8MTORxUhGy_17code_guardian_cli19production_handlers14handle_ci_gate0B5_
FNDA:0,_RNCNvNtCsi8MTORxUhGy_17code_guardian_cli19production_handlers16handle_lang_scan0B5_
FNDA:0,_RNCNvNtCsi8MTORxUhGy_17code_guardian_cli19production_handlers17handle_pre_commit0B5_
FNDA:0,_RNCNvNtCsi8MTORxUhGy_17code_guardian_cli19production_handlers17handle_pre_commits0_0B5_
FNDA:0,_RNCNvNtCsi8MTORxUhGy_17code_guardian_cli19production_handlers17handle_pre_commits_0B5_
FNDA:0,_RNCNvNtCsi8MTORxUhGy_17code_guardian_cli19production_handlers18filter_by_severity0B5_
FNDA:0,_RNvNtCsi8MTORxUhGy_17code_guardian_cli19production_handlers12handle_watch
FNDA:0,_RNvNtCsi8MTORxUhGy_17code_guardian_cli19production_handlers14handle_ci_gate
FNDA:0,_RNvNtCsi8MTORxUhGy_17code_guardian_cli19production_handlers16handle_lang_scan
FNDA:0,_RNvNtCsi8MTORxUhGy_17code_guardian_cli19production_handlers17handle_pre_commit
FNDA:0,_RNvNtCsi8MTORxUhGy_17code_guardian_cli19production_handlers18filter_by_severity
FNDA:0,_RNvNtCsi8MTORxUhGy_17code_guardian_cli19production_handlers20generate_json_output
FNDA:0,_RNvNtCsi8MTORxUhGy_17code_guardian_cli19production_handlers23generate_summary_output
FNDA:0,_RNvNtCsi8MTORxUhGy_17code_guardian_cli19production_handlers23handle_production_check
FNDA:0,_RNvNtCsi8MTORxUhGy_17code_guardian_cli19production_handlers31generate_production_text_output
FNDA:6,_RNvNtCsi8MTORxUhGy_17code_guardian_cli19production_handlers16is_high_severity
FNDA:1,_RNvNtCsi8MTORxUhGy_17code_guardian_cli19production_handlers17count_by_severity
FNDA:4,_RNvNtCsi8MTORxUhGy_17code_guardian_cli19production_handlers20is_critical_severity
FNDA:5,_RNvNtCsi8MTORxUhGy_17code_guardian_cli19production_handlers24get_severity_for_pattern
FNDA:6,_RNvNtCsi8MTORxUhGy_17code_guardian_cli19production_handlers27map_languages_to_extensions
FNDA:1,_RNvNtNtCsi8MTORxUhGy_17code_guardian_cli19production_handlers5testss_21test_is_high_severity
FNDA:1,_RNvNtNtCsi8MTORxUhGy_17code_guardian_cli19production_handlers5testss_25test_is_critical_severity
FNDA:1,_RNvNtNtCsi8MTORxUhGy_17code_guardian_cli19production_handlers5testss_28test_count_by_severity_empty
FNDA:1,_RNvNtNtCsi8MTORxUhGy_17code_guardian_cli19production_handlers5testss_29test_get_severity_for_pattern
FNDA:1,_RNvNtNtCsi8MTORxUhGy_17code_guardian_cli19production_handlers5testss_32test_map_languages_to_extensions
FNDA:1,_RNvNtNtCsi8MTORxUhGy_17code_guardian_cli19production_handlers5testss_35test_language_mapping_comprehensive
FNDA:0,_RNCNCNvNtCs5xHA0DhfRKe_17code_guardian_cli19production_handlers16handle_lang_scan00B7_
FNDA:0,_RNCNvNtCs5xHA0DhfRKe_17code_guardian_cli19production_handlers14handle_ci_gate0B5_
FNDA:0,_RNCNvNtCs5xHA0DhfRKe_17code_guardian_cli19production_handlers16handle_lang_scan0B5_
FNDA:0,_RNCNvNtCs5xHA0DhfRKe_17code_guardian_cli19production_handlers17handle_pre_commit0B5_
FNDA:0,_RNCNvNtCs5xHA0DhfRKe_17code_guardian_cli19production_handlers17handle_pre_commits0_0B5_
FNDA:0,_RNCNvNtCs5xHA0DhfRKe_17code_guardian_cli19production_handlers17handle_pre_commits_0B5_
FNDA:0,_RNCNvNtCs5xHA0DhfRKe_17code_guardian_cli19production_handlers18filter_by_severity0B5_
FNDA:0,_RNvNtCs5xHA0DhfRKe_17code_guardian_cli19production_handlers12handle_watch
FNDA:0,_RNvNtCs5xHA0DhfRKe_17code_guardian_cli19production_handlers14handle_ci_gate
FNDA:0,_RNvNtCs5xHA0DhfRKe_17code_guardian_cli19production_handlers16handle_lang_scan
FNDA:0,_RNvNtCs5xHA0DhfRKe_17code_guardian_cli19production_handlers16is_high_severity
FNDA:0,_RNvNtCs5xHA0DhfRKe_17code_guardian_cli19production_handlers17count_by_severity
FNDA:0,_RNvNtCs5xHA0DhfRKe_17code_guardian_cli19production_handlers17handle_pre_commit
FNDA:0,_RNvNtCs5xHA0DhfRKe_17code_guardian_cli19production_handlers18filter_by_severity
FNDA:0,_RNvNtCs5xHA0DhfRKe_17code_guardian_cli19production_handlers20generate_json_output
FNDA:0,_RNvNtCs5xHA0DhfRKe_17code_guardian_cli19production_handlers20is_critical_severity
FNDA:0,_RNvNtCs5xHA0DhfRKe_17code_guardian_cli19production_handlers23generate_summary_output
FNDA:0,_RNvNtCs5xHA0DhfRKe_17code_guardian_cli19production_handlers23handle_production_check
FNDA:0,_RNvNtCs5xHA0DhfRKe_17code_guardian_cli19production_handlers24get_severity_for_pattern
FNDA:0,_RNvNtCs5xHA0DhfRKe_17code_guardian_cli19production_handlers27map_languages_to_extensions
FNDA:0,_RNvNtCs5xHA0DhfRKe_17code_guardian_cli19production_handlers31generate_production_text_output
FNF:27
FNH:11
DA:12,0
DA:13,0
DA:14,0
DA:15,0
DA:16,0
DA:17,0
DA:18,0
DA:19,0
DA:20,0
DA:21,0
DA:22,0
DA:24,0
DA:27,0
DA:28,0
DA:31,0
DA:34,0
DA:35,0
DA:37,0
DA:41,0
DA:44,0
DA:45,0
DA:46,0
DA:47,0
DA:51,0
DA:52,0
DA:53,0
DA:54,0
DA:55,0
DA:56,0
DA:59,0
DA:60,0
DA:62,0
DA:63,0
DA:64,0
DA:67,0
DA:68,0
DA:70,0
DA:71,0
DA:72,0
DA:75,0
DA:76,0
DA:78,0
DA:79,0
DA:80,0
DA:81,0
DA:82,0
DA:83,0
DA:84,0
DA:85,0
DA:87,0
DA:88,0
DA:91,0
DA:92,0
DA:94,0
DA:96,0
DA:97,0
DA:98,0
DA:99,0
DA:102,0
DA:105,0
DA:107,0
DA:109,0
DA:110,0
DA:111,0
DA:114,0
DA:115,0
DA:117,0
DA:118,0
DA:119,0
DA:120,0
DA:122,0
DA:123,0
DA:124,0
DA:125,0
DA:126,0
DA:127,0
DA:130,0
DA:131,0
DA:132,0
DA:135,0
DA:136,0
DA:138,0
DA:139,0
DA:140,0
DA:141,0
DA:142,0
DA:143,0
DA:144,0
DA:146,0
DA:149,0
DA:152,0
DA:153,0
DA:154,0
DA:156,0
DA:157,0
DA:158,0
DA:161,0
DA:162,0
DA:163,0
DA:164,0
DA:165,0
DA:167,0
DA:168,0
DA:169,0
DA:172,0
DA:173,0
DA:174,0
DA:175,0
DA:177,0
DA:178,0
DA:179,0
DA:182,0
DA:183,0
DA:184,0
DA:185,0
DA:186,0
DA:187,0
DA:188,0
DA:189,0
DA:191,0
DA:192,0
DA:193,0
DA:195,0
DA:196,0
DA:197,0
DA:200,0
DA:201,0
DA:202,0
DA:203,0
DA:204,0
DA:205,0
DA:207,0
DA:208,0
DA:209,0
DA:211,0
DA:212,0
DA:213,0
DA:214,0
DA:215,0
DA:216,0
DA:217,0
DA:218,0
DA:221,0
DA:223,0
DA:224,0
DA:225,0
DA:226,0
DA:229,0
DA:230,0
DA:231,0
DA:233,0
DA:234,0
DA:235,0
DA:238,0
DA:239,0
DA:241,0
DA:242,0
DA:243,0
DA:246,0
DA:247,0
DA:249,0
DA:250,0
DA:251,0
DA:254,0
DA:255,0
DA:256,0
DA:257,0
DA:258,0
DA:259,0
DA:260,0
DA:261,0
DA:262,0
DA:264,0
DA:266,0
DA:267,0
DA:269,0
DA:270,0
DA:272,0
DA:275,0
DA:276,0
DA:279,0
DA:280,0
DA:281,0
DA:282,0
DA:283,0
DA:284,0
DA:285,0
DA:286,0
DA:288,0
DA:290,0
DA:291,0
DA:292,0
DA:293,0
DA:295,0
DA:296,0
DA:297,0
DA:298,0
DA:299,0
DA:300,0
DA:301,0
DA:302,0
DA:305,0
DA:306,0
DA:309,0
DA:310,0
DA:311,0
DA:312,0
DA:313,0
DA:314,0
DA:315,0
DA:316,0
DA:317,0
DA:318,0
DA:319,0
DA:323,0
DA:324,0
DA:325,0
DA:326,0
DA:327,0
DA:328,0
DA:329,0
DA:330,0
DA:331,0
DA:333,2
DA:334,2
DA:335,2
DA:336,0
DA:337,0
DA:338,0
DA:339,2
DA:340,2
DA:342,10
DA:343,10
DA:344,10
DA:345,8
DA:346,6
DA:347,4
DA:348,4
DA:350,10
DA:351,10
DA:353,8
DA:354,8
DA:355,8
DA:357,12
DA:358,12
DA:359,12
DA:361,12
DA:362,12
DA:363,28
DA:364,16
DA:365,16
DA:366,12
DA:367,10
DA:368,6
DA:369,2
DA:370,0
DA:371,0
DA:372,0
DA:373,0
DA:374,0
DA:375,0
DA:376,0
DA:377,0
DA:378,0
DA:379,0
DA:380,0
DA:381,0
DA:384,12
DA:385,12
DA:387,0
DA:388,0
DA:389,0
DA:390,0
DA:391,0
DA:392,0
DA:393,0
DA:394,0
DA:396,0
DA:397,0
DA:399,0
DA:400,0
DA:401,0
DA:402,0
DA:404,0
DA:405,0
DA:406,0
DA:407,0
DA:408,0
DA:409,0
DA:410,0
DA:412,0
DA:414,0
DA:415,0
DA:417,0
DA:418,0
DA:419,0
DA:420,0
DA:421,0
DA:423,0
DA:424,0
DA:425,0
DA:426,0
DA:429,0
DA:430,0
DA:431,0
DA:432,0
DA:434,0
DA:435,0
DA:436,0
DA:437,0
DA:438,0
DA:439,0
DA:440,0
DA:445,0
DA:446,0
DA:447,0
DA:448,0
DA:449,0
DA:450,0
DA:451,0
DA:452,0
DA:453,0
DA:454,0
DA:455,0
DA:456,0
DA:457,0
DA:458,0
DA:459,0
DA:460,0
DA:461,0
DA:463,0
DA:464,0
DA:465,0
DA:466,0
DA:467,0
DA:468,0
DA:469,0
DA:470,0
DA:471,0
DA:472,0
DA:473,0
DA:474,0
DA:475,0
DA:476,0
DA:477,0
DA:478,0
DA:479,0
DA:481,0
DA:482,0
DA:483,0
DA:484,0
DA:485,0
DA:486,0
DA:487,0
DA:488,0
DA:489,0
DA:490,0
DA:491,0
DA:492,0
DA:493,0
DA:494,0
DA:495,0
DA:496,0
DA:497,0
DA:499,0
DA:500,0
DA:501,0
DA:502,0
DA:503,0
DA:504,0
DA:505,0
DA:506,0
DA:507,0
DA:508,0
DA:509,0
DA:510,0
DA:511,0
DA:512,0
DA:513,0
DA:514,0
DA:515,0
DA:516,0
DA:517,0
DA:518,0
DA:519,0
DA:520,0
DA:521,0
DA:522,0
DA:525,0
DA:526,0
DA:527,0
DA:528,0
DA:529,0
DA:530,0
DA:531,0
DA:532,0
DA:533,0
DA:534,0
DA:535,0
DA:536,0
DA:537,0
DA:538,0
DA:539,0
DA:540,0
DA:541,0
DA:542,0
DA:544,0
DA:545,0
DA:552,2
DA:553,2
DA:554,2
DA:556,2
DA:557,2
DA:558,2
DA:559,2
DA:560,2
DA:561,2
DA:564,2
DA:565,2
DA:566,2
DA:567,2
DA:568,2
DA:569,2
DA:570,2
DA:573,2
DA:574,2
DA:575,2
DA:576,2
DA:577,2
DA:578,2
DA:581,2
DA:582,2
DA:583,2
DA:584,2
DA:585,2
DA:586,2
DA:587,2
DA:588,2
DA:591,2
DA:592,2
DA:593,2
DA:594,2
DA:595,2
DA:598,2
DA:599,2
DA:600,2
DA:601,2
DA:602,2
DA:603,2
DA:604,2
DA:607,12
DA:608,10
DA:609,10
DA:611,24
DA:612,14
DA:613,14
DA:614,0
DA:620,2
BRF:0
BRH:0
LF:464
LH:80
end_of_record
SF:/workspaces/code-guardian/crates/cli/src/report_handlers.rs
FN:24,_RNvNtCs16s6DcJnmvZ_17code_guardian_cli15report_handlers13get_formatter
FN:10,_RNvNtCs16s6DcJnmvZ_17code_guardian_cli15report_handlers13handle_report
FN:24,_RNvNtCs65Py60REsPg_17code_guardian_cli15report_handlers13get_formatter
FN:10,_RNvNtCs65Py60REsPg_17code_guardian_cli15report_handlers13handle_report
FN:24,_RNvNtCsi8MTORxUhGy_17code_guardian_cli15report_handlers13get_formatter
FN:10,_RNvNtCsi8MTORxUhGy_17code_guardian_cli15report_handlers13handle_report
FN:24,_RNvNtCs5xHA0DhfRKe_17code_guardian_cli15report_handlers13get_formatter
FN:10,_RNvNtCs5xHA0DhfRKe_17code_guardian_cli15report_handlers13handle_report
FNDA:9,_RNvNtCs16s6DcJnmvZ_17code_guardian_cli15report_handlers13get_formatter
FNDA:7,_RNvNtCs16s6DcJnmvZ_17code_guardian_cli15report_handlers13handle_report
FNDA:0,_RNvNtCs65Py60REsPg_17code_guardian_cli15report_handlers13get_formatter
FNDA:0,_RNvNtCs65Py60REsPg_17code_guardian_cli15report_handlers13handle_report
FNDA:0,_RNvNtCsi8MTORxUhGy_17code_guardian_cli15report_handlers13get_formatter
FNDA:0,_RNvNtCsi8MTORxUhGy_17code_guardian_cli15report_handlers13handle_report
FNDA:1,_RNvNtCs5xHA0DhfRKe_17code_guardian_cli15report_handlers13get_formatter
FNDA:1,_RNvNtCs5xHA0DhfRKe_17code_guardian_cli15report_handlers13handle_report
FNF:2
FNH:2
DA:10,8
DA:11,8
DA:12,7
DA:13,7
DA:14,7
DA:15,7
DA:16,6
DA:17,6
DA:18,6
DA:19,1
DA:21,7
DA:22,8
DA:24,10
DA:25,10
DA:26,10
DA:27,7
DA:28,4
DA:29,3
DA:30,2
DA:31,1
DA:33,10
BRF:0
BRH:0
LF:21
LH:21
end_of_record
SF:/workspaces/code-guardian/crates/cli/src/scan_handlers.rs
FN:143,_RNCNCNCNvNtCs16s6DcJnmvZ_17code_guardian_cli13scan_handlers11handle_scan0s_00B9_
FN:61,_RNCNCNvNtCs16s6DcJnmvZ_17code_guardian_cli13scan_handlers11handle_scan00B7_
FN:176,_RNCNCNvNtCs16s6DcJnmvZ_17code_guardian_cli13scan_handlers11handle_scan0s0_0B7_
FN:142,_RNCNCNvNtCs16s6DcJnmvZ_17code_guardian_cli13scan_handlers11handle_scan0s_0B7_
FN:32,_RNCNvNtCs16s6DcJnmvZ_17code_guardian_cli13scan_handlers11handle_scan0B5_
FN:32,_RNvNtCs16s6DcJnmvZ_17code_guardian_cli13scan_handlers11handle_scan
FN:143,_RNCNCNCNvNtCs65Py60REsPg_17code_guardian_cli13scan_handlers11handle_scan0s_00B9_
FN:61,_RNCNCNvNtCs65Py60REsPg_17code_guardian_cli13scan_handlers11handle_scan00B7_
FN:176,_RNCNCNvNtCs65Py60REsPg_17code_guardian_cli13scan_handlers11handle_scan0s0_0B7_
FN:142,_RNCNCNvNtCs65Py60REsPg_17code_guardian_cli13scan_handlers11handle_scan0s_0B7_
FN:32,_RNCNvNtCs65Py60REsPg_17code_guardian_cli13scan_handlers11handle_scan0B5_
FN:32,_RNvNtCs65Py60REsPg_17code_guardian_cli13scan_handlers11handle_scan
FN:143,_RNCNCNCNvNtCsi8MTORxUhGy_17code_guardian_cli13scan_handlers11handle_scan0s_00B9_
FN:61,_RNCNCNvNtCsi8MTORxUhGy_17code_guardian_cli13scan_handlers11handle_scan00B7_
FN:176,_RNCNCNvNtCsi8MTORxUhGy_17code_guardian_cli13scan_handlers11handle_scan0s0_0B7_
FN:142,_RNCNCNvNtCsi8MTORxUhGy_17code_guardian_cli13scan_handlers11handle_scan0s_0B7_
FN:32,_RNCNvNtCsi8MTORxUhGy_17code_guardian_cli13scan_handlers11handle_scan0B5_
FN:32,_RNvNtCsi8MTORxUhGy_17code_guardian_cli13scan_handlers11handle_scan
FN:143,_RNCNCNCNvNtCs5xHA0DhfRKe_17code_guardian_cli13scan_handlers11handle_scan0s_00CshOKUTiOstO6_26integration_workflow_tests
FN:61,_RNCNCNvNtCs5xHA0DhfRKe_17code_guardian_cli13scan_handlers11handle_scan00CshOKUTiOstO6_26integration_workflow_tests
FN:176,_RNCNCNvNtCs5xHA0DhfRKe_17code_guardian_cli13scan_handlers11handle_scan0s0_0CshOKUTiOstO6_26integration_workflow_tests
FN:142,_RNCNCNvNtCs5xHA0DhfRKe_17code_guardian_cli13scan_handlers11handle_scan0s_0CshOKUTiOstO6_26integration_workflow_tests
FN:32,_RNCNvNtCs5xHA0DhfRKe_17code_guardian_cli13scan_handlers11handle_scan0CshOKUTiOstO6_26integration_workflow_tests
FN:32,_RNvNtCs5xHA0DhfRKe_17code_guardian_cli13scan_handlers11handle_scan
FNDA:3,_RNCNCNCNvNtCs16s6DcJnmvZ_17code_guardian_cli13scan_handlers11handle_scan0s_00B9_
FNDA:0,_RNCNCNvNtCs16s6DcJnmvZ_17code_guardian_cli13scan_handlers11handle_scan00B7_
FNDA:0,_RNCNCNvNtCs16s6DcJnmvZ_17code_guardian_cli13scan_handlers11handle_scan0s0_0B7_
FNDA:3,_RNCNCNvNtCs16s6DcJnmvZ_17code_guardian_cli13scan_handlers11handle_scan0s_0B7_
FNDA:10,_RNCNvNtCs16s6DcJnmvZ_17code_guardian_cli13scan_handlers11handle_scan0B5_
FNDA:10,_RNvNtCs16s6DcJnmvZ_17code_guardian_cli13scan_handlers11handle_scan
FNDA:0,_RNCNCNCNvNtCs65Py60REsPg_17code_guardian_cli13scan_handlers11handle_scan0s_00B9_
FNDA:0,_RNCNCNvNtCs65Py60REsPg_17code_guardian_cli13scan_handlers11handle_scan00B7_
FNDA:0,_RNCNCNvNtCs65Py60REsPg_17code_guardian_cli13scan_handlers11handle_scan0s0_0B7_
FNDA:0,_RNCNCNvNtCs65Py60REsPg_17code_guardian_cli13scan_handlers11handle_scan0s_0B7_
FNDA:0,_RNCNvNtCs65Py60REsPg_17code_guardian_cli13scan_handlers11handle_scan0B5_
FNDA:0,_RNvNtCs65Py60REsPg_17code_guardian_cli13scan_handlers11handle_scan
FNDA:0,_RNCNCNCNvNtCsi8MTORxUhGy_17code_guardian_cli13scan_handlers11handle_scan0s_00B9_
FNDA:0,_RNCNCNvNtCsi8MTORxUhGy_17code_guardian_cli13scan_handlers11handle_scan00B7_
FNDA:0,_RNCNCNvNtCsi8MTORxUhGy_17code_guardian_cli13scan_handlers11handle_scan0s0_0B7_
FNDA:0,_RNCNCNvNtCsi8MTORxUhGy_17code_guardian_cli13scan_handlers11handle_scan0s_0B7_
FNDA:0,_RNCNvNtCsi8MTORxUhGy_17code_guardian_cli13scan_handlers11handle_scan0B5_
FNDA:0,_RNvNtCsi8MTORxUhGy_17code_guardian_cli13scan_handlers11handle_scan
FNDA:0,_RNCNCNCNvNtCs5xHA0DhfRKe_17code_guardian_cli13scan_handlers11handle_scan0s_00CshOKUTiOstO6_26integration_workflow_tests
FNDA:0,_RNCNCNvNtCs5xHA0DhfRKe_17code_guardian_cli13scan_handlers11handle_scan00CshOKUTiOstO6_26integration_workflow_tests
FNDA:2,_RNCNCNvNtCs5xHA0DhfRKe_17code_guardian_cli13scan_handlers11handle_scan0s0_0CshOKUTiOstO6_26integration_workflow_tests
FNDA:0,_RNCNCNvNtCs5xHA0DhfRKe_17code_guardian_cli13scan_handlers11handle_scan0s_0CshOKUTiOstO6_26integration_workflow_tests
FNDA:14,_RNCNvNtCs5xHA0DhfRKe_17code_guardian_cli13scan_handlers11handle_scan0CshOKUTiOstO6_26integration_workflow_tests
FNDA:14,_RNvNtCs5xHA0DhfRKe_17code_guardian_cli13scan_handlers11handle_scan
FNF:6
FNH:5
DA:32,24
DA:33,24
DA:34,2
DA:35,2
DA:36,2
DA:37,2
DA:38,22
DA:39,22
DA:40,0
DA:41,0
DA:42,0
DA:43,0
DA:44,22
DA:45,22
DA:47,21
DA:48,2
DA:49,19
DA:50,21
DA:51,2
DA:52,19
DA:53,21
DA:54,2
DA:55,19
DA:56,21
DA:57,5
DA:58,16
DA:59,21
DA:60,21
DA:61,21
DA:62,21
DA:65,21
DA:66,21
DA:67,1
DA:68,1
DA:69,20
DA:72,21
DA:75,21
DA:76,21
DA:77,1
DA:78,1
DA:79,1
DA:80,1
DA:81,1
DA:82,20
DA:84,21
DA:85,2
DA:86,2
DA:87,2
DA:89,19
DA:92,21
DA:94,4
DA:95,0
DA:96,4
DA:98,4
DA:99,4
DA:100,4
DA:103,4
DA:104,4
DA:105,4
DA:106,4
DA:107,4
DA:108,4
DA:109,4
DA:110,4
DA:112,4
DA:113,17
DA:115,1
DA:116,0
DA:117,1
DA:119,1
DA:122,5
DA:123,4
DA:124,4
DA:125,4
DA:126,4
DA:127,4
DA:128,4
DA:129,4
DA:130,4
DA:131,4
DA:132,4
DA:135,2
DA:136,2
DA:137,2
DA:140,1
DA:141,1
DA:142,3
DA:143,3
DA:144,3
DA:145,2
DA:147,1
DA:149,3
DA:150,3
DA:151,1
DA:153,1
DA:154,1
DA:157,1
DA:158,1
DA:159,1
DA:160,1
DA:161,1
DA:162,1
DA:163,1
DA:164,1
DA:166,1
DA:167,16
DA:169,2
DA:170,1
DA:171,1
DA:173,2
DA:174,2
DA:176,2
DA:177,2
DA:178,2
DA:179,2
DA:181,2
DA:182,14
DA:184,2
DA:185,0
DA:186,2
DA:188,2
DA:189,2
DA:190,2
DA:193,12
DA:194,1
DA:195,11
DA:197,12
DA:198,12
DA:199,12
DA:202,21
DA:203,2
DA:204,19
DA:205,21
DA:206,21
DA:207,21
DA:208,21
DA:209,21
DA:210,21
DA:211,21
DA:212,21
DA:213,21
DA:216,21
DA:217,2
DA:218,2
DA:219,2
DA:220,2
DA:221,2
DA:222,2
DA:224,2
DA:225,1
DA:226,1
DA:227,1
DA:228,1
DA:230,2
DA:231,2
DA:232,2
DA:233,2
DA:234,2
DA:235,2
DA:238,0
DA:239,2
DA:240,19
DA:242,21
DA:243,21
DA:244,21
DA:245,24
BRF:0
BRH:0
LF:172
LH:151
end_of_record
SF:/workspaces/code-guardian/crates/cli/src/stack_presets.rs
FN:7,_RNvNtCs16s6DcJnmvZ_17code_guardian_cli13stack_presets19handle_stack_preset
FN:7,_RNvNtCs65Py60REsPg_17code_guardian_cli13stack_presets19handle_stack_preset
FN:7,_RNvNtCsi8MTORxUhGy_17code_guardian_cli13stack_presets19handle_stack_preset
FNDA:0,_RNvNtCs16s6DcJnmvZ_17code_guardian_cli13stack_presets19handle_stack_preset
FNDA:0,_RNvNtCs65Py60REsPg_17code_guardian_cli13stack_presets19handle_stack_preset
FNDA:0,_RNvNtCsi8MTORxUhGy_17code_guardian_cli13stack_presets19handle_stack_preset
FNF:1
FNH:0
DA:7,0
DA:8,0
DA:9,0
DA:10,0
DA:11,0
DA:12,0
DA:13,0
DA:14,0
DA:15,0
DA:16,0
DA:18,0
DA:20,0
DA:21,0
DA:22,0
DA:23,0
DA:24,0
DA:25,0
DA:26,0
DA:27,0
DA:29,0
DA:31,0
DA:32,0
DA:33,0
DA:34,0
DA:35,0
DA:36,0
DA:37,0
DA:38,0
DA:40,0
DA:42,0
DA:43,0
DA:44,0
DA:45,0
DA:46,0
DA:47,0
DA:48,0
DA:50,0
DA:52,0
DA:53,0
DA:54,0
DA:55,0
DA:56,0
DA:57,0
DA:59,0
DA:62,0
BRF:0
BRH:0
LF:45
LH:0
end_of_record
SF:/workspaces/code-guardian/crates/cli/src/utils.rs
FN:5,_RNvNtCs16s6DcJnmvZ_17code_guardian_cli5utils11get_db_path
FN:10,_RNvNtCs16s6DcJnmvZ_17code_guardian_cli5utils26get_detectors_from_profile
FN:6,_RNCNvNtCs16s6DcJnmvZ_17code_guardian_cli5utils11get_db_path0B5_
FN:5,_RNvNtCs65Py60REsPg_17code_guardian_cli5utils11get_db_path
FN:10,_RNvNtCs65Py60REsPg_17code_guardian_cli5utils26get_detectors_from_profile
FN:41,_RNvNtNtCs65Py60REsPg_17code_guardian_cli5utils5testss_26test_get_db_path_with_none
FN:34,_RNvNtNtCs65Py60REsPg_17code_guardian_cli5utils5testss_35test_get_db_path_with_provided_path
FN:90,_RNvNtNtCs65Py60REsPg_17code_guardian_cli5utils5testss_36test_get_detectors_from_profile_rust
FN:47,_RNvNtNtCs65Py60REsPg_17code_guardian_cli5utils5testss_37test_get_detectors_from_profile_basic
FN:99,_RNvNtNtCs65Py60REsPg_17code_guardian_cli5utils5testss_39test_get_detectors_from_profile_unknown
FN:117,_RNvNtNtCs65Py60REsPg_17code_guardian_cli5utils5testss_40test_all_profiles_return_valid_detectors
FN:72,_RNvNtNtCs65Py60REsPg_17code_guardian_cli5utils5testss_40test_get_detectors_from_profile_security
FN:81,_RNvNtNtCs65Py60REsPg_17code_guardian_cli5utils5testss_43test_get_detectors_from_profile_performance
FN:56,_RNvNtNtCs65Py60REsPg_17code_guardian_cli5utils5testss_45test_get_detectors_from_profile_comprehensive
FN:6,_RNCNvNtCs65Py60REsPg_17code_guardian_cli5utils11get_db_path0B5_
FN:5,_RNvNtCsi8MTORxUhGy_17code_guardian_cli5utils11get_db_path
FN:10,_RNvNtCsi8MTORxUhGy_17code_guardian_cli5utils26get_detectors_from_profile
FN:41,_RNvNtNtCsi8MTORxUhGy_17code_guardian_cli5utils5testss_26test_get_db_path_with_none
FN:34,_RNvNtNtCsi8MTORxUhGy_17code_guardian_cli5utils5testss_35test_get_db_path_with_provided_path
FN:90,_RNvNtNtCsi8MTORxUhGy_17code_guardian_cli5utils5testss_36test_get_detectors_from_profile_rust
FN:47,_RNvNtNtCsi8MTORxUhGy_17code_guardian_cli5utils5testss_37test_get_detectors_from_profile_basic
FN:99,_RNvNtNtCsi8MTORxUhGy_17code_guardian_cli5utils5testss_39test_get_detectors_from_profile_unknown
FN:117,_RNvNtNtCsi8MTORxUhGy_17code_guardian_cli5utils5testss_40test_all_profiles_return_valid_detectors
FN:72,_RNvNtNtCsi8MTORxUhGy_17code_guardian_cli5utils5testss_40test_get_detectors_from_profile_security
FN:81,_RNvNtNtCsi8MTORxUhGy_17code_guardian_cli5utils5testss_43test_get_detectors_from_profile_performance
FN:56,_RNvNtNtCsi8MTORxUhGy_17code_guardian_cli5utils5testss_45test_get_detectors_from_profile_comprehensive
FN:6,_RNCNvNtCsi8MTORxUhGy_17code_guardian_cli5utils11get_db_path0B5_
FN:5,_RNvNtCs5xHA0DhfRKe_17code_guardian_cli5utils11get_db_path
FN:10,_RNvNtCs5xHA0DhfRKe_17code_guardian_cli5utils26get_detectors_from_profile
FN:6,_RNCNvNtCs5xHA0DhfRKe_17code_guardian_cli5utils11get_db_path0B5_
FNDA:9,_RNvNtCs16s6DcJnmvZ_17code_guardian_cli5utils11get_db_path
FNDA:10,_RNvNtCs16s6DcJnmvZ_17code_guardian_cli5utils26get_detectors_from_profile
FNDA:0,_RNCNvNtCs16s6DcJnmvZ_17code_guardian_cli5utils11get_db_path0B5_
FNDA:2,_RNvNtCs65Py60REsPg_17code_guardian_cli5utils11get_db_path
FNDA:13,_RNvNtCs65Py60REsPg_17code_guardian_cli5utils26get_detectors_from_profile
FNDA:1,_RNvNtNtCs65Py60REsPg_17code_guardian_cli5utils5testss_26test_get_db_path_with_none
FNDA:1,_RNvNtNtCs65Py60REsPg_17code_guardian_cli5utils5testss_35test_get_db_path_with_provided_path
FNDA:1,_RNvNtNtCs65Py60REsPg_17code_guardian_cli5utils5testss_36test_get_detectors_from_profile_rust
FNDA:1,_RNvNtNtCs65Py60REsPg_17code_guardian_cli5utils5testss_37test_get_detectors_from_profile_basic
FNDA:1,_RNvNtNtCs65Py60REsPg_17code_guardian_cli5utils5testss_39test_get_detectors_from_profile_unknown
FNDA:1,_RNvNtNtCs65Py60REsPg_17code_guardian_cli5utils5testss_40test_all_profiles_return_valid_detectors
FNDA:1,_RNvNtNtCs65Py60REsPg_17code_guardian_cli5utils5testss_40test_get_detectors_from_profile_security
FNDA:1,_RNvNtNtCs65Py60REsPg_17code_guardian_cli5utils5testss_43test_get_detectors_from_profile_performance
FNDA:1,_RNvNtNtCs65Py60REsPg_17code_guardian_cli5utils5testss_45test_get_detectors_from_profile_comprehensive
FNDA:1,_RNCNvNtCs65Py60REsPg_17code_guardian_cli5utils11get_db_path0B5_
FNDA:2,_RNvNtCsi8MTORxUhGy_17code_guardian_cli5utils11get_db_path
FNDA:13,_RNvNtCsi8MTORxUhGy_17code_guardian_cli5utils26get_detectors_from_profile
FNDA:1,_RNvNtNtCsi8MTORxUhGy_17code_guardian_cli5utils5testss_26test_get_db_path_with_none
FNDA:1,_RNvNtNtCsi8MTORxUhGy_17code_guardian_cli5utils5testss_35test_get_db_path_with_provided_path
FNDA:1,_RNvNtNtCsi8MTORxUhGy_17code_guardian_cli5utils5testss_36test_get_detectors_from_profile_rust
FNDA:1,_RNvNtNtCsi8MTORxUhGy_17code_guardian_cli5utils5testss_37test_get_detectors_from_profile_basic
FNDA:1,_RNvNtNtCsi8MTORxUhGy_17code_guardian_cli5utils5testss_39test_get_detectors_from_profile_unknown
FNDA:1,_RNvNtNtCsi8MTORxUhGy_17code_guardian_cli5utils5testss_40test_all_profiles_return_valid_detectors
FNDA:1,_RNvNtNtCsi8MTORxUhGy_17code_guardian_cli5utils5testss_40test_get_detectors_from_profile_security
FNDA:1,_RNvNtNtCsi8MTORxUhGy_17code_guardian_cli5utils5testss_43test_get_detectors_from_profile_performance
FNDA:1,_RNvNtNtCsi8MTORxUhGy_17code_guardian_cli5utils5testss_45test_get_detectors_from_profile_comprehensive
FNDA:1,_RNCNvNtCsi8MTORxUhGy_17code_guardian_cli5utils11get_db_path0B5_
FNDA:2,_RNvNtCs5xHA0DhfRKe_17code_guardian_cli5utils11get_db_path
FNDA:12,_RNvNtCs5xHA0DhfRKe_17code_guardian_cli5utils26get_detectors_from_profile
FNDA:0,_RNCNvNtCs5xHA0DhfRKe_17code_guardian_cli5utils11get_db_path0B5_
FNF:12
FNH:12
DA:5,15
DA:6,15
DA:7,15
DA:10,48
DA:11,48
DA:12,48
DA:13,23
DA:14,17
DA:15,12
DA:16,6
DA:17,2
DA:18,2
DA:19,2
DA:20,2
DA:22,2
DA:23,2
DA:26,48
DA:34,2
DA:35,2
DA:36,2
DA:37,2
DA:38,2
DA:41,2
DA:42,2
DA:43,2
DA:44,2
DA:47,2
DA:48,2
DA:49,2
DA:50,2
DA:51,0
DA:53,2
DA:56,2
DA:57,2
DA:58,2
DA:59,2
DA:60,0
DA:64,2
DA:65,2
DA:66,2
DA:67,0
DA:69,2
DA:72,2
DA:73,2
DA:74,2
DA:75,2
DA:76,0
DA:78,2
DA:81,2
DA:82,2
DA:83,2
DA:84,2
DA:85,0
DA:87,2
DA:90,2
DA:91,2
DA:92,2
DA:93,2
DA:94,0
DA:96,2
DA:99,2
DA:101,2
DA:102,2
DA:103,2
DA:104,0
DA:108,2
DA:109,2
DA:110,2
DA:111,2
DA:112,0
DA:114,2
DA:117,2
DA:118,2
DA:120,12
DA:121,10
DA:122,10
DA:123,10
DA:124,0
DA:128,2
BRF:0
BRH:0
LF:80
LH:71
end_of_record
SF:/workspaces/code-guardian/crates/core/src/cache.rs
FN:87,_RNvNtNtCs6ew6Blb7sDz_18code_guardian_core5cache5testss_16test_cache_clear
FN:114,_RNvNtNtCs6ew6Blb7sDz_18code_guardian_core5cache5testss_18test_cache_default
FN:123,_RNvNtNtCs6ew6Blb7sDz_18code_guardian_core5cache5testss_28test_cache_concurrent_access
FN:103,_RNvNtNtCs6ew6Blb7sDz_18code_guardian_core5cache5testss_31test_cache_with_different_types
FN:66,_RNvNtNtCs6ew6Blb7sDz_18code_guardian_core5cache5testss_37test_in_memory_cache_basic_operations
FN:133,_RNCNvNtNtCs6ew6Blb7sDz_18code_guardian_core5cache5testss_28test_cache_concurrent_access0B7_
FN:39,_RNCNvXs_NtCs6ew6Blb7sDz_18code_guardian_core5cacheINtB6_13InMemoryCacheNtNtCs8Ty2CzGA6U3_5alloc6string6StringB17_EINtB6_5CacheB17_B17_E3get0B8_
FN:39,_RNCNvXs_NtCs6ew6Blb7sDz_18code_guardian_core5cacheINtB6_13InMemoryCacheNtNtCs8Ty2CzGA6U3_5alloc6string6StringlEINtB6_5CacheB17_lE3get0B8_
FN:39,_RNCNvXs_NtCs6ew6Blb7sDz_18code_guardian_core5cacheINtB6_13InMemoryCachelINtNtCs8Ty2CzGA6U3_5alloc3vec3VecNtNtB1d_6string6StringEEINtB6_5CachelB18_E3get0B8_
FN:26,_RNvMNtCs6ew6Blb7sDz_18code_guardian_core5cacheINtB2_13InMemoryCacheNtNtCs8Ty2CzGA6U3_5alloc6string6StringB13_E3newB4_
FN:26,_RNvMNtCs6ew6Blb7sDz_18code_guardian_core5cacheINtB2_13InMemoryCacheNtNtCs8Ty2CzGA6U3_5alloc6string6StringlE3newB4_
FN:26,_RNvMNtCs6ew6Blb7sDz_18code_guardian_core5cacheINtB2_13InMemoryCachelINtNtCs8Ty2CzGA6U3_5alloc3vec3VecNtNtB19_6string6StringEE3newB4_
FN:56,_RNvXs0_NtCs6ew6Blb7sDz_18code_guardian_core5cacheINtB5_13InMemoryCacheNtNtCs8Ty2CzGA6U3_5alloc6string6StringlENtNtCs66KPHxksi63_4core7default7Default7defaultB7_
FN:38,_RNvXs_NtCs6ew6Blb7sDz_18code_guardian_core5cacheINtB4_13InMemoryCacheNtNtCs8Ty2CzGA6U3_5alloc6string6StringB15_EINtB4_5CacheB15_B15_E3getB6_
FN:42,_RNvXs_NtCs6ew6Blb7sDz_18code_guardian_core5cacheINtB4_13InMemoryCacheNtNtCs8Ty2CzGA6U3_5alloc6string6StringB15_EINtB4_5CacheB15_B15_E3setB6_
FN:46,_RNvXs_NtCs6ew6Blb7sDz_18code_guardian_core5cacheINtB4_13InMemoryCacheNtNtCs8Ty2CzGA6U3_5alloc6string6StringB15_EINtB4_5CacheB15_B15_E5clearB6_
FN:38,_RNvXs_NtCs6ew6Blb7sDz_18code_guardian_core5cacheINtB4_13InMemoryCacheNtNtCs8Ty2CzGA6U3_5alloc6string6StringlEINtB4_5CacheB15_lE3getB6_
FN:42,_RNvXs_NtCs6ew6Blb7sDz_18code_guardian_core5cacheINtB4_13InMemoryCacheNtNtCs8Ty2CzGA6U3_5alloc6string6StringlEINtB4_5CacheB15_lE3setB6_
FN:38,_RNvXs_NtCs6ew6Blb7sDz_18code_guardian_core5cacheINtB4_13InMemoryCachelINtNtCs8Ty2CzGA6U3_5alloc3vec3VecNtNtB1b_6string6StringEEINtB4_5CachelB16_E3getB6_
FN:42,_RNvXs_NtCs6ew6Blb7sDz_18code_guardian_core5cacheINtB4_13InMemoryCachelINtNtCs8Ty2CzGA6U3_5alloc3vec3VecNtNtB1b_6string6StringEEINtB4_5CachelB16_E3setB6_
FNDA:1,_RNvNtNtCs6ew6Blb7sDz_18code_guardian_core5cache5testss_16test_cache_clear
FNDA:1,_RNvNtNtCs6ew6Blb7sDz_18code_guardian_core5cache5testss_18test_cache_default
FNDA:1,_RNvNtNtCs6ew6Blb7sDz_18code_guardian_core5cache5testss_28test_cache_concurrent_access
FNDA:1,_RNvNtNtCs6ew6Blb7sDz_18code_guardian_core5cache5testss_31test_cache_with_different_types
FNDA:1,_RNvNtNtCs6ew6Blb7sDz_18code_guardian_core5cache5testss_37test_in_memory_cache_basic_operations
FNDA:10,_RNCNvNtNtCs6ew6Blb7sDz_18code_guardian_core5cache5testss_28test_cache_concurrent_access0B7_
FNDA:26,_RNCNvXs_NtCs6ew6Blb7sDz_18code_guardian_core5cacheINtB6_13InMemoryCacheNtNtCs8Ty2CzGA6U3_5alloc6string6StringB17_EINtB6_5CacheB17_B17_E3get0B8_
FNDA:1,_RNCNvXs_NtCs6ew6Blb7sDz_18code_guardian_core5cacheINtB6_13InMemoryCacheNtNtCs8Ty2CzGA6U3_5alloc6string6StringlEINtB6_5CacheB17_lE3get0B8_
FNDA:1,_RNCNvXs_NtCs6ew6Blb7sDz_18code_guardian_core5cacheINtB6_13InMemoryCachelINtNtCs8Ty2CzGA6U3_5alloc3vec3VecNtNtB1d_6string6StringEEINtB6_5CachelB18_E3get0B8_
FNDA:3,_RNvMNtCs6ew6Blb7sDz_18code_guardian_core5cacheINtB2_13InMemoryCacheNtNtCs8Ty2CzGA6U3_5alloc6string6StringB13_E3newB4_
FNDA:1,_RNvMNtCs6ew6Blb7sDz_18code_guardian_core5cacheINtB2_13InMemoryCacheNtNtCs8Ty2CzGA6U3_5alloc6string6StringlE3newB4_
FNDA:1,_RNvMNtCs6ew6Blb7sDz_18code_guardian_core5cacheINtB2_13InMemoryCachelINtNtCs8Ty2CzGA6U3_5alloc3vec3VecNtNtB19_6string6StringEE3newB4_
FNDA:1,_RNvXs0_NtCs6ew6Blb7sDz_18code_guardian_core5cacheINtB5_13InMemoryCacheNtNtCs8Ty2CzGA6U3_5alloc6string6StringlENtNtCs66KPHxksi63_4core7default7Default7defaultB7_
FNDA:29,_RNvXs_NtCs6ew6Blb7sDz_18code_guardian_core5cacheINtB4_13InMemoryCacheNtNtCs8Ty2CzGA6U3_5alloc6string6StringB15_EINtB4_5CacheB15_B15_E3getB6_
FNDA:15,_RNvXs_NtCs6ew6Blb7sDz_18code_guardian_core5cacheINtB4_13InMemoryCacheNtNtCs8Ty2CzGA6U3_5alloc6string6StringB15_EINtB4_5CacheB15_B15_E3setB6_
FNDA:1,_RNvXs_NtCs6ew6Blb7sDz_18code_guardian_core5cacheINtB4_13InMemoryCacheNtNtCs8Ty2CzGA6U3_5alloc6string6StringB15_EINtB4_5CacheB15_B15_E5clearB6_
FNDA:2,_RNvXs_NtCs6ew6Blb7sDz_18code_guardian_core5cacheINtB4_13InMemoryCacheNtNtCs8Ty2CzGA6U3_5alloc6string6StringlEINtB4_5CacheB15_lE3getB6_
FNDA:1,_RNvXs_NtCs6ew6Blb7sDz_18code_guardian_core5cacheINtB4_13InMemoryCacheNtNtCs8Ty2CzGA6U3_5alloc6string6StringlEINtB4_5CacheB15_lE3setB6_
FNDA:2,_RNvXs_NtCs6ew6Blb7sDz_18code_guardian_core5cacheINtB4_13InMemoryCachelINtNtCs8Ty2CzGA6U3_5alloc3vec3VecNtNtB1b_6string6StringEEINtB4_5CachelB16_E3getB6_
FNDA:1,_RNvXs_NtCs6ew6Blb7sDz_18code_guardian_core5cacheINtB4_13InMemoryCachelINtNtCs8Ty2CzGA6U3_5alloc3vec3VecNtNtB1b_6string6StringEEINtB4_5CachelB16_E3setB6_
FNF:12
FNH:12
DA:26,5
DA:27,5
DA:28,5
DA:29,5
DA:30,5
DA:38,33
DA:39,33
DA:40,33
DA:42,17
DA:43,17
DA:44,17
DA:46,1
DA:47,1
DA:48,1
DA:56,1
DA:57,1
DA:58,1
DA:66,1
DA:67,1
DA:70,1
DA:73,1
DA:74,1
DA:77,1
DA:78,1
DA:81,1
DA:82,1
DA:83,1
DA:84,1
DA:87,1
DA:88,1
DA:90,1
DA:91,1
DA:93,1
DA:94,1
DA:96,1
DA:98,1
DA:99,1
DA:100,1
DA:103,1
DA:104,1
DA:106,1
DA:107,1
DA:109,1
DA:110,1
DA:111,1
DA:114,1
DA:115,1
DA:116,1
DA:118,1
DA:119,1
DA:120,1
DA:123,1
DA:127,1
DA:128,1
DA:131,11
DA:132,10
DA:133,10
DA:134,10
DA:135,10
DA:136,10
DA:137,10
DA:138,10
DA:139,10
DA:140,10
DA:143,11
DA:144,10
DA:145,10
DA:148,11
DA:149,10
DA:150,10
DA:151,10
DA:153,1
BRF:0
BRH:0
LF:74
LH:74
end_of_record
SF:/workspaces/code-guardian/crates/core/src/config.rs
FN:29,_RINvNtCslCYtQ1Dl4P0_18code_guardian_core6config11load_configNtNtCsiKSG5X70Gj7_3std4path7PathBufECs16s6DcJnmvZ_17code_guardian_cli
FN:45,_RNCINvNtCslCYtQ1Dl4P0_18code_guardian_core6config11load_configNtNtCsiKSG5X70Gj7_3std4path7PathBufE0Cs16s6DcJnmvZ_17code_guardian_cli
FN:16,_RNvXNtCslCYtQ1Dl4P0_18code_guardian_core6configNtB2_6ConfigNtNtCs66KPHxksi63_4core7default7Default7default
FN:75,_RNvNtNtCs6ew6Blb7sDz_18code_guardian_core6config5testss_19test_default_config
FN:112,_RNvNtNtCs6ew6Blb7sDz_18code_guardian_core6config5testss_21test_load_config_json
FN:87,_RNvNtNtCs6ew6Blb7sDz_18code_guardian_core6config5testss_21test_load_config_toml
FN:137,_RNvNtNtCs6ew6Blb7sDz_18code_guardian_core6config5testss_24test_load_config_no_file
FN:150,_RNvNtNtCs6ew6Blb7sDz_18code_guardian_core6config5testss_35test_load_config_unsupported_format
FN:29,_RINvNtCs6ew6Blb7sDz_18code_guardian_core6config11load_configRNtNtCsiKSG5X70Gj7_3std4path7PathBufEB4_
FN:29,_RINvNtCs6ew6Blb7sDz_18code_guardian_core6config11load_configReEB4_
FN:45,_RNCINvNtCs6ew6Blb7sDz_18code_guardian_core6config11load_configRNtNtCsiKSG5X70Gj7_3std4path7PathBufE0B6_
FN:45,_RNCINvNtCs6ew6Blb7sDz_18code_guardian_core6config11load_configReE0B6_
FN:16,_RNvXNtCs6ew6Blb7sDz_18code_guardian_core6configNtB2_6ConfigNtNtCs66KPHxksi63_4core7default7Default7default
FN:29,_RINvNtCslCYtQ1Dl4P0_18code_guardian_core6config11load_configNtNtCsiKSG5X70Gj7_3std4path7PathBufECshOKUTiOstO6_26integration_workflow_tests
FN:45,_RNCINvNtCslCYtQ1Dl4P0_18code_guardian_core6config11load_configNtNtCsiKSG5X70Gj7_3std4path7PathBufE0CshOKUTiOstO6_26integration_workflow_tests
FNDA:9,_RINvNtCslCYtQ1Dl4P0_18code_guardian_core6config11load_configNtNtCsiKSG5X70Gj7_3std4path7PathBufECs16s6DcJnmvZ_17code_guardian_cli
FNDA:0,_RNCINvNtCslCYtQ1Dl4P0_18code_guardian_core6config11load_configNtNtCsiKSG5X70Gj7_3std4path7PathBufE0Cs16s6DcJnmvZ_17code_guardian_cli
FNDA:0,_RNvXNtCslCYtQ1Dl4P0_18code_guardian_core6configNtB2_6ConfigNtNtCs66KPHxksi63_4core7default7Default7default
FNDA:1,_RNvNtNtCs6ew6Blb7sDz_18code_guardian_core6config5testss_19test_default_config
FNDA:1,_RNvNtNtCs6ew6Blb7sDz_18code_guardian_core6config5testss_21test_load_config_json
FNDA:1,_RNvNtNtCs6ew6Blb7sDz_18code_guardian_core6config5testss_21test_load_config_toml
FNDA:1,_RNvNtNtCs6ew6Blb7sDz_18code_guardian_core6config5testss_24test_load_config_no_file
FNDA:1,_RNvNtNtCs6ew6Blb7sDz_18code_guardian_core6config5testss_35test_load_config_unsupported_format
FNDA:3,_RINvNtCs6ew6Blb7sDz_18code_guardian_core6config11load_configRNtNtCsiKSG5X70Gj7_3std4path7PathBufEB4_
FNDA:1,_RINvNtCs6ew6Blb7sDz_18code_guardian_core6config11load_configReEB4_
FNDA:3,_RNCINvNtCs6ew6Blb7sDz_18code_guardian_core6config11load_configRNtNtCsiKSG5X70Gj7_3std4path7PathBufE0B6_
FNDA:0,_RNCINvNtCs6ew6Blb7sDz_18code_guardian_core6config11load_configReE0B6_
FNDA:2,_RNvXNtCs6ew6Blb7sDz_18code_guardian_core6configNtB2_6ConfigNtNtCs66KPHxksi63_4core7default7Default7default
FNDA:13,_RINvNtCslCYtQ1Dl4P0_18code_guardian_core6config11load_configNtNtCsiKSG5X70Gj7_3std4path7PathBufECshOKUTiOstO6_26integration_workflow_tests
FNDA:2,_RNCINvNtCslCYtQ1Dl4P0_18code_guardian_core6config11load_configNtNtCsiKSG5X70Gj7_3std4path7PathBufE0CshOKUTiOstO6_26integration_workflow_tests
FNF:8
FNH:8
DA:16,2
DA:17,2
DA:18,2
DA:19,2
DA:20,2
DA:21,2
DA:22,2
DA:23,2
DA:24,2
DA:25,2
DA:26,2
DA:29,26
DA:30,26
DA:33,26
DA:34,26
DA:35,26
DA:36,26
DA:37,26
DA:38,26
DA:39,26
DA:42,26
DA:43,5
DA:44,5
DA:45,5
DA:46,5
DA:47,5
DA:48,3
DA:49,3
DA:50,2
DA:51,1
DA:52,1
DA:54,1
DA:55,1
DA:56,1
DA:57,1
DA:60,0
DA:61,21
DA:63,25
DA:64,24
DA:65,24
DA:66,26
DA:75,1
DA:76,1
DA:77,1
DA:78,1
DA:79,1
DA:80,1
DA:81,1
DA:82,1
DA:83,1
DA:84,1
DA:87,1
DA:88,1
DA:89,1
DA:90,1
DA:91,1
DA:92,1
DA:93,1
DA:94,1
DA:95,1
DA:96,1
DA:97,1
DA:98,1
DA:99,1
DA:101,1
DA:102,1
DA:103,1
DA:104,1
DA:105,1
DA:106,1
DA:107,1
DA:108,1
DA:109,1
DA:112,1
DA:113,1
DA:114,1
DA:115,1
DA:116,1
DA:117,1
DA:118,1
DA:119,1
DA:120,1
DA:121,1
DA:122,1
DA:123,1
DA:124,1
DA:126,1
DA:127,1
DA:128,1
DA:129,1
DA:130,1
DA:131,1
DA:132,1
DA:133,1
DA:134,1
DA:137,1
DA:138,1
DA:139,1
DA:140,1
DA:141,1
DA:142,1
DA:143,1
DA:144,1
DA:145,1
DA:146,1
DA:147,1
DA:150,1
DA:151,1
DA:152,1
DA:153,1
DA:155,1
DA:156,1
DA:157,1
BRF:0
BRH:0
LF:114
LH:112
end_of_record
SF:/workspaces/code-guardian/crates/core/src/custom_detectors.rs
FN:183,_RINvMs2_NtCslCYtQ1Dl4P0_18code_guardian_core16custom_detectorsNtB6_21CustomDetectorManager12save_to_fileRNtNtCsiKSG5X70Gj7_3std4path7PathBufECs16s6DcJnmvZ_17code_guardian_cli
FN:155,_RINvMs2_NtCslCYtQ1Dl4P0_18code_guardian_core16custom_detectorsNtB6_21CustomDetectorManager14load_from_fileRNtNtCsiKSG5X70Gj7_3std4path7PathBufECs16s6DcJnmvZ_17code_guardian_cli
FN:187,_RNCINvMs2_NtCslCYtQ1Dl4P0_18code_guardian_core16custom_detectorsNtB8_21CustomDetectorManager12save_to_fileRNtNtCsiKSG5X70Gj7_3std4path7PathBufE0Cs16s6DcJnmvZ_17code_guardian_cli
FN:191,_RNCINvMs2_NtCslCYtQ1Dl4P0_18code_guardian_core16custom_detectorsNtB8_21CustomDetectorManager12save_to_fileRNtNtCsiKSG5X70Gj7_3std4path7PathBufEs_0Cs16s6DcJnmvZ_17code_guardian_cli
FN:160,_RNCINvMs2_NtCslCYtQ1Dl4P0_18code_guardian_core16custom_detectorsNtB8_21CustomDetectorManager14load_from_fileRNtNtCsiKSG5X70Gj7_3std4path7PathBufE0Cs16s6DcJnmvZ_17code_guardian_cli
FN:133,_RNCNvMs1_NtCslCYtQ1Dl4P0_18code_guardian_core16custom_detectorsNtB7_14CustomDetector27extract_message_from_groups0B9_
FN:231,_RNCNvMs2_NtCslCYtQ1Dl4P0_18code_guardian_core16custom_detectorsNtB7_21CustomDetectorManager13get_detectors0B9_
FN:232,_RNCNvMs2_NtCslCYtQ1Dl4P0_18code_guardian_core16custom_detectorsNtB7_21CustomDetectorManager13get_detectorss_0B9_
FN:238,_RNCNvMs2_NtCslCYtQ1Dl4P0_18code_guardian_core16custom_detectorsNtB7_21CustomDetectorManager14list_detectors0B9_
FN:76,_RNCNvMs_NtCslCYtQ1Dl4P0_18code_guardian_core16custom_detectorsNtB6_14CustomDetector19should_process_file0B8_
FN:80,_RNCNvMs_NtCslCYtQ1Dl4P0_18code_guardian_core16custom_detectorsNtB6_14CustomDetector19should_process_files_0B8_
FN:60,_RNCNvMs_NtCslCYtQ1Dl4P0_18code_guardian_core16custom_detectorsNtB6_14CustomDetector3new0B8_
FN:122,_RNvMs1_NtCslCYtQ1Dl4P0_18code_guardian_core16custom_detectorsNtB5_14CustomDetector27extract_message_from_groups
FN:209,_RNvMs2_NtCslCYtQ1Dl4P0_18code_guardian_core16custom_detectorsNtB5_21CustomDetectorManager12add_detector
FN:228,_RNvMs2_NtCslCYtQ1Dl4P0_18code_guardian_core16custom_detectorsNtB5_21CustomDetectorManager13get_detectors
FN:237,_RNvMs2_NtCslCYtQ1Dl4P0_18code_guardian_core16custom_detectorsNtB5_21CustomDetectorManager14list_detectors
FN:262,_RNvMs2_NtCslCYtQ1Dl4P0_18code_guardian_core16custom_detectorsNtB5_21CustomDetectorManager15create_examples
FN:218,_RNvMs2_NtCslCYtQ1Dl4P0_18code_guardian_core16custom_detectorsNtB5_21CustomDetectorManager15remove_detector
FN:242,_RNvMs2_NtCslCYtQ1Dl4P0_18code_guardian_core16custom_detectorsNtB5_21CustomDetectorManager20set_detector_enabled
FN:147,_RNvMs2_NtCslCYtQ1Dl4P0_18code_guardian_core16custom_detectorsNtB5_21CustomDetectorManager3new
FN:71,_RNvMs_NtCslCYtQ1Dl4P0_18code_guardian_core16custom_detectorsNtB4_14CustomDetector19should_process_file
FN:50,_RNvMs_NtCslCYtQ1Dl4P0_18code_guardian_core16custom_detectorsNtB4_14CustomDetector3new
FN:66,_RNvMs_NtCslCYtQ1Dl4P0_18code_guardian_core16custom_detectorsNtB4_14CustomDetector6config
FN:321,_RNvNtCslCYtQ1Dl4P0_18code_guardian_core16custom_detectors16find_line_column
FN:43,_RNvXNtCslCYtQ1Dl4P0_18code_guardian_core16custom_detectorsNtB2_14CustomDetectorNtNtCs66KPHxksi63_4core5clone5Clone5clone
FN:88,_RNvXs0_NtCslCYtQ1Dl4P0_18code_guardian_core16custom_detectorsNtB5_14CustomDetectorNtB7_15PatternDetector6detect
FN:315,_RNvXs3_NtCslCYtQ1Dl4P0_18code_guardian_core16custom_detectorsNtB5_21CustomDetectorManagerNtNtCs66KPHxksi63_4core7default7Default7default
FN:183,_RINvMs2_NtCs6ew6Blb7sDz_18code_guardian_core16custom_detectorsNtB6_21CustomDetectorManager12save_to_filepEB8_
FN:155,_RINvMs2_NtCs6ew6Blb7sDz_18code_guardian_core16custom_detectorsNtB6_21CustomDetectorManager14load_from_filepEB8_
FN:187,_RNCINvMs2_NtCs6ew6Blb7sDz_18code_guardian_core16custom_detectorsNtB8_21CustomDetectorManager12save_to_filepE0Ba_
FN:191,_RNCINvMs2_NtCs6ew6Blb7sDz_18code_guardian_core16custom_detectorsNtB8_21CustomDetectorManager12save_to_filepEs_0Ba_
FN:160,_RNCINvMs2_NtCs6ew6Blb7sDz_18code_guardian_core16custom_detectorsNtB8_21CustomDetectorManager14load_from_filepE0Ba_
FN:218,_RNvMs2_NtCs6ew6Blb7sDz_18code_guardian_core16custom_detectorsNtB5_21CustomDetectorManager15remove_detector
FN:242,_RNvMs2_NtCs6ew6Blb7sDz_18code_guardian_core16custom_detectorsNtB5_21CustomDetectorManager20set_detector_enabled
FN:315,_RNvXs3_NtCs6ew6Blb7sDz_18code_guardian_core16custom_detectorsNtB5_21CustomDetectorManagerNtNtCs66KPHxksi63_4core7default7Default7default
FN:122,_RNvMs1_NtCs6ew6Blb7sDz_18code_guardian_core16custom_detectorsNtB5_14CustomDetector27extract_message_from_groups
FN:209,_RNvMs2_NtCs6ew6Blb7sDz_18code_guardian_core16custom_detectorsNtB5_21CustomDetectorManager12add_detector
FN:228,_RNvMs2_NtCs6ew6Blb7sDz_18code_guardian_core16custom_detectorsNtB5_21CustomDetectorManager13get_detectors
FN:237,_RNvMs2_NtCs6ew6Blb7sDz_18code_guardian_core16custom_detectorsNtB5_21CustomDetectorManager14list_detectors
FN:262,_RNvMs2_NtCs6ew6Blb7sDz_18code_guardian_core16custom_detectorsNtB5_21CustomDetectorManager15create_examples
FN:147,_RNvMs2_NtCs6ew6Blb7sDz_18code_guardian_core16custom_detectorsNtB5_21CustomDetectorManager3new
FN:71,_RNvMs_NtCs6ew6Blb7sDz_18code_guardian_core16custom_detectorsNtB4_14CustomDetector19should_process_file
FN:50,_RNvMs_NtCs6ew6Blb7sDz_18code_guardian_core16custom_detectorsNtB4_14CustomDetector3new
FN:66,_RNvMs_NtCs6ew6Blb7sDz_18code_guardian_core16custom_detectorsNtB4_14CustomDetector6config
FN:321,_RNvNtCs6ew6Blb7sDz_18code_guardian_core16custom_detectors16find_line_column
FN:43,_RNvXNtCs6ew6Blb7sDz_18code_guardian_core16custom_detectorsNtB2_14CustomDetectorNtNtCs66KPHxksi63_4core5clone5Clone5clone
FN:88,_RNvXs0_NtCs6ew6Blb7sDz_18code_guardian_core16custom_detectorsNtB5_14CustomDetectorNtB7_15PatternDetector6detect
FN:133,_RNCNvMs1_NtCs6ew6Blb7sDz_18code_guardian_core16custom_detectorsNtB7_14CustomDetector27extract_message_from_groups0B9_
FN:231,_RNCNvMs2_NtCs6ew6Blb7sDz_18code_guardian_core16custom_detectorsNtB7_21CustomDetectorManager13get_detectors0B9_
FN:232,_RNCNvMs2_NtCs6ew6Blb7sDz_18code_guardian_core16custom_detectorsNtB7_21CustomDetectorManager13get_detectorss_0B9_
FN:238,_RNCNvMs2_NtCs6ew6Blb7sDz_18code_guardian_core16custom_detectorsNtB7_21CustomDetectorManager14list_detectors0B9_
FN:76,_RNCNvMs_NtCs6ew6Blb7sDz_18code_guardian_core16custom_detectorsNtB6_14CustomDetector19should_process_file0B8_
FN:80,_RNCNvMs_NtCs6ew6Blb7sDz_18code_guardian_core16custom_detectorsNtB6_14CustomDetector19should_process_files_0B8_
FN:60,_RNCNvMs_NtCs6ew6Blb7sDz_18code_guardian_core16custom_detectorsNtB6_14CustomDetector3new0B8_
FN:423,_RNvNtNtCs6ew6Blb7sDz_18code_guardian_core16custom_detectors5testss_18test_complex_regex
FN:402,_RNvNtNtCs6ew6Blb7sDz_18code_guardian_core16custom_detectors5testss_18test_empty_pattern
FN:588,_RNvNtNtCs6ew6Blb7sDz_18code_guardian_core16custom_detectors5testss_18test_invalid_regex
FN:445,_RNvNtNtCs6ew6Blb7sDz_18code_guardian_core16custom_detectors5testss_18test_large_content
FN:542,_RNvNtNtCs6ew6Blb7sDz_18code_guardian_core16custom_detectors5testss_19test_capture_groups
FN:492,_RNvNtNtCs6ew6Blb7sDz_18code_guardian_core16custom_detectors5testss_21test_case_insensitive
FN:390,_RNvNtNtCs6ew6Blb7sDz_18code_guardian_core16custom_detectors5testss_21test_detector_manager
FN:566,_RNvNtNtCs6ew6Blb7sDz_18code_guardian_core16custom_detectors5testss_22test_disabled_detector
FN:470,_RNvNtNtCs6ew6Blb7sDz_18code_guardian_core16custom_detectors5testss_22test_multiline_pattern
FN:346,_RNvNtNtCs6ew6Blb7sDz_18code_guardian_core16custom_detectors5testss_29test_custom_detector_creation
FN:366,_RNvNtNtCs6ew6Blb7sDz_18code_guardian_core16custom_detectors5testss_29test_custom_detector_matching
FN:514,_RNvNtNtCs6ew6Blb7sDz_18code_guardian_core16custom_detectors5testss_29test_file_extension_filtering
FN:183,_RINvMs2_NtCslCYtQ1Dl4P0_18code_guardian_core16custom_detectorsNtB6_21CustomDetectorManager12save_to_fileRNtNtCsiKSG5X70Gj7_3std4path7PathBufECs5xHA0DhfRKe_17code_guardian_cli
FN:155,_RINvMs2_NtCslCYtQ1Dl4P0_18code_guardian_core16custom_detectorsNtB6_21CustomDetectorManager14load_from_fileRNtNtCsiKSG5X70Gj7_3std4path7PathBufECs5xHA0DhfRKe_17code_guardian_cli
FN:187,_RNCINvMs2_NtCslCYtQ1Dl4P0_18code_guardian_core16custom_detectorsNtB8_21CustomDetectorManager12save_to_fileRNtNtCsiKSG5X70Gj7_3std4path7PathBufE0Cs5xHA0DhfRKe_17code_guardian_cli
FN:191,_RNCINvMs2_NtCslCYtQ1Dl4P0_18code_guardian_core16custom_detectorsNtB8_21CustomDetectorManager12save_to_fileRNtNtCsiKSG5X70Gj7_3std4path7PathBufEs_0Cs5xHA0DhfRKe_17code_guardian_cli
FN:160,_RNCINvMs2_NtCslCYtQ1Dl4P0_18code_guardian_core16custom_detectorsNtB8_21CustomDetectorManager14load_from_fileRNtNtCsiKSG5X70Gj7_3std4path7PathBufE0Cs5xHA0DhfRKe_17code_guardian_cli
FNDA:3,_RINvMs2_NtCslCYtQ1Dl4P0_18code_guardian_core16custom_detectorsNtB6_21CustomDetectorManager12save_to_fileRNtNtCsiKSG5X70Gj7_3std4path7PathBufECs16s6DcJnmvZ_17code_guardian_cli
FNDA:3,_RINvMs2_NtCslCYtQ1Dl4P0_18code_guardian_core16custom_detectorsNtB6_21CustomDetectorManager14load_from_fileRNtNtCsiKSG5X70Gj7_3std4path7PathBufECs16s6DcJnmvZ_17code_guardian_cli
FNDA:9,_RNCINvMs2_NtCslCYtQ1Dl4P0_18code_guardian_core16custom_detectorsNtB8_21CustomDetectorManager12save_to_fileRNtNtCsiKSG5X70Gj7_3std4path7PathBufE0Cs16s6DcJnmvZ_17code_guardian_cli
FNDA:3,_RNCINvMs2_NtCslCYtQ1Dl4P0_18code_guardian_core16custom_detectorsNtB8_21CustomDetectorManager12save_to_fileRNtNtCsiKSG5X70Gj7_3std4path7PathBufEs_0Cs16s6DcJnmvZ_17code_guardian_cli
FNDA:3,_RNCINvMs2_NtCslCYtQ1Dl4P0_18code_guardian_core16custom_detectorsNtB8_21CustomDetectorManager14load_from_fileRNtNtCsiKSG5X70Gj7_3std4path7PathBufE0Cs16s6DcJnmvZ_17code_guardian_cli
FNDA:0,_RNCNvMs1_NtCslCYtQ1Dl4P0_18code_guardian_core16custom_detectorsNtB7_14CustomDetector27extract_message_from_groups0B9_
FNDA:4,_RNCNvMs2_NtCslCYtQ1Dl4P0_18code_guardian_core16custom_detectorsNtB7_21CustomDetectorManager13get_detectors0B9_
FNDA:4,_RNCNvMs2_NtCslCYtQ1Dl4P0_18code_guardian_core16custom_detectorsNtB7_21CustomDetectorManager13get_detectorss_0B9_
FNDA:3,_RNCNvMs2_NtCslCYtQ1Dl4P0_18code_guardian_core16custom_detectorsNtB7_21CustomDetectorManager14list_detectors0B9_
FNDA:4,_RNCNvMs_NtCslCYtQ1Dl4P0_18code_guardian_core16custom_detectorsNtB6_14CustomDetector19should_process_file0B8_
FNDA:6,_RNCNvMs_NtCslCYtQ1Dl4P0_18code_guardian_core16custom_detectorsNtB6_14CustomDetector19should_process_files_0B8_
FNDA:0,_RNCNvMs_NtCslCYtQ1Dl4P0_18code_guardian_core16custom_detectorsNtB6_14CustomDetector3new0B8_
FNDA:0,_RNvMs1_NtCslCYtQ1Dl4P0_18code_guardian_core16custom_detectorsNtB5_14CustomDetector27extract_message_from_groups
FNDA:9,_RNvMs2_NtCslCYtQ1Dl4P0_18code_guardian_core16custom_detectorsNtB5_21CustomDetectorManager12add_detector
FNDA:22,_RNvMs2_NtCslCYtQ1Dl4P0_18code_guardian_core16custom_detectorsNtB5_21CustomDetectorManager13get_detectors
FNDA:1,_RNvMs2_NtCslCYtQ1Dl4P0_18code_guardian_core16custom_detectorsNtB5_21CustomDetectorManager14list_detectors
FNDA:3,_RNvMs2_NtCslCYtQ1Dl4P0_18code_guardian_core16custom_detectorsNtB5_21CustomDetectorManager15create_examples
FNDA:0,_RNvMs2_NtCslCYtQ1Dl4P0_18code_guardian_core16custom_detectorsNtB5_21CustomDetectorManager15remove_detector
FNDA:0,_RNvMs2_NtCslCYtQ1Dl4P0_18code_guardian_core16custom_detectorsNtB5_21CustomDetectorManager20set_detector_enabled
FNDA:26,_RNvMs2_NtCslCYtQ1Dl4P0_18code_guardian_core16custom_detectorsNtB5_21CustomDetectorManager3new
FNDA:5,_RNvMs_NtCslCYtQ1Dl4P0_18code_guardian_core16custom_detectorsNtB4_14CustomDetector19should_process_file
FNDA:20,_RNvMs_NtCslCYtQ1Dl4P0_18code_guardian_core16custom_detectorsNtB4_14CustomDetector3new
FNDA:16,_RNvMs_NtCslCYtQ1Dl4P0_18code_guardian_core16custom_detectorsNtB4_14CustomDetector6config
FNDA:0,_RNvNtCslCYtQ1Dl4P0_18code_guardian_core16custom_detectors16find_line_column
FNDA:4,_RNvXNtCslCYtQ1Dl4P0_18code_guardian_core16custom_detectorsNtB2_14CustomDetectorNtNtCs66KPHxksi63_4core5clone5Clone5clone
FNDA:5,_RNvXs0_NtCslCYtQ1Dl4P0_18code_guardian_core16custom_detectorsNtB5_14CustomDetectorNtB7_15PatternDetector6detect
FNDA:0,_RNvXs3_NtCslCYtQ1Dl4P0_18code_guardian_core16custom_detectorsNtB5_21CustomDetectorManagerNtNtCs66KPHxksi63_4core7default7Default7default
FNDA:0,_RINvMs2_NtCs6ew6Blb7sDz_18code_guardian_core16custom_detectorsNtB6_21CustomDetectorManager12save_to_filepEB8_
FNDA:0,_RINvMs2_NtCs6ew6Blb7sDz_18code_guardian_core16custom_detectorsNtB6_21CustomDetectorManager14load_from_filepEB8_
FNDA:0,_RNCINvMs2_NtCs6ew6Blb7sDz_18code_guardian_core16custom_detectorsNtB8_21CustomDetectorManager12save_to_filepE0Ba_
FNDA:0,_RNCINvMs2_NtCs6ew6Blb7sDz_18code_guardian_core16custom_detectorsNtB8_21CustomDetectorManager12save_to_filepEs_0Ba_
FNDA:0,_RNCINvMs2_NtCs6ew6Blb7sDz_18code_guardian_core16custom_detectorsNtB8_21CustomDetectorManager14load_from_filepE0Ba_
FNDA:0,_RNvMs2_NtCs6ew6Blb7sDz_18code_guardian_core16custom_detectorsNtB5_21CustomDetectorManager15remove_detector
FNDA:0,_RNvMs2_NtCs6ew6Blb7sDz_18code_guardian_core16custom_detectorsNtB5_21CustomDetectorManager20set_detector_enabled
FNDA:0,_RNvXs3_NtCs6ew6Blb7sDz_18code_guardian_core16custom_detectorsNtB5_21CustomDetectorManagerNtNtCs66KPHxksi63_4core7default7Default7default
FNDA:1,_RNvMs1_NtCs6ew6Blb7sDz_18code_guardian_core16custom_detectorsNtB5_14CustomDetector27extract_message_from_groups
FNDA:3,_RNvMs2_NtCs6ew6Blb7sDz_18code_guardian_core16custom_detectorsNtB5_21CustomDetectorManager12add_detector
FNDA:1,_RNvMs2_NtCs6ew6Blb7sDz_18code_guardian_core16custom_detectorsNtB5_21CustomDetectorManager13get_detectors
FNDA:2,_RNvMs2_NtCs6ew6Blb7sDz_18code_guardian_core16custom_detectorsNtB5_21CustomDetectorManager14list_detectors
FNDA:1,_RNvMs2_NtCs6ew6Blb7sDz_18code_guardian_core16custom_detectorsNtB5_21CustomDetectorManager15create_examples
FNDA:1,_RNvMs2_NtCs6ew6Blb7sDz_18code_guardian_core16custom_detectorsNtB5_21CustomDetectorManager3new
FNDA:8,_RNvMs_NtCs6ew6Blb7sDz_18code_guardian_core16custom_detectorsNtB4_14CustomDetector19should_process_file
FNDA:17,_RNvMs_NtCs6ew6Blb7sDz_18code_guardian_core16custom_detectorsNtB4_14CustomDetector3new
FNDA:6,_RNvMs_NtCs6ew6Blb7sDz_18code_guardian_core16custom_detectorsNtB4_14CustomDetector6config
FNDA:8,_RNvNtCs6ew6Blb7sDz_18code_guardian_core16custom_detectors16find_line_column
FNDA:3,_RNvXNtCs6ew6Blb7sDz_18code_guardian_core16custom_detectorsNtB2_14CustomDetectorNtNtCs66KPHxksi63_4core5clone5Clone5clone
FNDA:9,_RNvXs0_NtCs6ew6Blb7sDz_18code_guardian_core16custom_detectorsNtB5_14CustomDetectorNtB7_15PatternDetector6detect
FNDA:0,_RNCNvMs1_NtCs6ew6Blb7sDz_18code_guardian_core16custom_detectorsNtB7_14CustomDetector27extract_message_from_groups0B9_
FNDA:3,_RNCNvMs2_NtCs6ew6Blb7sDz_18code_guardian_core16custom_detectorsNtB7_21CustomDetectorManager13get_detectors0B9_
FNDA:3,_RNCNvMs2_NtCs6ew6Blb7sDz_18code_guardian_core16custom_detectorsNtB7_21CustomDetectorManager13get_detectorss_0B9_
FNDA:3,_RNCNvMs2_NtCs6ew6Blb7sDz_18code_guardian_core16custom_detectorsNtB7_21CustomDetectorManager14list_detectors0B9_
FNDA:4,_RNCNvMs_NtCs6ew6Blb7sDz_18code_guardian_core16custom_detectorsNtB6_14CustomDetector19should_process_file0B8_
FNDA:4,_RNCNvMs_NtCs6ew6Blb7sDz_18code_guardian_core16custom_detectorsNtB6_14CustomDetector19should_process_files_0B8_
FNDA:1,_RNCNvMs_NtCs6ew6Blb7sDz_18code_guardian_core16custom_detectorsNtB6_14CustomDetector3new0B8_
FNDA:1,_RNvNtNtCs6ew6Blb7sDz_18code_guardian_core16custom_detectors5testss_18test_complex_regex
FNDA:1,_RNvNtNtCs6ew6Blb7sDz_18code_guardian_core16custom_detectors5testss_18test_empty_pattern
FNDA:1,_RNvNtNtCs6ew6Blb7sDz_18code_guardian_core16custom_detectors5testss_18test_invalid_regex
FNDA:1,_RNvNtNtCs6ew6Blb7sDz_18code_guardian_core16custom_detectors5testss_18test_large_content
FNDA:1,_RNvNtNtCs6ew6Blb7sDz_18code_guardian_core16custom_detectors5testss_19test_capture_groups
FNDA:1,_RNvNtNtCs6ew6Blb7sDz_18code_guardian_core16custom_detectors5testss_21test_case_insensitive
FNDA:1,_RNvNtNtCs6ew6Blb7sDz_18code_guardian_core16custom_detectors5testss_21test_detector_manager
FNDA:1,_RNvNtNtCs6ew6Blb7sDz_18code_guardian_core16custom_detectors5testss_22test_disabled_detector
FNDA:1,_RNvNtNtCs6ew6Blb7sDz_18code_guardian_core16custom_detectors5testss_22test_multiline_pattern
FNDA:1,_RNvNtNtCs6ew6Blb7sDz_18code_guardian_core16custom_detectors5testss_29test_custom_detector_creation
FNDA:1,_RNvNtNtCs6ew6Blb7sDz_18code_guardian_core16custom_detectors5testss_29test_custom_detector_matching
FNDA:1,_RNvNtNtCs6ew6Blb7sDz_18code_guardian_core16custom_detectors5testss_29test_file_extension_filtering
FNDA:0,_RINvMs2_NtCslCYtQ1Dl4P0_18code_guardian_core16custom_detectorsNtB6_21CustomDetectorManager12save_to_fileRNtNtCsiKSG5X70Gj7_3std4path7PathBufECs5xHA0DhfRKe_17code_guardian_cli
FNDA:0,_RINvMs2_NtCslCYtQ1Dl4P0_18code_guardian_core16custom_detectorsNtB6_21CustomDetectorManager14load_from_fileRNtNtCsiKSG5X70Gj7_3std4path7PathBufECs5xHA0DhfRKe_17code_guardian_cli
FNDA:0,_RNCINvMs2_NtCslCYtQ1Dl4P0_18code_guardian_core16custom_detectorsNtB8_21CustomDetectorManager12save_to_fileRNtNtCsiKSG5X70Gj7_3std4path7PathBufE0Cs5xHA0DhfRKe_17code_guardian_cli
FNDA:0,_RNCINvMs2_NtCslCYtQ1Dl4P0_18code_guardian_core16custom_detectorsNtB8_21CustomDetectorManager12save_to_fileRNtNtCsiKSG5X70Gj7_3std4path7PathBufEs_0Cs5xHA0DhfRKe_17code_guardian_cli
FNDA:0,_RNCINvMs2_NtCslCYtQ1Dl4P0_18code_guardian_core16custom_detectorsNtB8_21CustomDetectorManager14load_from_fileRNtNtCsiKSG5X70Gj7_3std4path7PathBufE0Cs5xHA0DhfRKe_17code_guardian_cli
FNF:39
FNH:35
DA:43,7
DA:44,7
DA:45,7
DA:50,37
DA:51,37
DA:54,37
DA:55,37
DA:56,37
DA:58,37
DA:59,37
DA:60,37
DA:62,36
DA:63,37
DA:66,22
DA:67,22
DA:68,22
DA:71,13
DA:72,13
DA:73,5
DA:74,8
DA:76,8
DA:77,8
DA:78,8
DA:79,8
DA:80,10
DA:82,0
DA:84,13
DA:88,14
DA:89,14
DA:90,6
DA:91,8
DA:93,8
DA:95,8
DA:96,8
DA:98,8
DA:101,8
DA:102,1
DA:104,7
DA:107,8
DA:108,8
DA:109,8
DA:110,8
DA:111,8
DA:112,8
DA:113,8
DA:114,0
DA:117,8
DA:118,14
DA:122,1
DA:123,1
DA:125,3
DA:126,2
DA:127,2
DA:128,2
DA:131,1
DA:132,0
DA:133,0
DA:135,1
DA:137,1
DA:147,27
DA:148,27
DA:149,27
DA:150,27
DA:151,27
DA:152,27
DA:155,3
DA:156,3
DA:157,3
DA:159,3
DA:160,3
DA:161,3
DA:162,0
DA:163,0
DA:164,0
DA:167,10
DA:168,7
DA:169,7
DA:172,3
DA:173,3
DA:174,3
DA:175,3
DA:176,3
DA:179,3
DA:180,3
DA:183,3
DA:184,3
DA:185,3
DA:186,3
DA:187,9
DA:188,3
DA:190,3
DA:191,3
DA:192,3
DA:193,0
DA:194,0
DA:195,0
DA:198,3
DA:199,3
DA:200,3
DA:201,3
DA:202,3
DA:205,3
DA:206,3
DA:209,12
DA:210,12
DA:211,12
DA:212,12
DA:213,12
DA:214,12
DA:215,12
DA:218,0
DA:219,0
DA:220,0
DA:221,0
DA:223,0
DA:225,0
DA:228,23
DA:229,23
DA:230,23
DA:231,23
DA:232,23
DA:233,23
DA:234,23
DA:237,3
DA:238,6
DA:239,3
DA:242,0
DA:243,0
DA:246,0
DA:247,0
DA:248,0
DA:249,0
DA:250,0
DA:251,0
DA:252,0
DA:255,0
DA:257,0
DA:259,0
DA:262,4
DA:263,4
DA:264,4
DA:265,4
DA:266,4
DA:267,4
DA:268,4
DA:269,4
DA:270,4
DA:271,4
DA:272,4
DA:273,4
DA:274,4
DA:275,4
DA:276,4
DA:277,4
DA:278,4
DA:279,4
DA:280,4
DA:281,4
DA:282,4
DA:283,4
DA:284,4
DA:285,4
DA:286,4
DA:287,4
DA:288,4
DA:289,4
DA:290,4
DA:291,4
DA:292,4
DA:293,4
DA:294,4
DA:295,4
DA:296,4
DA:297,4
DA:298,4
DA:299,4
DA:300,4
DA:301,4
DA:302,4
DA:303,4
DA:306,16
DA:307,12
DA:310,4
DA:311,4
DA:315,0
DA:316,0
DA:317,0
DA:321,8
DA:322,8
DA:323,8
DA:325,100039
DA:326,100039
DA:327,8
DA:328,100031
DA:330,100031
DA:331,10001
DA:332,10001
DA:333,90030
DA:334,90030
DA:335,90030
DA:338,8
DA:339,8
DA:346,1
DA:347,1
DA:348,1
DA:349,1
DA:350,1
DA:351,1
DA:352,1
DA:353,1
DA:354,1
DA:355,1
DA:356,1
DA:357,1
DA:358,1
DA:359,1
DA:361,1
DA:362,1
DA:363,1
DA:366,1
DA:367,1
DA:368,1
DA:369,1
DA:370,1
DA:371,1
DA:372,1
DA:373,1
DA:374,1
DA:375,1
DA:376,1
DA:377,1
DA:378,1
DA:379,1
DA:381,1
DA:382,1
DA:383,1
DA:385,1
DA:386,1
DA:387,1
DA:390,1
DA:391,1
DA:392,1
DA:394,1
DA:395,1
DA:397,1
DA:398,1
DA:399,1
DA:402,1
DA:403,1
DA:404,1
DA:405,1
DA:406,1
DA:407,1
DA:408,1
DA:409,1
DA:410,1
DA:411,1
DA:412,1
DA:413,1
DA:414,1
DA:415,1
DA:417,1
DA:419,1
DA:420,1
DA:423,1
DA:424,1
DA:425,1
DA:426,1
DA:427,1
DA:428,1
DA:429,1
DA:430,1
DA:431,1
DA:432,1
DA:433,1
DA:434,1
DA:435,1
DA:436,1
DA:438,1
DA:439,1
DA:440,1
DA:441,1
DA:442,1
DA:445,1
DA:446,1
DA:447,1
DA:448,1
DA:449,1
DA:450,1
DA:451,1
DA:452,1
DA:453,1
DA:454,1
DA:455,1
DA:456,1
DA:457,1
DA:458,1
DA:460,1
DA:461,1
DA:462,1
DA:463,1
DA:464,1
DA:465,1
DA:466,1
DA:467,1
DA:470,1
DA:471,1
DA:472,1
DA:473,1
DA:474,1
DA:475,1
DA:476,1
DA:477,1
DA:478,1
DA:479,1
DA:480,1
DA:481,1
DA:482,1
DA:483,1
DA:485,1
DA:486,1
DA:487,1
DA:488,1
DA:489,1
DA:492,1
DA:493,1
DA:494,1
DA:495,1
DA:496,1
DA:497,1
DA:498,1
DA:499,1
DA:500,1
DA:501,1
DA:502,1
DA:503,1
DA:504,1
DA:505,1
DA:507,1
DA:508,1
DA:509,1
DA:510,1
DA:511,1
DA:514,1
DA:515,1
DA:516,1
DA:517,1
DA:518,1
DA:519,1
DA:520,1
DA:521,1
DA:522,1
DA:523,1
DA:524,1
DA:525,1
DA:526,1
DA:527,1
DA:529,1
DA:530,1
DA:533,1
DA:534,1
DA:537,1
DA:538,1
DA:539,1
DA:542,1
DA:543,1
DA:544,1
DA:545,1
DA:546,1
DA:547,1
DA:548,1
DA:549,1
DA:550,1
DA:551,1
DA:552,1
DA:553,1
DA:554,1
DA:555,1
DA:557,1
DA:558,1
DA:559,1
DA:560,1
DA:561,1
DA:562,1
DA:563,1
DA:566,1
DA:567,1
DA:568,1
DA:569,1
DA:570,1
DA:571,1
DA:572,1
DA:573,1
DA:574,1
DA:575,1
DA:576,1
DA:577,1
DA:578,1
DA:579,1
DA:581,1
DA:582,1
DA:583,1
DA:584,1
DA:585,1
DA:588,1
DA:589,1
DA:590,1
DA:591,1
DA:592,1
DA:593,1
DA:594,1
DA:595,1
DA:596,1
DA:597,1
DA:598,1
DA:599,1
DA:600,1
DA:601,1
DA:603,1
DA:604,1
DA:605,1
BRF:0
BRH:0
LF:431
LH:399
end_of_record
SF:/workspaces/code-guardian/crates/core/src/detector_factory.rs
FN:158,_RNvMNtCslCYtQ1Dl4P0_18code_guardian_core16detector_factoryNtB2_15DetectorFactory15create_detector
FN:12,_RNvMNtCslCYtQ1Dl4P0_18code_guardian_core16detector_factoryNtB2_15DetectorFactory16create_detectors
FN:28,_RNvMNtCslCYtQ1Dl4P0_18code_guardian_core16detector_factoryNtB2_15DetectorFactory24create_default_detectors
FN:96,_RNvMNtCslCYtQ1Dl4P0_18code_guardian_core16detector_factoryNtB2_15DetectorFactory25create_security_detectors
FN:126,_RNvMNtCslCYtQ1Dl4P0_18code_guardian_core16detector_factoryNtB2_15DetectorFactory28create_llm_quality_detectors
FN:149,_RNvMNtCslCYtQ1Dl4P0_18code_guardian_core16detector_factoryNtB2_15DetectorFactory28create_performance_detectors
FN:106,_RNvMNtCslCYtQ1Dl4P0_18code_guardian_core16detector_factoryNtB2_15DetectorFactory29create_llm_security_detectors
FN:33,_RNvMNtCslCYtQ1Dl4P0_18code_guardian_core16detector_factoryNtB2_15DetectorFactory30create_comprehensive_detectors
FN:72,_RNvMNtCslCYtQ1Dl4P0_18code_guardian_core16detector_factoryNtB2_15DetectorFactory33create_production_ready_detectors
FN:121,_RNvMNtCslCYtQ1Dl4P0_18code_guardian_core16detector_factoryNtB2_15DetectorFactory34create_llm_comprehensive_detectors
FN:140,_RNvMNtCslCYtQ1Dl4P0_18code_guardian_core16detector_factoryNtB2_15DetectorFactory42create_production_ready_with_llm_detectors
FN:266,_RNvMs_NtCslCYtQ1Dl4P0_18code_guardian_core16detector_factoryNtB4_15DetectorProfile13get_detectors
FN:158,_RNvMNtCs6ew6Blb7sDz_18code_guardian_core16detector_factoryNtB2_15DetectorFactory15create_detector
FN:12,_RNvMNtCs6ew6Blb7sDz_18code_guardian_core16detector_factoryNtB2_15DetectorFactory16create_detectors
FN:28,_RNvMNtCs6ew6Blb7sDz_18code_guardian_core16detector_factoryNtB2_15DetectorFactory24create_default_detectors
FN:96,_RNvMNtCs6ew6Blb7sDz_18code_guardian_core16detector_factoryNtB2_15DetectorFactory25create_security_detectors
FN:126,_RNvMNtCs6ew6Blb7sDz_18code_guardian_core16detector_factoryNtB2_15DetectorFactory28create_llm_quality_detectors
FN:149,_RNvMNtCs6ew6Blb7sDz_18code_guardian_core16detector_factoryNtB2_15DetectorFactory28create_performance_detectors
FN:106,_RNvMNtCs6ew6Blb7sDz_18code_guardian_core16detector_factoryNtB2_15DetectorFactory29create_llm_security_detectors
FN:33,_RNvMNtCs6ew6Blb7sDz_18code_guardian_core16detector_factoryNtB2_15DetectorFactory30create_comprehensive_detectors
FN:72,_RNvMNtCs6ew6Blb7sDz_18code_guardian_core16detector_factoryNtB2_15DetectorFactory33create_production_ready_detectors
FN:121,_RNvMNtCs6ew6Blb7sDz_18code_guardian_core16detector_factoryNtB2_15DetectorFactory34create_llm_comprehensive_detectors
FN:140,_RNvMNtCs6ew6Blb7sDz_18code_guardian_core16detector_factoryNtB2_15DetectorFactory42create_production_ready_with_llm_detectors
FN:266,_RNvMs_NtCs6ew6Blb7sDz_18code_guardian_core16detector_factoryNtB4_15DetectorProfile13get_detectors
FN:303,_RNvNtNtCs6ew6Blb7sDz_18code_guardian_core16detector_factory5testss_22test_default_detectors
FN:321,_RNvNtNtCs6ew6Blb7sDz_18code_guardian_core16detector_factory5testss_22test_detector_profiles
FN:315,_RNvNtNtCs6ew6Blb7sDz_18code_guardian_core16detector_factory5testss_23test_security_detectors
FN:309,_RNvNtNtCs6ew6Blb7sDz_18code_guardian_core16detector_factory5testss_28test_comprehensive_detectors
FN:380,_RNvNtNtCs6ew6Blb7sDz_18code_guardian_core16detector_factory5testss_34test_custom_detector_invalid_regex
FN:329,_RNvNtNtCs6ew6Blb7sDz_18code_guardian_core16detector_factory5testss_34test_factory_with_custom_detectors
FN:345,_RNvNtNtCs6ew6Blb7sDz_18code_guardian_core16detector_factory5testss_37test_custom_detector_creation_success
FN:372,_RNvNtNtCs6ew6Blb7sDz_18code_guardian_core16detector_factory5testss_39test_custom_detector_creation_no_config
FN:360,_RNvNtNtCs6ew6Blb7sDz_18code_guardian_core16detector_factory5testss_45test_custom_detector_creation_missing_pattern
FNDA:0,_RNvMNtCslCYtQ1Dl4P0_18code_guardian_core16detector_factoryNtB2_15DetectorFactory15create_detector
FNDA:0,_RNvMNtCslCYtQ1Dl4P0_18code_guardian_core16detector_factoryNtB2_15DetectorFactory16create_detectors
FNDA:36,_RNvMNtCslCYtQ1Dl4P0_18code_guardian_core16detector_factoryNtB2_15DetectorFactory24create_default_detectors
FNDA:5,_RNvMNtCslCYtQ1Dl4P0_18code_guardian_core16detector_factoryNtB2_15DetectorFactory25create_security_detectors
FNDA:0,_RNvMNtCslCYtQ1Dl4P0_18code_guardian_core16detector_factoryNtB2_15DetectorFactory28create_llm_quality_detectors
FNDA:6,_RNvMNtCslCYtQ1Dl4P0_18code_guardian_core16detector_factoryNtB2_15DetectorFactory28create_performance_detectors
FNDA:0,_RNvMNtCslCYtQ1Dl4P0_18code_guardian_core16detector_factoryNtB2_15DetectorFactory29create_llm_security_detectors
FNDA:9,_RNvMNtCslCYtQ1Dl4P0_18code_guardian_core16detector_factoryNtB2_15DetectorFactory30create_comprehensive_detectors
FNDA:0,_RNvMNtCslCYtQ1Dl4P0_18code_guardian_core16detector_factoryNtB2_15DetectorFactory33create_production_ready_detectors
FNDA:0,_RNvMNtCslCYtQ1Dl4P0_18code_guardian_core16detector_factoryNtB2_15DetectorFactory34create_llm_comprehensive_detectors
FNDA:0,_RNvMNtCslCYtQ1Dl4P0_18code_guardian_core16detector_factoryNtB2_15DetectorFactory42create_production_ready_with_llm_detectors
FNDA:52,_RNvMs_NtCslCYtQ1Dl4P0_18code_guardian_core16detector_factoryNtB4_15DetectorProfile13get_detectors
FNDA:9,_RNvMNtCs6ew6Blb7sDz_18code_guardian_core16detector_factoryNtB2_15DetectorFactory15create_detector
FNDA:2,_RNvMNtCs6ew6Blb7sDz_18code_guardian_core16detector_factoryNtB2_15DetectorFactory16create_detectors
FNDA:2,_RNvMNtCs6ew6Blb7sDz_18code_guardian_core16detector_factoryNtB2_15DetectorFactory24create_default_detectors
FNDA:1,_RNvMNtCs6ew6Blb7sDz_18code_guardian_core16detector_factoryNtB2_15DetectorFactory25create_security_detectors
FNDA:0,_RNvMNtCs6ew6Blb7sDz_18code_guardian_core16detector_factoryNtB2_15DetectorFactory28create_llm_quality_detectors
FNDA:0,_RNvMNtCs6ew6Blb7sDz_18code_guardian_core16detector_factoryNtB2_15DetectorFactory28create_performance_detectors
FNDA:0,_RNvMNtCs6ew6Blb7sDz_18code_guardian_core16detector_factoryNtB2_15DetectorFactory29create_llm_security_detectors
FNDA:2,_RNvMNtCs6ew6Blb7sDz_18code_guardian_core16detector_factoryNtB2_15DetectorFactory30create_comprehensive_detectors
FNDA:1,_RNvMNtCs6ew6Blb7sDz_18code_guardian_core16detector_factoryNtB2_15DetectorFactory33create_production_ready_detectors
FNDA:0,_RNvMNtCs6ew6Blb7sDz_18code_guardian_core16detector_factoryNtB2_15DetectorFactory34create_llm_comprehensive_detectors
FNDA:0,_RNvMNtCs6ew6Blb7sDz_18code_guardian_core16detector_factoryNtB2_15DetectorFactory42create_production_ready_with_llm_detectors
FNDA:2,_RNvMs_NtCs6ew6Blb7sDz_18code_guardian_core16detector_factoryNtB4_15DetectorProfile13get_detectors
FNDA:1,_RNvNtNtCs6ew6Blb7sDz_18code_guardian_core16detector_factory5testss_22test_default_detectors
FNDA:1,_RNvNtNtCs6ew6Blb7sDz_18code_guardian_core16detector_factory5testss_22test_detector_profiles
FNDA:1,_RNvNtNtCs6ew6Blb7sDz_18code_guardian_core16detector_factory5testss_23test_security_detectors
FNDA:1,_RNvNtNtCs6ew6Blb7sDz_18code_guardian_core16detector_factory5testss_28test_comprehensive_detectors
FNDA:1,_RNvNtNtCs6ew6Blb7sDz_18code_guardian_core16detector_factory5testss_34test_custom_detector_invalid_regex
FNDA:1,_RNvNtNtCs6ew6Blb7sDz_18code_guardian_core16detector_factory5testss_34test_factory_with_custom_detectors
FNDA:1,_RNvNtNtCs6ew6Blb7sDz_18code_guardian_core16detector_factory5testss_37test_custom_detector_creation_success
FNDA:1,_RNvNtNtCs6ew6Blb7sDz_18code_guardian_core16detector_factory5testss_39test_custom_detector_creation_no_config
FNDA:1,_RNvNtNtCs6ew6Blb7sDz_18code_guardian_core16detector_factory5testss_45test_custom_detector_creation_missing_pattern
FNF:21
FNH:17
DA:12,2
DA:13,2
DA:14,8
DA:15,6
DA:16,5
DA:17,0
DA:18,1
DA:19,1
DA:24,2
DA:25,2
DA:28,38
DA:29,38
DA:30,38
DA:33,11
DA:34,11
DA:36,11
DA:37,11
DA:38,11
DA:39,11
DA:40,11
DA:41,11
DA:42,11
DA:44,11
DA:45,11
DA:46,11
DA:47,11
DA:48,11
DA:50,11
DA:51,11
DA:53,11
DA:55,11
DA:56,11
DA:57,11
DA:58,11
DA:59,11
DA:61,11
DA:62,11
DA:63,11
DA:64,11
DA:65,11
DA:66,11
DA:67,11
DA:69,11
DA:72,1
DA:73,1
DA:75,1
DA:76,1
DA:77,1
DA:78,1
DA:79,1
DA:81,1
DA:82,1
DA:83,1
DA:84,1
DA:85,1
DA:86,1
DA:87,1
DA:89,1
DA:90,1
DA:91,1
DA:93,1
DA:96,6
DA:97,6
DA:98,6
DA:99,6
DA:100,6
DA:101,6
DA:103,6
DA:106,0
DA:107,0
DA:108,0
DA:109,0
DA:110,0
DA:111,0
DA:112,0
DA:113,0
DA:114,0
DA:115,0
DA:116,0
DA:118,0
DA:121,0
DA:122,0
DA:123,0
DA:126,0
DA:127,0
DA:128,0
DA:129,0
DA:130,0
DA:131,0
DA:132,0
DA:133,0
DA:134,0
DA:135,0
DA:137,0
DA:140,0
DA:141,0
DA:142,0
DA:143,0
DA:144,0
DA:145,0
DA:146,0
DA:149,6
DA:150,6
DA:151,6
DA:152,6
DA:153,6
DA:155,6
DA:158,9
DA:159,9
DA:160,9
DA:161,9
DA:162,9
DA:163,2
DA:164,2
DA:165,0
DA:166,0
DA:167,0
DA:168,0
DA:169,0
DA:170,0
DA:171,0
DA:172,0
DA:173,0
DA:174,0
DA:175,0
DA:176,0
DA:177,0
DA:180,0
DA:181,0
DA:182,0
DA:183,0
DA:184,0
DA:187,0
DA:188,0
DA:189,0
DA:190,0
DA:191,0
DA:192,0
DA:193,0
DA:196,0
DA:197,0
DA:198,0
DA:200,0
DA:202,0
DA:203,0
DA:204,0
DA:205,0
DA:206,0
DA:209,0
DA:210,0
DA:211,0
DA:212,0
DA:213,0
DA:214,0
DA:215,0
DA:216,0
DA:217,0
DA:220,0
DA:222,5
DA:223,5
DA:224,4
DA:225,3
DA:226,2
DA:228,1
DA:231,1
DA:235,9
DA:266,54
DA:267,54
DA:268,29
DA:269,10
DA:270,5
DA:271,6
DA:273,0
DA:275,0
DA:276,0
DA:278,0
DA:281,0
DA:283,4
DA:284,4
DA:285,4
DA:286,4
DA:287,4
DA:288,4
DA:289,4
DA:290,4
DA:291,4
DA:293,0
DA:295,54
DA:303,1
DA:304,1
DA:305,1
DA:306,1
DA:309,1
DA:310,1
DA:311,1
DA:312,1
DA:315,1
DA:316,1
DA:317,1
DA:318,1
DA:321,1
DA:322,1
DA:323,1
DA:325,1
DA:326,1
DA:329,1
DA:330,1
DA:331,1
DA:332,1
DA:333,1
DA:334,1
DA:335,1
DA:336,1
DA:338,1
DA:339,1
DA:341,1
DA:342,1
DA:345,1
DA:346,1
DA:347,1
DA:348,1
DA:349,1
DA:351,1
DA:352,1
DA:353,1
DA:355,1
DA:356,1
DA:357,1
DA:360,1
DA:361,1
DA:363,1
DA:364,1
DA:365,1
DA:367,1
DA:368,1
DA:369,1
DA:372,1
DA:373,1
DA:374,1
DA:375,1
DA:376,1
DA:377,1
DA:380,1
DA:381,1
DA:382,1
DA:383,1
DA:384,1
DA:385,1
DA:386,1
DA:387,1
DA:389,1
DA:391,1
DA:392,1
BRF:0
BRH:0
LF:253
LH:169
end_of_record
SF:/workspaces/code-guardian/crates/core/src/detectors.rs
FN:415,_RNvMsp_NtCslCYtQ1Dl4P0_18code_guardian_core9detectorsNtB5_21CustomPatternDetector3new
FN:44,_RNvNtCslCYtQ1Dl4P0_18code_guardian_core9detectors27detect_pattern_with_context
FN:74,_RNvXNtCslCYtQ1Dl4P0_18code_guardian_core9detectorsNtB2_12TodoDetectorNtB4_15PatternDetector6detect
FN:92,_RNvXs0_NtCslCYtQ1Dl4P0_18code_guardian_core9detectorsNtB5_12HackDetectorNtB7_15PatternDetector6detect
FN:101,_RNvXs1_NtCslCYtQ1Dl4P0_18code_guardian_core9detectorsNtB5_11BugDetectorNtB7_15PatternDetector6detect
FN:110,_RNvXs2_NtCslCYtQ1Dl4P0_18code_guardian_core9detectorsNtB5_11XxxDetectorNtB7_15PatternDetector6detect
FN:119,_RNvXs3_NtCslCYtQ1Dl4P0_18code_guardian_core9detectorsNtB5_12NoteDetectorNtB7_15PatternDetector6detect
FN:128,_RNvXs4_NtCslCYtQ1Dl4P0_18code_guardian_core9detectorsNtB5_15WarningDetectorNtB7_15PatternDetector6detect
FN:137,_RNvXs5_NtCslCYtQ1Dl4P0_18code_guardian_core9detectorsNtB5_13PanicDetectorNtB7_15PatternDetector6detect
FN:152,_RNvXs6_NtCslCYtQ1Dl4P0_18code_guardian_core9detectorsNtB5_14UnwrapDetectorNtB7_15PatternDetector6detect
FN:167,_RNvXs7_NtCslCYtQ1Dl4P0_18code_guardian_core9detectorsNtB5_14ExpectDetectorNtB7_15PatternDetector6detect
FN:182,_RNvXs8_NtCslCYtQ1Dl4P0_18code_guardian_core9detectorsNtB5_21UnimplementedDetectorNtB7_15PatternDetector6detect
FN:202,_RNvXs9_NtCslCYtQ1Dl4P0_18code_guardian_core9detectorsNtB5_19UnreachableDetectorNtB7_15PatternDetector6detect
FN:83,_RNvXs_NtCslCYtQ1Dl4P0_18code_guardian_core9detectorsNtB4_13FixmeDetectorNtB6_15PatternDetector6detect
FN:222,_RNvXsa_NtCslCYtQ1Dl4P0_18code_guardian_core9detectorsNtB5_13CloneDetectorNtB7_15PatternDetector6detect
FN:237,_RNvXsb_NtCslCYtQ1Dl4P0_18code_guardian_core9detectorsNtB5_16ToStringDetectorNtB7_15PatternDetector6detect
FN:257,_RNvXsc_NtCslCYtQ1Dl4P0_18code_guardian_core9detectorsNtB5_14UnsafeDetectorNtB7_15PatternDetector6detect
FN:272,_RNvXsd_NtCslCYtQ1Dl4P0_18code_guardian_core9detectorsNtB5_11DevDetectorNtB7_15PatternDetector6detect
FN:281,_RNvXse_NtCslCYtQ1Dl4P0_18code_guardian_core9detectorsNtB5_13DebugDetectorNtB7_15PatternDetector6detect
FN:290,_RNvXsf_NtCslCYtQ1Dl4P0_18code_guardian_core9detectorsNtB5_12TestDetectorNtB7_15PatternDetector6detect
FN:305,_RNvXsg_NtCslCYtQ1Dl4P0_18code_guardian_core9detectorsNtB5_13PhaseDetectorNtB7_15PatternDetector6detect
FN:314,_RNvXsh_NtCslCYtQ1Dl4P0_18code_guardian_core9detectorsNtB5_15StagingDetectorNtB7_15PatternDetector6detect
FN:323,_RNvXsi_NtCslCYtQ1Dl4P0_18code_guardian_core9detectorsNtB5_18ConsoleLogDetectorNtB7_15PatternDetector6detect
FN:347,_RNvXsj_NtCslCYtQ1Dl4P0_18code_guardian_core9detectorsNtB5_13PrintDetectorNtB7_15PatternDetector6detect
FN:356,_RNvXsk_NtCslCYtQ1Dl4P0_18code_guardian_core9detectorsNtB5_13AlertDetectorNtB7_15PatternDetector6detect
FN:375,_RNvXsl_NtCslCYtQ1Dl4P0_18code_guardian_core9detectorsNtB5_16DebuggerDetectorNtB7_15PatternDetector6detect
FN:384,_RNvXsm_NtCslCYtQ1Dl4P0_18code_guardian_core9detectorsNtB5_17UnusedVarDetectorNtB7_15PatternDetector6detect
FN:393,_RNvXsn_NtCslCYtQ1Dl4P0_18code_guardian_core9detectorsNtB5_16DeadCodeDetectorNtB7_15PatternDetector6detect
FN:402,_RNvXso_NtCslCYtQ1Dl4P0_18code_guardian_core9detectorsNtB5_20ExperimentalDetectorNtB7_15PatternDetector6detect
FN:425,_RNvXsq_NtCslCYtQ1Dl4P0_18code_guardian_core9detectorsNtB5_21CustomPatternDetectorNtB7_15PatternDetector6detect
FN:522,_RNCNvNtNtCs6ew6Blb7sDz_18code_guardian_core9detectors5testss_22test_debugger_detector0B7_
FN:562,_RNCNvNtNtCs6ew6Blb7sDz_18code_guardian_core9detectors5testss_24test_unused_var_detector0B7_
FN:572,_RNCNvNtNtCs6ew6Blb7sDz_18code_guardian_core9detectors5testss_26test_experimental_detector0B7_
FN:548,_RNCNvNtNtCs6ew6Blb7sDz_18code_guardian_core9detectors5testss_34test_print_detector_multi_language0B7_
FN:549,_RNCNvNtNtCs6ew6Blb7sDz_18code_guardian_core9detectors5testss_34test_print_detector_multi_languages0_0B7_
FN:550,_RNCNvNtNtCs6ew6Blb7sDz_18code_guardian_core9detectors5testss_34test_print_detector_multi_languages1_0B7_
FN:551,_RNCNvNtNtCs6ew6Blb7sDz_18code_guardian_core9detectors5testss_34test_print_detector_multi_languages2_0B7_
FN:545,_RNCNvNtNtCs6ew6Blb7sDz_18code_guardian_core9detectors5testss_34test_print_detector_multi_languages_0B7_
FN:436,_RNvNtNtCs6ew6Blb7sDz_18code_guardian_core9detectors5testss_18test_hack_detector
FN:526,_RNvNtNtCs6ew6Blb7sDz_18code_guardian_core9detectors5testss_19test_phase_detector
FN:462,_RNvNtNtCs6ew6Blb7sDz_18code_guardian_core9detectors5testss_20test_unwrap_detector
FN:516,_RNvNtNtCs6ew6Blb7sDz_18code_guardian_core9detectors5testss_22test_debugger_detector
FN:555,_RNvNtNtCs6ew6Blb7sDz_18code_guardian_core9detectors5testss_24test_unused_var_detector
FN:499,_RNvNtNtCs6ew6Blb7sDz_18code_guardian_core9detectors5testss_25test_console_log_detector
FN:472,_RNvNtNtCs6ew6Blb7sDz_18code_guardian_core9detectors5testss_26test_case_insensitive_todo
FN:566,_RNvNtNtCs6ew6Blb7sDz_18code_guardian_core9detectors5testss_26test_experimental_detector
FN:481,_RNvNtNtCs6ew6Blb7sDz_18code_guardian_core9detectors5testss_28test_custom_pattern_detector
FN:446,_RNvNtNtCs6ew6Blb7sDz_18code_guardian_core9detectors5testss_29test_panic_detector_rust_only
FN:537,_RNvNtNtCs6ew6Blb7sDz_18code_guardian_core9detectors5testss_34test_print_detector_multi_language
FN:576,_RNvNtNtCs6ew6Blb7sDz_18code_guardian_core9detectors5testss_35test_test_detector_skips_test_files
FN:493,_RNvNtNtCs6ew6Blb7sDz_18code_guardian_core9detectors5testss_42test_custom_pattern_detector_invalid_regex
FN:415,_RNvMsp_NtCs6ew6Blb7sDz_18code_guardian_core9detectorsNtB5_21CustomPatternDetector3new
FN:44,_RNvNtCs6ew6Blb7sDz_18code_guardian_core9detectors27detect_pattern_with_context
FN:74,_RNvXNtCs6ew6Blb7sDz_18code_guardian_core9detectorsNtB2_12TodoDetectorNtB4_15PatternDetector6detect
FN:92,_RNvXs0_NtCs6ew6Blb7sDz_18code_guardian_core9detectorsNtB5_12HackDetectorNtB7_15PatternDetector6detect
FN:101,_RNvXs1_NtCs6ew6Blb7sDz_18code_guardian_core9detectorsNtB5_11BugDetectorNtB7_15PatternDetector6detect
FN:110,_RNvXs2_NtCs6ew6Blb7sDz_18code_guardian_core9detectorsNtB5_11XxxDetectorNtB7_15PatternDetector6detect
FN:119,_RNvXs3_NtCs6ew6Blb7sDz_18code_guardian_core9detectorsNtB5_12NoteDetectorNtB7_15PatternDetector6detect
FN:128,_RNvXs4_NtCs6ew6Blb7sDz_18code_guardian_core9detectorsNtB5_15WarningDetectorNtB7_15PatternDetector6detect
FN:137,_RNvXs5_NtCs6ew6Blb7sDz_18code_guardian_core9detectorsNtB5_13PanicDetectorNtB7_15PatternDetector6detect
FN:152,_RNvXs6_NtCs6ew6Blb7sDz_18code_guardian_core9detectorsNtB5_14UnwrapDetectorNtB7_15PatternDetector6detect
FN:167,_RNvXs7_NtCs6ew6Blb7sDz_18code_guardian_core9detectorsNtB5_14ExpectDetectorNtB7_15PatternDetector6detect
FN:182,_RNvXs8_NtCs6ew6Blb7sDz_18code_guardian_core9detectorsNtB5_21UnimplementedDetectorNtB7_15PatternDetector6detect
FN:202,_RNvXs9_NtCs6ew6Blb7sDz_18code_guardian_core9detectorsNtB5_19UnreachableDetectorNtB7_15PatternDetector6detect
FN:83,_RNvXs_NtCs6ew6Blb7sDz_18code_guardian_core9detectorsNtB4_13FixmeDetectorNtB6_15PatternDetector6detect
FN:222,_RNvXsa_NtCs6ew6Blb7sDz_18code_guardian_core9detectorsNtB5_13CloneDetectorNtB7_15PatternDetector6detect
FN:237,_RNvXsb_NtCs6ew6Blb7sDz_18code_guardian_core9detectorsNtB5_16ToStringDetectorNtB7_15PatternDetector6detect
FN:257,_RNvXsc_NtCs6ew6Blb7sDz_18code_guardian_core9detectorsNtB5_14UnsafeDetectorNtB7_15PatternDetector6detect
FN:272,_RNvXsd_NtCs6ew6Blb7sDz_18code_guardian_core9detectorsNtB5_11DevDetectorNtB7_15PatternDetector6detect
FN:281,_RNvXse_NtCs6ew6Blb7sDz_18code_guardian_core9detectorsNtB5_13DebugDetectorNtB7_15PatternDetector6detect
FN:290,_RNvXsf_NtCs6ew6Blb7sDz_18code_guardian_core9detectorsNtB5_12TestDetectorNtB7_15PatternDetector6detect
FN:305,_RNvXsg_NtCs6ew6Blb7sDz_18code_guardian_core9detectorsNtB5_13PhaseDetectorNtB7_15PatternDetector6detect
FN:314,_RNvXsh_NtCs6ew6Blb7sDz_18code_guardian_core9detectorsNtB5_15StagingDetectorNtB7_15PatternDetector6detect
FN:323,_RNvXsi_NtCs6ew6Blb7sDz_18code_guardian_core9detectorsNtB5_18ConsoleLogDetectorNtB7_15PatternDetector6detect
FN:347,_RNvXsj_NtCs6ew6Blb7sDz_18code_guardian_core9detectorsNtB5_13PrintDetectorNtB7_15PatternDetector6detect
FN:356,_RNvXsk_NtCs6ew6Blb7sDz_18code_guardian_core9detectorsNtB5_13AlertDetectorNtB7_15PatternDetector6detect
FN:375,_RNvXsl_NtCs6ew6Blb7sDz_18code_guardian_core9detectorsNtB5_16DebuggerDetectorNtB7_15PatternDetector6detect
FN:384,_RNvXsm_NtCs6ew6Blb7sDz_18code_guardian_core9detectorsNtB5_17UnusedVarDetectorNtB7_15PatternDetector6detect
FN:393,_RNvXsn_NtCs6ew6Blb7sDz_18code_guardian_core9detectorsNtB5_16DeadCodeDetectorNtB7_15PatternDetector6detect
FN:402,_RNvXso_NtCs6ew6Blb7sDz_18code_guardian_core9detectorsNtB5_20ExperimentalDetectorNtB7_15PatternDetector6detect
FN:425,_RNvXsq_NtCs6ew6Blb7sDz_18code_guardian_core9detectorsNtB5_21CustomPatternDetectorNtB7_15PatternDetector6detect
FNDA:0,_RNvMsp_NtCslCYtQ1Dl4P0_18code_guardian_core9detectorsNtB5_21CustomPatternDetector3new
FNDA:1341,_RNvNtCslCYtQ1Dl4P0_18code_guardian_core9detectors27detect_pattern_with_context
FNDA:866,_RNvXNtCslCYtQ1Dl4P0_18code_guardian_core9detectorsNtB2_12TodoDetectorNtB4_15PatternDetector6detect
FNDA:16,_RNvXs0_NtCslCYtQ1Dl4P0_18code_guardian_core9detectorsNtB5_12HackDetectorNtB7_15PatternDetector6detect
FNDA:16,_RNvXs1_NtCslCYtQ1Dl4P0_18code_guardian_core9detectorsNtB5_11BugDetectorNtB7_15PatternDetector6detect
FNDA:16,_RNvXs2_NtCslCYtQ1Dl4P0_18code_guardian_core9detectorsNtB5_11XxxDetectorNtB7_15PatternDetector6detect
FNDA:16,_RNvXs3_NtCslCYtQ1Dl4P0_18code_guardian_core9detectorsNtB5_12NoteDetectorNtB7_15PatternDetector6detect
FNDA:16,_RNvXs4_NtCslCYtQ1Dl4P0_18code_guardian_core9detectorsNtB5_15WarningDetectorNtB7_15PatternDetector6detect
FNDA:17,_RNvXs5_NtCslCYtQ1Dl4P0_18code_guardian_core9detectorsNtB5_13PanicDetectorNtB7_15PatternDetector6detect
FNDA:19,_RNvXs6_NtCslCYtQ1Dl4P0_18code_guardian_core9detectorsNtB5_14UnwrapDetectorNtB7_15PatternDetector6detect
FNDA:17,_RNvXs7_NtCslCYtQ1Dl4P0_18code_guardian_core9detectorsNtB5_14ExpectDetectorNtB7_15PatternDetector6detect
FNDA:16,_RNvXs8_NtCslCYtQ1Dl4P0_18code_guardian_core9detectorsNtB5_21UnimplementedDetectorNtB7_15PatternDetector6detect
FNDA:16,_RNvXs9_NtCslCYtQ1Dl4P0_18code_guardian_core9detectorsNtB5_19UnreachableDetectorNtB7_15PatternDetector6detect
FNDA:98,_RNvXs_NtCslCYtQ1Dl4P0_18code_guardian_core9detectorsNtB4_13FixmeDetectorNtB6_15PatternDetector6detect
FNDA:18,_RNvXsa_NtCslCYtQ1Dl4P0_18code_guardian_core9detectorsNtB5_13CloneDetectorNtB7_15PatternDetector6detect
FNDA:18,_RNvXsb_NtCslCYtQ1Dl4P0_18code_guardian_core9detectorsNtB5_16ToStringDetectorNtB7_15PatternDetector6detect
FNDA:17,_RNvXsc_NtCslCYtQ1Dl4P0_18code_guardian_core9detectorsNtB5_14UnsafeDetectorNtB7_15PatternDetector6detect
FNDA:16,_RNvXsd_NtCslCYtQ1Dl4P0_18code_guardian_core9detectorsNtB5_11DevDetectorNtB7_15PatternDetector6detect
FNDA:16,_RNvXse_NtCslCYtQ1Dl4P0_18code_guardian_core9detectorsNtB5_13DebugDetectorNtB7_15PatternDetector6detect
FNDA:16,_RNvXsf_NtCslCYtQ1Dl4P0_18code_guardian_core9detectorsNtB5_12TestDetectorNtB7_15PatternDetector6detect
FNDA:16,_RNvXsg_NtCslCYtQ1Dl4P0_18code_guardian_core9detectorsNtB5_13PhaseDetectorNtB7_15PatternDetector6detect
FNDA:16,_RNvXsh_NtCslCYtQ1Dl4P0_18code_guardian_core9detectorsNtB5_15StagingDetectorNtB7_15PatternDetector6detect
FNDA:16,_RNvXsi_NtCslCYtQ1Dl4P0_18code_guardian_core9detectorsNtB5_18ConsoleLogDetectorNtB7_15PatternDetector6detect
FNDA:16,_RNvXsj_NtCslCYtQ1Dl4P0_18code_guardian_core9detectorsNtB5_13PrintDetectorNtB7_15PatternDetector6detect
FNDA:16,_RNvXsk_NtCslCYtQ1Dl4P0_18code_guardian_core9detectorsNtB5_13AlertDetectorNtB7_15PatternDetector6detect
FNDA:16,_RNvXsl_NtCslCYtQ1Dl4P0_18code_guardian_core9detectorsNtB5_16DebuggerDetectorNtB7_15PatternDetector6detect
FNDA:16,_RNvXsm_NtCslCYtQ1Dl4P0_18code_guardian_core9detectorsNtB5_17UnusedVarDetectorNtB7_15PatternDetector6detect
FNDA:16,_RNvXsn_NtCslCYtQ1Dl4P0_18code_guardian_core9detectorsNtB5_16DeadCodeDetectorNtB7_15PatternDetector6detect
FNDA:16,_RNvXso_NtCslCYtQ1Dl4P0_18code_guardian_core9detectorsNtB5_20ExperimentalDetectorNtB7_15PatternDetector6detect
FNDA:0,_RNvXsq_NtCslCYtQ1Dl4P0_18code_guardian_core9detectorsNtB5_21CustomPatternDetectorNtB7_15PatternDetector6detect
FNDA:2,_RNCNvNtNtCs6ew6Blb7sDz_18code_guardian_core9detectors5testss_22test_debugger_detector0B7_
FNDA:2,_RNCNvNtNtCs6ew6Blb7sDz_18code_guardian_core9detectors5testss_24test_unused_var_detector0B7_
FNDA:3,_RNCNvNtNtCs6ew6Blb7sDz_18code_guardian_core9detectors5testss_26test_experimental_detector0B7_
FNDA:4,_RNCNvNtNtCs6ew6Blb7sDz_18code_guardian_core9detectors5testss_34test_print_detector_multi_language0B7_
FNDA:1,_RNCNvNtNtCs6ew6Blb7sDz_18code_guardian_core9detectors5testss_34test_print_detector_multi_languages0_0B7_
FNDA:2,_RNCNvNtNtCs6ew6Blb7sDz_18code_guardian_core9detectors5testss_34test_print_detector_multi_languages1_0B7_
FNDA:4,_RNCNvNtNtCs6ew6Blb7sDz_18code_guardian_core9detectors5testss_34test_print_detector_multi_languages2_0B7_
FNDA:4,_RNCNvNtNtCs6ew6Blb7sDz_18code_guardian_core9detectors5testss_34test_print_detector_multi_languages_0B7_
FNDA:1,_RNvNtNtCs6ew6Blb7sDz_18code_guardian_core9detectors5testss_18test_hack_detector
FNDA:1,_RNvNtNtCs6ew6Blb7sDz_18code_guardian_core9detectors5testss_19test_phase_detector
FNDA:1,_RNvNtNtCs6ew6Blb7sDz_18code_guardian_core9detectors5testss_20test_unwrap_detector
FNDA:1,_RNvNtNtCs6ew6Blb7sDz_18code_guardian_core9detectors5testss_22test_debugger_detector
FNDA:1,_RNvNtNtCs6ew6Blb7sDz_18code_guardian_core9detectors5testss_24test_unused_var_detector
FNDA:1,_RNvNtNtCs6ew6Blb7sDz_18code_guardian_core9detectors5testss_25test_console_log_detector
FNDA:1,_RNvNtNtCs6ew6Blb7sDz_18code_guardian_core9detectors5testss_26test_case_insensitive_todo
FNDA:1,_RNvNtNtCs6ew6Blb7sDz_18code_guardian_core9detectors5testss_26test_experimental_detector
FNDA:1,_RNvNtNtCs6ew6Blb7sDz_18code_guardian_core9detectors5testss_28test_custom_pattern_detector
FNDA:1,_RNvNtNtCs6ew6Blb7sDz_18code_guardian_core9detectors5testss_29test_panic_detector_rust_only
FNDA:1,_RNvNtNtCs6ew6Blb7sDz_18code_guardian_core9detectors5testss_34test_print_detector_multi_language
FNDA:1,_RNvNtNtCs6ew6Blb7sDz_18code_guardian_core9detectors5testss_35test_test_detector_skips_test_files
FNDA:1,_RNvNtNtCs6ew6Blb7sDz_18code_guardian_core9detectors5testss_42test_custom_pattern_detector_invalid_regex
FNDA:5,_RNvMsp_NtCs6ew6Blb7sDz_18code_guardian_core9detectorsNtB5_21CustomPatternDetector3new
FNDA:69,_RNvNtCs6ew6Blb7sDz_18code_guardian_core9detectors27detect_pattern_with_context
FNDA:8,_RNvXNtCs6ew6Blb7sDz_18code_guardian_core9detectorsNtB2_12TodoDetectorNtB4_15PatternDetector6detect
FNDA:1,_RNvXs0_NtCs6ew6Blb7sDz_18code_guardian_core9detectorsNtB5_12HackDetectorNtB7_15PatternDetector6detect
FNDA:0,_RNvXs1_NtCs6ew6Blb7sDz_18code_guardian_core9detectorsNtB5_11BugDetectorNtB7_15PatternDetector6detect
FNDA:0,_RNvXs2_NtCs6ew6Blb7sDz_18code_guardian_core9detectorsNtB5_11XxxDetectorNtB7_15PatternDetector6detect
FNDA:0,_RNvXs3_NtCs6ew6Blb7sDz_18code_guardian_core9detectorsNtB5_12NoteDetectorNtB7_15PatternDetector6detect
FNDA:0,_RNvXs4_NtCs6ew6Blb7sDz_18code_guardian_core9detectorsNtB5_15WarningDetectorNtB7_15PatternDetector6detect
FNDA:6,_RNvXs5_NtCs6ew6Blb7sDz_18code_guardian_core9detectorsNtB5_13PanicDetectorNtB7_15PatternDetector6detect
FNDA:5,_RNvXs6_NtCs6ew6Blb7sDz_18code_guardian_core9detectorsNtB5_14UnwrapDetectorNtB7_15PatternDetector6detect
FNDA:0,_RNvXs7_NtCs6ew6Blb7sDz_18code_guardian_core9detectorsNtB5_14ExpectDetectorNtB7_15PatternDetector6detect
FNDA:0,_RNvXs8_NtCs6ew6Blb7sDz_18code_guardian_core9detectorsNtB5_21UnimplementedDetectorNtB7_15PatternDetector6detect
FNDA:0,_RNvXs9_NtCs6ew6Blb7sDz_18code_guardian_core9detectorsNtB5_19UnreachableDetectorNtB7_15PatternDetector6detect
FNDA:3,_RNvXs_NtCs6ew6Blb7sDz_18code_guardian_core9detectorsNtB4_13FixmeDetectorNtB6_15PatternDetector6detect
FNDA:0,_RNvXsa_NtCs6ew6Blb7sDz_18code_guardian_core9detectorsNtB5_13CloneDetectorNtB7_15PatternDetector6detect
FNDA:0,_RNvXsb_NtCs6ew6Blb7sDz_18code_guardian_core9detectorsNtB5_16ToStringDetectorNtB7_15PatternDetector6detect
FNDA:4,_RNvXsc_NtCs6ew6Blb7sDz_18code_guardian_core9detectorsNtB5_14UnsafeDetectorNtB7_15PatternDetector6detect
FNDA:4,_RNvXsd_NtCs6ew6Blb7sDz_18code_guardian_core9detectorsNtB5_11DevDetectorNtB7_15PatternDetector6detect
FNDA:4,_RNvXse_NtCs6ew6Blb7sDz_18code_guardian_core9detectorsNtB5_13DebugDetectorNtB7_15PatternDetector6detect
FNDA:6,_RNvXsf_NtCs6ew6Blb7sDz_18code_guardian_core9detectorsNtB5_12TestDetectorNtB7_15PatternDetector6detect
FNDA:5,_RNvXsg_NtCs6ew6Blb7sDz_18code_guardian_core9detectorsNtB5_13PhaseDetectorNtB7_15PatternDetector6detect
FNDA:4,_RNvXsh_NtCs6ew6Blb7sDz_18code_guardian_core9detectorsNtB5_15StagingDetectorNtB7_15PatternDetector6detect
FNDA:6,_RNvXsi_NtCs6ew6Blb7sDz_18code_guardian_core9detectorsNtB5_18ConsoleLogDetectorNtB7_15PatternDetector6detect
FNDA:5,_RNvXsj_NtCs6ew6Blb7sDz_18code_guardian_core9detectorsNtB5_13PrintDetectorNtB7_15PatternDetector6detect
FNDA:4,_RNvXsk_NtCs6ew6Blb7sDz_18code_guardian_core9detectorsNtB5_13AlertDetectorNtB7_15PatternDetector6detect
FNDA:5,_RNvXsl_NtCs6ew6Blb7sDz_18code_guardian_core9detectorsNtB5_16DebuggerDetectorNtB7_15PatternDetector6detect
FNDA:5,_RNvXsm_NtCs6ew6Blb7sDz_18code_guardian_core9detectorsNtB5_17UnusedVarDetectorNtB7_15PatternDetector6detect
FNDA:4,_RNvXsn_NtCs6ew6Blb7sDz_18code_guardian_core9detectorsNtB5_16DeadCodeDetectorNtB7_15PatternDetector6detect
FNDA:5,_RNvXso_NtCs6ew6Blb7sDz_18code_guardian_core9detectorsNtB5_20ExperimentalDetectorNtB7_15PatternDetector6detect
FNDA:1,_RNvXsq_NtCs6ew6Blb7sDz_18code_guardian_core9detectorsNtB5_21CustomPatternDetectorNtB7_15PatternDetector6detect
FNF:51
FNH:51
DA:44,1410
DA:45,1410
DA:46,1410
DA:47,1410
DA:48,1410
DA:49,1410
DA:50,1410
DA:51,101192
DA:52,101192
DA:53,584
DA:54,584
DA:55,584
DA:56,584
DA:57,584
DA:58,584
DA:59,584
DA:60,584
DA:61,584
DA:62,584
DA:63,584
DA:64,584
DA:65,584
DA:67,1410
DA:68,1410
DA:74,874
DA:75,874
DA:76,874
DA:83,101
DA:84,101
DA:85,101
DA:92,17
DA:93,17
DA:94,17
DA:101,16
DA:102,16
DA:103,16
DA:110,16
DA:111,16
DA:112,16
DA:119,16
DA:120,16
DA:121,16
DA:128,16
DA:129,16
DA:130,16
DA:137,23
DA:139,23
DA:140,23
DA:141,19
DA:142,4
DA:143,0
DA:144,4
DA:145,23
DA:152,24
DA:154,24
DA:155,24
DA:156,21
DA:157,3
DA:158,0
DA:159,3
DA:160,24
DA:167,17
DA:169,17
DA:170,17
DA:171,17
DA:172,0
DA:173,0
DA:174,0
DA:175,17
DA:182,16
DA:184,16
DA:185,16
DA:186,16
DA:187,16
DA:188,16
DA:189,16
DA:190,16
DA:192,0
DA:193,0
DA:194,0
DA:195,16
DA:202,16
DA:204,16
DA:205,16
DA:206,16
DA:207,16
DA:208,16
DA:209,16
DA:210,16
DA:212,0
DA:213,0
DA:214,0
DA:215,16
DA:222,18
DA:224,18
DA:225,18
DA:226,18
DA:227,0
DA:228,0
DA:229,0
DA:230,18
DA:237,18
DA:239,18
DA:240,18
DA:241,18
DA:242,18
DA:243,18
DA:244,18
DA:245,18
DA:247,0
DA:248,0
DA:249,0
DA:250,18
DA:257,21
DA:259,21
DA:260,21
DA:261,18
DA:262,3
DA:263,0
DA:264,3
DA:265,21
DA:272,20
DA:273,20
DA:274,20
DA:281,20
DA:282,20
DA:283,20
DA:290,22
DA:292,22
DA:293,22
DA:294,2
DA:295,20
DA:296,0
DA:297,20
DA:298,22
DA:305,21
DA:306,21
DA:307,21
DA:314,20
DA:315,20
DA:316,20
DA:323,22
DA:325,22
DA:326,22
DA:327,3
DA:328,22
DA:329,22
DA:331,3
DA:332,3
DA:333,3
DA:334,3
DA:335,3
DA:337,19
DA:338,0
DA:339,19
DA:340,22
DA:347,21
DA:348,21
DA:349,21
DA:356,20
DA:358,20
DA:359,20
DA:360,2
DA:361,20
DA:362,20
DA:364,2
DA:365,18
DA:366,0
DA:367,18
DA:368,20
DA:375,21
DA:376,21
DA:377,21
DA:384,21
DA:385,21
DA:386,21
DA:393,20
DA:394,20
DA:395,20
DA:402,21
DA:403,21
DA:404,21
DA:415,5
DA:416,5
DA:417,3
DA:418,3
DA:419,3
DA:420,3
DA:421,5
DA:425,1
DA:426,1
DA:427,1
DA:436,1
DA:437,1
DA:438,1
DA:439,1
DA:440,1
DA:441,1
DA:442,1
DA:443,1
DA:446,1
DA:447,1
DA:448,1
DA:449,1
DA:451,1
DA:452,1
DA:454,1
DA:455,1
DA:457,1
DA:458,1
DA:459,1
DA:462,1
DA:463,1
DA:464,1
DA:465,1
DA:466,1
DA:467,1
DA:468,1
DA:469,1
DA:472,1
DA:473,1
DA:474,1
DA:475,1
DA:476,1
DA:477,1
DA:478,1
DA:481,1
DA:482,1
DA:483,1
DA:484,1
DA:485,1
DA:486,1
DA:487,1
DA:488,1
DA:489,1
DA:490,1
DA:493,1
DA:494,1
DA:495,1
DA:496,1
DA:499,1
DA:500,1
DA:501,1
DA:502,1
DA:504,1
DA:505,1
DA:507,1
DA:508,1
DA:510,1
DA:511,1
DA:512,1
DA:513,1
DA:516,1
DA:517,1
DA:518,1
DA:519,1
DA:520,1
DA:521,1
DA:522,2
DA:523,1
DA:526,1
DA:527,1
DA:528,1
DA:529,1
DA:530,1
DA:531,1
DA:532,1
DA:533,1
DA:534,1
DA:537,1
DA:538,1
DA:539,1
DA:540,1
DA:541,1
DA:544,1
DA:545,4
DA:548,4
DA:549,1
DA:550,2
DA:551,4
DA:552,1
DA:555,1
DA:556,1
DA:557,1
DA:558,1
DA:559,1
DA:560,1
DA:561,1
DA:562,2
DA:563,1
DA:566,1
DA:567,1
DA:568,1
DA:569,1
DA:570,1
DA:571,1
DA:572,3
DA:573,1
DA:576,1
DA:577,1
DA:578,1
DA:580,1
DA:581,1
DA:583,1
DA:584,1
DA:586,1
DA:587,1
DA:588,1
BRF:0
BRH:0
LF:316
LH:295
end_of_record
SF:/workspaces/code-guardian/crates/core/src/distributed.rs
FN:135,_RNCNCNvMNtCslCYtQ1Dl4P0_18code_guardian_core11distributedNtB6_22DistributedCoordinator24execute_distributed_scan00Cs16s6DcJnmvZ_17code_guardian_cli
FN:207,_RNCNCNvMNtCslCYtQ1Dl4P0_18code_guardian_core11distributedNtB6_22DistributedCoordinator30simulate_distributed_execution00Cs16s6DcJnmvZ_17code_guardian_cli
FN:259,_RNCNvMNtCslCYtQ1Dl4P0_18code_guardian_core11distributedNtB4_22DistributedCoordinator22execute_local_fallback0Cs16s6DcJnmvZ_17code_guardian_cli
FN:107,_RNCNvMNtCslCYtQ1Dl4P0_18code_guardian_core11distributedNtB4_22DistributedCoordinator24execute_distributed_scan0Cs16s6DcJnmvZ_17code_guardian_cli
FN:199,_RNCNvMNtCslCYtQ1Dl4P0_18code_guardian_core11distributedNtB4_22DistributedCoordinator30simulate_distributed_execution0Cs16s6DcJnmvZ_17code_guardian_cli
FN:151,_RNvMNtCslCYtQ1Dl4P0_18code_guardian_core11distributedNtB2_22DistributedCoordinator14get_statistics
FN:66,_RNvMNtCslCYtQ1Dl4P0_18code_guardian_core11distributedNtB2_22DistributedCoordinator15register_worker
FN:80,_RNvMNtCslCYtQ1Dl4P0_18code_guardian_core11distributedNtB2_22DistributedCoordinator17create_work_units
FN:221,_RNvMNtCslCYtQ1Dl4P0_18code_guardian_core11distributedNtB2_22DistributedCoordinator17process_work_unit
FN:75,_RNvMNtCslCYtQ1Dl4P0_18code_guardian_core11distributedNtB2_22DistributedCoordinator17register_detector
FN:285,_RNvMNtCslCYtQ1Dl4P0_18code_guardian_core11distributedNtB2_22DistributedCoordinator18calculate_priority
FN:259,_RNvMNtCslCYtQ1Dl4P0_18code_guardian_core11distributedNtB2_22DistributedCoordinator22execute_local_fallback
FN:311,_RNvMNtCslCYtQ1Dl4P0_18code_guardian_core11distributedNtB2_22DistributedCoordinator23print_execution_summary
FN:273,_RNvMNtCslCYtQ1Dl4P0_18code_guardian_core11distributedNtB2_22DistributedCoordinator24estimate_processing_time
FN:107,_RNvMNtCslCYtQ1Dl4P0_18code_guardian_core11distributedNtB2_22DistributedCoordinator24execute_distributed_scan
FN:199,_RNvMNtCslCYtQ1Dl4P0_18code_guardian_core11distributedNtB2_22DistributedCoordinator30simulate_distributed_execution
FN:55,_RNvMNtCslCYtQ1Dl4P0_18code_guardian_core11distributedNtB2_22DistributedCoordinator3new
FN:341,_RNvXs_NtCslCYtQ1Dl4P0_18code_guardian_core11distributedNtB4_22DistributedCoordinatorNtNtCs66KPHxksi63_4core7default7Default7default
FN:171,_RNCNCNvMNtCslCYtQ1Dl4P0_18code_guardian_core11distributedNtB6_22DistributedCoordinator14get_statisticss0_00B8_
FN:167,_RNCNvMNtCslCYtQ1Dl4P0_18code_guardian_core11distributedNtB4_22DistributedCoordinator14get_statisticss0_0B6_
FN:96,_RNCNvMNtCslCYtQ1Dl4P0_18code_guardian_core11distributedNtB4_22DistributedCoordinator17create_work_units0B6_
FN:298,_RNCNvMNtCslCYtQ1Dl4P0_18code_guardian_core11distributedNtB4_22DistributedCoordinator18calculate_priority0B6_
FN:300,_RNCNvMNtCslCYtQ1Dl4P0_18code_guardian_core11distributedNtB4_22DistributedCoordinator18calculate_prioritys0_0B6_
FN:299,_RNCNvMNtCslCYtQ1Dl4P0_18code_guardian_core11distributedNtB4_22DistributedCoordinator18calculate_prioritys_0B6_
FN:278,_RNCNvMNtCslCYtQ1Dl4P0_18code_guardian_core11distributedNtB4_22DistributedCoordinator24estimate_processing_time0B6_
FN:279,_RNCNvMNtCslCYtQ1Dl4P0_18code_guardian_core11distributedNtB4_22DistributedCoordinator24estimate_processing_times_0B6_
FN:171,_RNCNCNvMNtCs6ew6Blb7sDz_18code_guardian_core11distributedNtB6_22DistributedCoordinator14get_statisticss0_00B8_
FN:135,_RNCNCNvMNtCs6ew6Blb7sDz_18code_guardian_core11distributedNtB6_22DistributedCoordinator24execute_distributed_scan00B8_
FN:207,_RNCNCNvMNtCs6ew6Blb7sDz_18code_guardian_core11distributedNtB6_22DistributedCoordinator30simulate_distributed_execution00B8_
FN:167,_RNCNvMNtCs6ew6Blb7sDz_18code_guardian_core11distributedNtB4_22DistributedCoordinator14get_statisticss0_0B6_
FN:259,_RNCNvMNtCs6ew6Blb7sDz_18code_guardian_core11distributedNtB4_22DistributedCoordinator22execute_local_fallback0B6_
FN:107,_RNCNvMNtCs6ew6Blb7sDz_18code_guardian_core11distributedNtB4_22DistributedCoordinator24execute_distributed_scan0B6_
FN:199,_RNCNvMNtCs6ew6Blb7sDz_18code_guardian_core11distributedNtB4_22DistributedCoordinator30simulate_distributed_execution0B6_
FN:151,_RNvMNtCs6ew6Blb7sDz_18code_guardian_core11distributedNtB2_22DistributedCoordinator14get_statistics
FN:221,_RNvMNtCs6ew6Blb7sDz_18code_guardian_core11distributedNtB2_22DistributedCoordinator17process_work_unit
FN:259,_RNvMNtCs6ew6Blb7sDz_18code_guardian_core11distributedNtB2_22DistributedCoordinator22execute_local_fallback
FN:311,_RNvMNtCs6ew6Blb7sDz_18code_guardian_core11distributedNtB2_22DistributedCoordinator23print_execution_summary
FN:107,_RNvMNtCs6ew6Blb7sDz_18code_guardian_core11distributedNtB2_22DistributedCoordinator24execute_distributed_scan
FN:199,_RNvMNtCs6ew6Blb7sDz_18code_guardian_core11distributedNtB2_22DistributedCoordinator30simulate_distributed_execution
FN:341,_RNvXs_NtCs6ew6Blb7sDz_18code_guardian_core11distributedNtB4_22DistributedCoordinatorNtNtCs66KPHxksi63_4core7default7Default7default
FN:66,_RNvMNtCs6ew6Blb7sDz_18code_guardian_core11distributedNtB2_22DistributedCoordinator15register_worker
FN:80,_RNvMNtCs6ew6Blb7sDz_18code_guardian_core11distributedNtB2_22DistributedCoordinator17create_work_units
FN:75,_RNvMNtCs6ew6Blb7sDz_18code_guardian_core11distributedNtB2_22DistributedCoordinator17register_detector
FN:285,_RNvMNtCs6ew6Blb7sDz_18code_guardian_core11distributedNtB2_22DistributedCoordinator18calculate_priority
FN:273,_RNvMNtCs6ew6Blb7sDz_18code_guardian_core11distributedNtB2_22DistributedCoordinator24estimate_processing_time
FN:55,_RNvMNtCs6ew6Blb7sDz_18code_guardian_core11distributedNtB2_22DistributedCoordinator3new
FN:377,_RNvNtNtCs6ew6Blb7sDz_18code_guardian_core11distributed5testss_23test_work_unit_creation
FN:360,_RNvNtNtCs6ew6Blb7sDz_18code_guardian_core11distributed5testss_24test_worker_registration
FN:353,_RNvNtNtCs6ew6Blb7sDz_18code_guardian_core11distributed5testss_37test_distributed_coordinator_creation
FN:96,_RNCNvMNtCs6ew6Blb7sDz_18code_guardian_core11distributedNtB4_22DistributedCoordinator17create_work_units0B6_
FN:298,_RNCNvMNtCs6ew6Blb7sDz_18code_guardian_core11distributedNtB4_22DistributedCoordinator18calculate_priority0B6_
FN:300,_RNCNvMNtCs6ew6Blb7sDz_18code_guardian_core11distributedNtB4_22DistributedCoordinator18calculate_prioritys0_0B6_
FN:299,_RNCNvMNtCs6ew6Blb7sDz_18code_guardian_core11distributedNtB4_22DistributedCoordinator18calculate_prioritys_0B6_
FN:278,_RNCNvMNtCs6ew6Blb7sDz_18code_guardian_core11distributedNtB4_22DistributedCoordinator24estimate_processing_time0B6_
FN:279,_RNCNvMNtCs6ew6Blb7sDz_18code_guardian_core11distributedNtB4_22DistributedCoordinator24estimate_processing_times_0B6_
FN:135,_RNCNCNvMNtCslCYtQ1Dl4P0_18code_guardian_core11distributedNtB6_22DistributedCoordinator24execute_distributed_scan00CshOKUTiOstO6_26integration_workflow_tests
FN:207,_RNCNCNvMNtCslCYtQ1Dl4P0_18code_guardian_core11distributedNtB6_22DistributedCoordinator30simulate_distributed_execution00CshOKUTiOstO6_26integration_workflow_tests
FN:259,_RNCNvMNtCslCYtQ1Dl4P0_18code_guardian_core11distributedNtB4_22DistributedCoordinator22execute_local_fallback0CshOKUTiOstO6_26integration_workflow_tests
FN:107,_RNCNvMNtCslCYtQ1Dl4P0_18code_guardian_core11distributedNtB4_22DistributedCoordinator24execute_distributed_scan0CshOKUTiOstO6_26integration_workflow_tests
FN:199,_RNCNvMNtCslCYtQ1Dl4P0_18code_guardian_core11distributedNtB4_22DistributedCoordinator30simulate_distributed_execution0CshOKUTiOstO6_26integration_workflow_tests
FNDA:2,_RNCNCNvMNtCslCYtQ1Dl4P0_18code_guardian_core11distributedNtB6_22DistributedCoordinator24execute_distributed_scan00Cs16s6DcJnmvZ_17code_guardian_cli
FNDA:2,_RNCNCNvMNtCslCYtQ1Dl4P0_18code_guardian_core11distributedNtB6_22DistributedCoordinator30simulate_distributed_execution00Cs16s6DcJnmvZ_17code_guardian_cli
FNDA:0,_RNCNvMNtCslCYtQ1Dl4P0_18code_guardian_core11distributedNtB4_22DistributedCoordinator22execute_local_fallback0Cs16s6DcJnmvZ_17code_guardian_cli
FNDA:2,_RNCNvMNtCslCYtQ1Dl4P0_18code_guardian_core11distributedNtB4_22DistributedCoordinator24execute_distributed_scan0Cs16s6DcJnmvZ_17code_guardian_cli
FNDA:2,_RNCNvMNtCslCYtQ1Dl4P0_18code_guardian_core11distributedNtB4_22DistributedCoordinator30simulate_distributed_execution0Cs16s6DcJnmvZ_17code_guardian_cli
FNDA:4,_RNvMNtCslCYtQ1Dl4P0_18code_guardian_core11distributedNtB2_22DistributedCoordinator14get_statistics
FNDA:8,_RNvMNtCslCYtQ1Dl4P0_18code_guardian_core11distributedNtB2_22DistributedCoordinator15register_worker
FNDA:2,_RNvMNtCslCYtQ1Dl4P0_18code_guardian_core11distributedNtB2_22DistributedCoordinator17create_work_units
FNDA:2,_RNvMNtCslCYtQ1Dl4P0_18code_guardian_core11distributedNtB2_22DistributedCoordinator17process_work_unit
FNDA:4,_RNvMNtCslCYtQ1Dl4P0_18code_guardian_core11distributedNtB2_22DistributedCoordinator17register_detector
FNDA:2,_RNvMNtCslCYtQ1Dl4P0_18code_guardian_core11distributedNtB2_22DistributedCoordinator18calculate_priority
FNDA:0,_RNvMNtCslCYtQ1Dl4P0_18code_guardian_core11distributedNtB2_22DistributedCoordinator22execute_local_fallback
FNDA:2,_RNvMNtCslCYtQ1Dl4P0_18code_guardian_core11distributedNtB2_22DistributedCoordinator23print_execution_summary
FNDA:2,_RNvMNtCslCYtQ1Dl4P0_18code_guardian_core11distributedNtB2_22DistributedCoordinator24estimate_processing_time
FNDA:2,_RNvMNtCslCYtQ1Dl4P0_18code_guardian_core11distributedNtB2_22DistributedCoordinator24execute_distributed_scan
FNDA:2,_RNvMNtCslCYtQ1Dl4P0_18code_guardian_core11distributedNtB2_22DistributedCoordinator30simulate_distributed_execution
FNDA:3,_RNvMNtCslCYtQ1Dl4P0_18code_guardian_core11distributedNtB2_22DistributedCoordinator3new
FNDA:0,_RNvXs_NtCslCYtQ1Dl4P0_18code_guardian_core11distributedNtB4_22DistributedCoordinatorNtNtCs66KPHxksi63_4core7default7Default7default
FNDA:12,_RNCNCNvMNtCslCYtQ1Dl4P0_18code_guardian_core11distributedNtB6_22DistributedCoordinator14get_statisticss0_00B8_
FNDA:12,_RNCNvMNtCslCYtQ1Dl4P0_18code_guardian_core11distributedNtB4_22DistributedCoordinator14get_statisticss0_0B6_
FNDA:0,_RNCNvMNtCslCYtQ1Dl4P0_18code_guardian_core11distributedNtB4_22DistributedCoordinator17create_work_units0B6_
FNDA:3,_RNCNvMNtCslCYtQ1Dl4P0_18code_guardian_core11distributedNtB4_22DistributedCoordinator18calculate_priority0B6_
FNDA:3,_RNCNvMNtCslCYtQ1Dl4P0_18code_guardian_core11distributedNtB4_22DistributedCoordinator18calculate_prioritys0_0B6_
FNDA:3,_RNCNvMNtCslCYtQ1Dl4P0_18code_guardian_core11distributedNtB4_22DistributedCoordinator18calculate_prioritys_0B6_
FNDA:3,_RNCNvMNtCslCYtQ1Dl4P0_18code_guardian_core11distributedNtB4_22DistributedCoordinator24estimate_processing_time0B6_
FNDA:3,_RNCNvMNtCslCYtQ1Dl4P0_18code_guardian_core11distributedNtB4_22DistributedCoordinator24estimate_processing_times_0B6_
FNDA:0,_RNCNCNvMNtCs6ew6Blb7sDz_18code_guardian_core11distributedNtB6_22DistributedCoordinator14get_statisticss0_00B8_
FNDA:0,_RNCNCNvMNtCs6ew6Blb7sDz_18code_guardian_core11distributedNtB6_22DistributedCoordinator24execute_distributed_scan00B8_
FNDA:0,_RNCNCNvMNtCs6ew6Blb7sDz_18code_guardian_core11distributedNtB6_22DistributedCoordinator30simulate_distributed_execution00B8_
FNDA:0,_RNCNvMNtCs6ew6Blb7sDz_18code_guardian_core11distributedNtB4_22DistributedCoordinator14get_statisticss0_0B6_
FNDA:0,_RNCNvMNtCs6ew6Blb7sDz_18code_guardian_core11distributedNtB4_22DistributedCoordinator22execute_local_fallback0B6_
FNDA:0,_RNCNvMNtCs6ew6Blb7sDz_18code_guardian_core11distributedNtB4_22DistributedCoordinator24execute_distributed_scan0B6_
FNDA:0,_RNCNvMNtCs6ew6Blb7sDz_18code_guardian_core11distributedNtB4_22DistributedCoordinator30simulate_distributed_execution0B6_
FNDA:0,_RNvMNtCs6ew6Blb7sDz_18code_guardian_core11distributedNtB2_22DistributedCoordinator14get_statistics
FNDA:0,_RNvMNtCs6ew6Blb7sDz_18code_guardian_core11distributedNtB2_22DistributedCoordinator17process_work_unit
FNDA:0,_RNvMNtCs6ew6Blb7sDz_18code_guardian_core11distributedNtB2_22DistributedCoordinator22execute_local_fallback
FNDA:0,_RNvMNtCs6ew6Blb7sDz_18code_guardian_core11distributedNtB2_22DistributedCoordinator23print_execution_summary
FNDA:0,_RNvMNtCs6ew6Blb7sDz_18code_guardian_core11distributedNtB2_22DistributedCoordinator24execute_distributed_scan
FNDA:0,_RNvMNtCs6ew6Blb7sDz_18code_guardian_core11distributedNtB2_22DistributedCoordinator30simulate_distributed_execution
FNDA:0,_RNvXs_NtCs6ew6Blb7sDz_18code_guardian_core11distributedNtB4_22DistributedCoordinatorNtNtCs66KPHxksi63_4core7default7Default7default
FNDA:1,_RNvMNtCs6ew6Blb7sDz_18code_guardian_core11distributedNtB2_22DistributedCoordinator15register_worker
FNDA:1,_RNvMNtCs6ew6Blb7sDz_18code_guardian_core11distributedNtB2_22DistributedCoordinator17create_work_units
FNDA:1,_RNvMNtCs6ew6Blb7sDz_18code_guardian_core11distributedNtB2_22DistributedCoordinator17register_detector
FNDA:1,_RNvMNtCs6ew6Blb7sDz_18code_guardian_core11distributedNtB2_22DistributedCoordinator18calculate_priority
FNDA:1,_RNvMNtCs6ew6Blb7sDz_18code_guardian_core11distributedNtB2_22DistributedCoordinator24estimate_processing_time
FNDA:3,_RNvMNtCs6ew6Blb7sDz_18code_guardian_core11distributedNtB2_22DistributedCoordinator3new
FNDA:1,_RNvNtNtCs6ew6Blb7sDz_18code_guardian_core11distributed5testss_23test_work_unit_creation
FNDA:1,_RNvNtNtCs6ew6Blb7sDz_18code_guardian_core11distributed5testss_24test_worker_registration
FNDA:1,_RNvNtNtCs6ew6Blb7sDz_18code_guardian_core11distributed5testss_37test_distributed_coordinator_creation
FNDA:0,_RNCNvMNtCs6ew6Blb7sDz_18code_guardian_core11distributedNtB4_22DistributedCoordinator17create_work_units0B6_
FNDA:1,_RNCNvMNtCs6ew6Blb7sDz_18code_guardian_core11distributedNtB4_22DistributedCoordinator18calculate_priority0B6_
FNDA:1,_RNCNvMNtCs6ew6Blb7sDz_18code_guardian_core11distributedNtB4_22DistributedCoordinator18calculate_prioritys0_0B6_
FNDA:1,_RNCNvMNtCs6ew6Blb7sDz_18code_guardian_core11distributedNtB4_22DistributedCoordinator18calculate_prioritys_0B6_
FNDA:1,_RNCNvMNtCs6ew6Blb7sDz_18code_guardian_core11distributedNtB4_22DistributedCoordinator24estimate_processing_time0B6_
FNDA:1,_RNCNvMNtCs6ew6Blb7sDz_18code_guardian_core11distributedNtB4_22DistributedCoordinator24estimate_processing_times_0B6_
FNDA:0,_RNCNCNvMNtCslCYtQ1Dl4P0_18code_guardian_core11distributedNtB6_22DistributedCoordinator24execute_distributed_scan00CshOKUTiOstO6_26integration_workflow_tests
FNDA:0,_RNCNCNvMNtCslCYtQ1Dl4P0_18code_guardian_core11distributedNtB6_22DistributedCoordinator30simulate_distributed_execution00CshOKUTiOstO6_26integration_workflow_tests
FNDA:0,_RNCNvMNtCslCYtQ1Dl4P0_18code_guardian_core11distributedNtB4_22DistributedCoordinator22execute_local_fallback0CshOKUTiOstO6_26integration_workflow_tests
FNDA:0,_RNCNvMNtCslCYtQ1Dl4P0_18code_guardian_core11distributedNtB4_22DistributedCoordinator24execute_distributed_scan0CshOKUTiOstO6_26integration_workflow_tests
FNDA:0,_RNCNvMNtCslCYtQ1Dl4P0_18code_guardian_core11distributedNtB4_22DistributedCoordinator30simulate_distributed_execution0CshOKUTiOstO6_26integration_workflow_tests
FNF:29
FNH:25
DA:55,6
DA:56,6
DA:57,6
DA:58,6
DA:59,6
DA:60,6
DA:61,6
DA:62,6
DA:63,6
DA:66,9
DA:67,9
DA:68,0
DA:71,9
DA:72,9
DA:75,5
DA:76,5
DA:77,5
DA:80,3
DA:81,3
DA:82,3
DA:83,3
DA:84,3
DA:85,3
DA:86,3
DA:87,3
DA:88,3
DA:89,3
DA:90,3
DA:91,3
DA:92,3
DA:93,3
DA:96,3
DA:98,3
DA:99,0
DA:100,0
DA:101,0
DA:103,3
DA:104,3
DA:107,2
DA:108,2
DA:109,2
DA:111,2
DA:112,0
DA:113,0
DA:119,2
DA:120,2
DA:123,2
DA:125,0
DA:126,2
DA:130,2
DA:132,2
DA:133,2
DA:134,2
DA:135,2
DA:136,2
DA:138,2
DA:139,2
DA:143,2
DA:144,2
DA:147,2
DA:148,2
DA:151,4
DA:152,4
DA:153,4
DA:154,4
DA:155,4
DA:156,4
DA:158,4
DA:159,4
DA:160,4
DA:161,4
DA:162,4
DA:164,4
DA:165,4
DA:166,4
DA:167,12
DA:168,12
DA:169,12
DA:170,12
DA:171,12
DA:172,12
DA:174,12
DA:175,4
DA:177,8
DA:180,12
DA:181,12
DA:182,4
DA:185,4
DA:186,4
DA:187,4
DA:188,4
DA:189,4
DA:190,4
DA:191,4
DA:192,4
DA:194,0
DA:197,4
DA:199,2
DA:203,2
DA:204,2
DA:205,2
DA:206,2
DA:207,2
DA:208,2
DA:209,2
DA:210,2
DA:211,2
DA:214,4
DA:215,2
DA:216,2
DA:218,2
DA:219,2
DA:221,2
DA:222,2
DA:223,2
DA:224,2
DA:225,2
DA:227,5
DA:228,3
DA:229,2
DA:230,6
DA:231,4
DA:232,4
DA:233,4
DA:234,4
DA:236,2
DA:238,1
DA:239,1
DA:240,1
DA:244,2
DA:247,2
DA:248,2
DA:249,2
DA:250,2
DA:251,2
DA:252,2
DA:253,2
DA:254,2
DA:255,2
DA:257,2
DA:259,0
DA:260,0
DA:262,0
DA:263,0
DA:264,0
DA:265,0
DA:266,0
DA:267,0
DA:270,0
DA:271,0
DA:273,3
DA:275,3
DA:276,3
DA:277,3
DA:278,4
DA:279,4
DA:280,3
DA:282,3
DA:283,3
DA:285,3
DA:288,3
DA:289,3
DA:290,0
DA:291,0
DA:292,0
DA:296,3
DA:297,3
DA:298,4
DA:299,4
DA:300,4
DA:301,4
DA:302,1
DA:303,1
DA:304,4
DA:305,3
DA:306,3
DA:308,3
DA:309,3
DA:311,2
DA:312,2
DA:313,2
DA:314,2
DA:315,2
DA:317,2
DA:318,2
DA:319,2
DA:322,8
DA:323,6
DA:325,2
DA:341,0
DA:342,0
DA:343,0
DA:353,1
DA:354,1
DA:355,1
DA:356,1
DA:357,1
DA:360,1
DA:361,1
DA:363,1
DA:364,1
DA:365,1
DA:366,1
DA:367,1
DA:368,1
DA:369,1
DA:370,1
DA:372,1
DA:373,1
DA:374,1
DA:377,1
DA:378,1
DA:379,1
DA:380,1
DA:382,1
DA:383,1
DA:385,1
DA:386,1
DA:388,1
DA:389,1
DA:390,1
BRF:0
BRH:0
LF:234
LH:208
end_of_record
SF:/workspaces/code-guardian/crates/core/src/enhanced_config.rs
FN:97,_RNvXNtCslCYtQ1Dl4P0_18code_guardian_core15enhanced_configNtB2_18EnhancedScanConfigNtNtCs66KPHxksi63_4core7default7Default7default
FN:97,_RNvXNtCs6ew6Blb7sDz_18code_guardian_core15enhanced_configNtB2_18EnhancedScanConfigNtNtCs66KPHxksi63_4core7default7Default7default
FN:402,_RNvNtNtCs6ew6Blb7sDz_18code_guardian_core15enhanced_config5testss_17test_config_clone
FN:226,_RNvNtNtCs6ew6Blb7sDz_18code_guardian_core15enhanced_config5testss_27test_detector_type_equality
FN:372,_RNvNtNtCs6ew6Blb7sDz_18code_guardian_core15enhanced_config5testss_27test_file_extension_filters
FN:390,_RNvNtNtCs6ew6Blb7sDz_18code_guardian_core15enhanced_config5testss_28test_path_exclusion_patterns
FN:266,_RNvNtNtCs6ew6Blb7sDz_18code_guardian_core15enhanced_config5testss_29test_severity_levels_defaults
FN:302,_RNvNtNtCs6ew6Blb7sDz_18code_guardian_core15enhanced_config5testss_32test_all_detector_types_coverage
FN:349,_RNvNtNtCs6ew6Blb7sDz_18code_guardian_core15enhanced_config5testss_32test_config_with_custom_patterns
FN:240,_RNvNtNtCs6ew6Blb7sDz_18code_guardian_core15enhanced_config5testss_32test_detector_type_serialization
FN:214,_RNvNtNtCs6ew6Blb7sDz_18code_guardian_core15enhanced_config5testss_33test_enhanced_scan_config_default
FN:254,_RNvNtNtCs6ew6Blb7sDz_18code_guardian_core15enhanced_config5testss_34test_enhanced_config_serialization
FN:416,_RNvNtNtCs6ew6Blb7sDz_18code_guardian_core15enhanced_config5testss_40test_llm_security_patterns_comprehensive
FNDA:0,_RNvXNtCslCYtQ1Dl4P0_18code_guardian_core15enhanced_configNtB2_18EnhancedScanConfigNtNtCs66KPHxksi63_4core7default7Default7default
FNDA:12,_RNvXNtCs6ew6Blb7sDz_18code_guardian_core15enhanced_configNtB2_18EnhancedScanConfigNtNtCs66KPHxksi63_4core7default7Default7default
FNDA:1,_RNvNtNtCs6ew6Blb7sDz_18code_guardian_core15enhanced_config5testss_17test_config_clone
FNDA:1,_RNvNtNtCs6ew6Blb7sDz_18code_guardian_core15enhanced_config5testss_27test_detector_type_equality
FNDA:1,_RNvNtNtCs6ew6Blb7sDz_18code_guardian_core15enhanced_config5testss_27test_file_extension_filters
FNDA:1,_RNvNtNtCs6ew6Blb7sDz_18code_guardian_core15enhanced_config5testss_28test_path_exclusion_patterns
FNDA:1,_RNvNtNtCs6ew6Blb7sDz_18code_guardian_core15enhanced_config5testss_29test_severity_levels_defaults
FNDA:1,_RNvNtNtCs6ew6Blb7sDz_18code_guardian_core15enhanced_config5testss_32test_all_detector_types_coverage
FNDA:1,_RNvNtNtCs6ew6Blb7sDz_18code_guardian_core15enhanced_config5testss_32test_config_with_custom_patterns
FNDA:1,_RNvNtNtCs6ew6Blb7sDz_18code_guardian_core15enhanced_config5testss_32test_detector_type_serialization
FNDA:1,_RNvNtNtCs6ew6Blb7sDz_18code_guardian_core15enhanced_config5testss_33test_enhanced_scan_config_default
FNDA:1,_RNvNtNtCs6ew6Blb7sDz_18code_guardian_core15enhanced_config5testss_34test_enhanced_config_serialization
FNDA:1,_RNvNtNtCs6ew6Blb7sDz_18code_guardian_core15enhanced_config5testss_40test_llm_security_patterns_comprehensive
FNF:12
FNH:12
DA:97,12
DA:98,12
DA:99,12
DA:100,12
DA:101,12
DA:102,12
DA:103,12
DA:104,12
DA:105,12
DA:106,12
DA:109,12
DA:110,12
DA:111,12
DA:112,12
DA:113,12
DA:116,12
DA:117,12
DA:118,12
DA:119,12
DA:120,12
DA:121,12
DA:122,12
DA:125,12
DA:126,12
DA:127,12
DA:128,12
DA:129,12
DA:130,12
DA:131,12
DA:132,12
DA:133,12
DA:136,12
DA:137,12
DA:138,12
DA:139,12
DA:140,12
DA:141,12
DA:142,12
DA:143,12
DA:144,12
DA:146,12
DA:147,12
DA:148,12
DA:149,12
DA:150,12
DA:151,12
DA:152,12
DA:153,12
DA:154,12
DA:155,12
DA:156,12
DA:157,12
DA:158,12
DA:159,12
DA:160,12
DA:161,12
DA:162,12
DA:163,12
DA:164,12
DA:165,12
DA:166,12
DA:167,12
DA:168,12
DA:169,12
DA:170,12
DA:171,12
DA:172,12
DA:173,12
DA:174,12
DA:175,12
DA:176,12
DA:177,12
DA:178,12
DA:179,12
DA:180,12
DA:181,12
DA:182,12
DA:183,12
DA:184,12
DA:185,12
DA:186,12
DA:187,12
DA:188,12
DA:189,12
DA:190,12
DA:191,12
DA:192,12
DA:193,12
DA:194,12
DA:195,12
DA:196,12
DA:197,12
DA:198,12
DA:199,12
DA:200,12
DA:201,12
DA:202,12
DA:203,12
DA:204,12
DA:205,12
DA:206,12
DA:214,1
DA:215,1
DA:217,1
DA:218,1
DA:219,1
DA:220,1
DA:221,1
DA:222,1
DA:223,1
DA:226,1
DA:227,1
DA:228,1
DA:229,1
DA:230,1
DA:231,1
DA:233,1
DA:234,1
DA:235,1
DA:237,1
DA:240,1
DA:241,1
DA:242,1
DA:243,1
DA:244,1
DA:247,1
DA:248,1
DA:249,1
DA:250,1
DA:251,1
DA:254,1
DA:255,1
DA:256,1
DA:257,1
DA:259,1
DA:260,1
DA:261,1
DA:262,1
DA:263,1
DA:266,1
DA:267,1
DA:270,1
DA:271,1
DA:272,1
DA:273,1
DA:276,1
DA:277,1
DA:280,1
DA:281,1
DA:284,1
DA:285,1
DA:290,1
DA:291,1
DA:292,1
DA:295,1
DA:296,1
DA:299,1
DA:302,1
DA:304,1
DA:305,1
DA:306,1
DA:307,1
DA:308,1
DA:309,1
DA:310,1
DA:311,1
DA:314,8
DA:315,7
DA:316,7
DA:320,1
DA:321,1
DA:322,1
DA:323,1
DA:324,1
DA:325,1
DA:328,6
DA:329,5
DA:330,5
DA:334,1
DA:335,1
DA:336,1
DA:337,1
DA:338,1
DA:339,1
DA:342,6
DA:343,5
DA:344,5
DA:346,1
DA:349,1
DA:350,1
DA:351,1
DA:352,1
DA:353,1
DA:354,1
DA:355,1
DA:356,1
DA:358,1
DA:359,1
DA:360,1
DA:365,1
DA:366,1
DA:367,1
DA:369,1
DA:372,1
DA:373,1
DA:376,1
DA:377,1
DA:378,1
DA:379,1
DA:380,1
DA:383,1
DA:384,1
DA:385,1
DA:386,1
DA:387,1
DA:390,1
DA:391,1
DA:394,1
DA:395,1
DA:396,1
DA:397,1
DA:398,1
DA:399,1
DA:402,1
DA:403,1
DA:404,1
DA:406,1
DA:407,1
DA:408,1
DA:409,1
DA:410,1
DA:411,1
DA:412,1
DA:413,1
DA:416,1
DA:417,1
DA:420,1
DA:422,1
DA:423,1
DA:424,1
DA:425,1
DA:428,6
DA:429,5
DA:430,5
DA:431,5
DA:432,0
DA:437,1
BRF:0
BRH:0
LF:247
LH:246
end_of_record
SF:/workspaces/code-guardian/crates/core/src/incremental.rs
FN:251,_RNCNvMNtCslCYtQ1Dl4P0_18code_guardian_core11incrementalNtB4_18IncrementalScanner13collect_files0B6_
FN:216,_RNCNvMNtCslCYtQ1Dl4P0_18code_guardian_core11incrementalNtB4_18IncrementalScanner14get_statistics0B6_
FN:230,_RNCNvMNtCslCYtQ1Dl4P0_18code_guardian_core11incrementalNtB4_18IncrementalScanner14get_statisticss0_0B6_
FN:129,_RNCNvMNtCslCYtQ1Dl4P0_18code_guardian_core11incrementalNtB4_18IncrementalScanner16scan_incremental0B6_
FN:302,_RNvMNtCslCYtQ1Dl4P0_18code_guardian_core11incrementalNtB2_18IncrementalScanner10save_state
FN:245,_RNvMNtCslCYtQ1Dl4P0_18code_guardian_core11incrementalNtB2_18IncrementalScanner13collect_files
FN:204,_RNvMNtCslCYtQ1Dl4P0_18code_guardian_core11incrementalNtB2_18IncrementalScanner14get_statistics
FN:68,_RNvMNtCslCYtQ1Dl4P0_18code_guardian_core11incrementalNtB2_18IncrementalScanner16scan_incremental
FN:293,_RNvMNtCslCYtQ1Dl4P0_18code_guardian_core11incrementalNtB2_18IncrementalScanner17calculate_speedup
FN:198,_RNvMNtCslCYtQ1Dl4P0_18code_guardian_core11incrementalNtB2_18IncrementalScanner17force_full_rescan
FN:258,_RNvMNtCslCYtQ1Dl4P0_18code_guardian_core11incrementalNtB2_18IncrementalScanner17get_file_metadata
FN:283,_RNvMNtCslCYtQ1Dl4P0_18code_guardian_core11incrementalNtB2_18IncrementalScanner19calculate_file_hash
FN:51,_RNvMNtCslCYtQ1Dl4P0_18code_guardian_core11incrementalNtB2_18IncrementalScanner3new
FN:216,_RNCNvMNtCs6ew6Blb7sDz_18code_guardian_core11incrementalNtB4_18IncrementalScanner14get_statistics0B6_
FN:230,_RNCNvMNtCs6ew6Blb7sDz_18code_guardian_core11incrementalNtB4_18IncrementalScanner14get_statisticss0_0B6_
FN:204,_RNvMNtCs6ew6Blb7sDz_18code_guardian_core11incrementalNtB2_18IncrementalScanner14get_statistics
FN:198,_RNvMNtCs6ew6Blb7sDz_18code_guardian_core11incrementalNtB2_18IncrementalScanner17force_full_rescan
FN:251,_RNCNvMNtCs6ew6Blb7sDz_18code_guardian_core11incrementalNtB4_18IncrementalScanner13collect_files0B6_
FN:129,_RNCNvMNtCs6ew6Blb7sDz_18code_guardian_core11incrementalNtB4_18IncrementalScanner16scan_incremental0B6_
FN:335,_RNvNtNtCs6ew6Blb7sDz_18code_guardian_core11incremental5testss_27test_file_metadata_tracking
FN:326,_RNvNtNtCs6ew6Blb7sDz_18code_guardian_core11incremental5testss_33test_incremental_scanner_creation
FN:302,_RNvMNtCs6ew6Blb7sDz_18code_guardian_core11incrementalNtB2_18IncrementalScanner10save_state
FN:245,_RNvMNtCs6ew6Blb7sDz_18code_guardian_core11incrementalNtB2_18IncrementalScanner13collect_files
FN:68,_RNvMNtCs6ew6Blb7sDz_18code_guardian_core11incrementalNtB2_18IncrementalScanner16scan_incremental
FN:293,_RNvMNtCs6ew6Blb7sDz_18code_guardian_core11incrementalNtB2_18IncrementalScanner17calculate_speedup
FN:258,_RNvMNtCs6ew6Blb7sDz_18code_guardian_core11incrementalNtB2_18IncrementalScanner17get_file_metadata
FN:283,_RNvMNtCs6ew6Blb7sDz_18code_guardian_core11incrementalNtB2_18IncrementalScanner19calculate_file_hash
FN:51,_RNvMNtCs6ew6Blb7sDz_18code_guardian_core11incrementalNtB2_18IncrementalScanner3new
FNDA:14,_RNCNvMNtCslCYtQ1Dl4P0_18code_guardian_core11incrementalNtB4_18IncrementalScanner13collect_files0B6_
FNDA:0,_RNCNvMNtCslCYtQ1Dl4P0_18code_guardian_core11incrementalNtB4_18IncrementalScanner14get_statistics0B6_
FNDA:0,_RNCNvMNtCslCYtQ1Dl4P0_18code_guardian_core11incrementalNtB4_18IncrementalScanner14get_statisticss0_0B6_
FNDA:10,_RNCNvMNtCslCYtQ1Dl4P0_18code_guardian_core11incrementalNtB4_18IncrementalScanner16scan_incremental0B6_
FNDA:4,_RNvMNtCslCYtQ1Dl4P0_18code_guardian_core11incrementalNtB2_18IncrementalScanner10save_state
FNDA:4,_RNvMNtCslCYtQ1Dl4P0_18code_guardian_core11incrementalNtB2_18IncrementalScanner13collect_files
FNDA:0,_RNvMNtCslCYtQ1Dl4P0_18code_guardian_core11incrementalNtB2_18IncrementalScanner14get_statistics
FNDA:4,_RNvMNtCslCYtQ1Dl4P0_18code_guardian_core11incrementalNtB2_18IncrementalScanner16scan_incremental
FNDA:4,_RNvMNtCslCYtQ1Dl4P0_18code_guardian_core11incrementalNtB2_18IncrementalScanner17calculate_speedup
FNDA:0,_RNvMNtCslCYtQ1Dl4P0_18code_guardian_core11incrementalNtB2_18IncrementalScanner17force_full_rescan
FNDA:10,_RNvMNtCslCYtQ1Dl4P0_18code_guardian_core11incrementalNtB2_18IncrementalScanner17get_file_metadata
FNDA:10,_RNvMNtCslCYtQ1Dl4P0_18code_guardian_core11incrementalNtB2_18IncrementalScanner19calculate_file_hash
FNDA:4,_RNvMNtCslCYtQ1Dl4P0_18code_guardian_core11incrementalNtB2_18IncrementalScanner3new
FNDA:0,_RNCNvMNtCs6ew6Blb7sDz_18code_guardian_core11incrementalNtB4_18IncrementalScanner14get_statistics0B6_
FNDA:0,_RNCNvMNtCs6ew6Blb7sDz_18code_guardian_core11incrementalNtB4_18IncrementalScanner14get_statisticss0_0B6_
FNDA:0,_RNvMNtCs6ew6Blb7sDz_18code_guardian_core11incrementalNtB2_18IncrementalScanner14get_statistics
FNDA:0,_RNvMNtCs6ew6Blb7sDz_18code_guardian_core11incrementalNtB2_18IncrementalScanner17force_full_rescan
FNDA:4,_RNCNvMNtCs6ew6Blb7sDz_18code_guardian_core11incrementalNtB4_18IncrementalScanner13collect_files0B6_
FNDA:1,_RNCNvMNtCs6ew6Blb7sDz_18code_guardian_core11incrementalNtB4_18IncrementalScanner16scan_incremental0B6_
FNDA:1,_RNvNtNtCs6ew6Blb7sDz_18code_guardian_core11incremental5testss_27test_file_metadata_tracking
FNDA:1,_RNvNtNtCs6ew6Blb7sDz_18code_guardian_core11incremental5testss_33test_incremental_scanner_creation
FNDA:2,_RNvMNtCs6ew6Blb7sDz_18code_guardian_core11incrementalNtB2_18IncrementalScanner10save_state
FNDA:2,_RNvMNtCs6ew6Blb7sDz_18code_guardian_core11incrementalNtB2_18IncrementalScanner13collect_files
FNDA:2,_RNvMNtCs6ew6Blb7sDz_18code_guardian_core11incrementalNtB2_18IncrementalScanner16scan_incremental
FNDA:2,_RNvMNtCs6ew6Blb7sDz_18code_guardian_core11incrementalNtB2_18IncrementalScanner17calculate_speedup
FNDA:2,_RNvMNtCs6ew6Blb7sDz_18code_guardian_core11incrementalNtB2_18IncrementalScanner17get_file_metadata
FNDA:2,_RNvMNtCs6ew6Blb7sDz_18code_guardian_core11incrementalNtB2_18IncrementalScanner19calculate_file_hash
FNDA:2,_RNvMNtCs6ew6Blb7sDz_18code_guardian_core11incrementalNtB2_18IncrementalScanner3new
FNF:15
FNH:11
DA:51,6
DA:52,6
DA:53,4
DA:54,4
DA:56,2
DA:59,6
DA:60,6
DA:61,6
DA:62,6
DA:63,6
DA:64,6
DA:65,6
DA:68,6
DA:69,6
DA:70,6
DA:72,6
DA:73,6
DA:74,6
DA:75,6
DA:76,6
DA:77,6
DA:80,6
DA:81,6
DA:83,6
DA:84,3
DA:85,3
DA:86,3
DA:87,3
DA:88,3
DA:89,3
DA:90,3
DA:93,6
DA:94,6
DA:96,18
DA:97,12
DA:99,12
DA:100,12
DA:102,12
DA:103,3
DA:105,3
DA:106,3
DA:107,2
DA:111,9
DA:112,9
DA:116,12
DA:117,10
DA:118,1
DA:119,9
DA:122,10
DA:123,6
DA:124,4
DA:126,6
DA:127,6
DA:128,6
DA:129,11
DA:130,6
DA:132,6
DA:133,6
DA:134,6
DA:135,6
DA:136,6
DA:137,6
DA:138,6
DA:139,6
DA:141,6
DA:142,6
DA:143,6
DA:144,2
DA:145,2
DA:146,2
DA:147,2
DA:148,2
DA:149,2
DA:150,2
DA:151,0
DA:155,6
DA:156,14
DA:157,8
DA:158,0
DA:159,0
DA:160,8
DA:163,6
DA:164,6
DA:165,6
DA:166,6
DA:167,6
DA:168,6
DA:169,6
DA:170,6
DA:171,6
DA:172,6
DA:173,6
DA:176,6
DA:179,6
DA:180,6
DA:181,0
DA:182,6
DA:184,6
DA:185,6
DA:186,6
DA:189,6
DA:190,6
DA:191,6
DA:194,6
DA:195,6
DA:198,0
DA:199,0
DA:200,0
DA:201,0
DA:204,0
DA:205,0
DA:206,0
DA:207,0
DA:208,0
DA:209,0
DA:210,0
DA:211,0
DA:213,0
DA:214,0
DA:215,0
DA:216,0
DA:217,0
DA:218,0
DA:220,0
DA:224,0
DA:225,0
DA:226,0
DA:227,0
DA:228,0
DA:229,0
DA:230,0
DA:231,0
DA:232,0
DA:233,0
DA:234,0
DA:236,0
DA:239,0
DA:241,0
DA:243,0
DA:245,6
DA:248,6
DA:249,18
DA:250,18
DA:251,18
DA:252,12
DA:253,12
DA:255,6
DA:256,6
DA:258,12
DA:259,12
DA:260,12
DA:263,12
DA:265,12
DA:267,0
DA:270,12
DA:271,12
DA:272,12
DA:273,12
DA:274,12
DA:275,12
DA:276,12
DA:277,12
DA:279,0
DA:281,12
DA:283,12
DA:287,12
DA:288,12
DA:289,12
DA:290,12
DA:291,12
DA:293,6
DA:294,6
DA:295,6
DA:296,5
DA:298,1
DA:300,6
DA:302,6
DA:303,6
DA:304,6
DA:305,6
DA:306,6
DA:326,1
DA:327,1
DA:328,1
DA:330,1
DA:331,1
DA:332,1
DA:335,1
DA:336,1
DA:337,1
DA:338,1
DA:340,1
DA:341,1
DA:342,1
DA:343,1
DA:346,1
DA:347,1
DA:348,1
DA:349,1
DA:352,1
DA:353,1
DA:354,1
DA:355,1
BRF:0
BRH:0
LF:207
LH:165
end_of_record
SF:/workspaces/code-guardian/crates/core/src/lib.rs
FN:61,_RNvMCslCYtQ1Dl4P0_18code_guardian_coreNtB2_7Scanner3new
FN:98,_RNvMCslCYtQ1Dl4P0_18code_guardian_coreNtB2_7Scanner4scan
FN:115,_RNCNCNvMCslCYtQ1Dl4P0_18code_guardian_coreNtB6_7Scanner4scan00B6_
FN:102,_RNCNvMCslCYtQ1Dl4P0_18code_guardian_coreNtB4_7Scanner4scan0B4_
FN:211,_RNCNvNtCs6ew6Blb7sDz_18code_guardian_core5testss_27test_scanner_with_detectors0B5_
FN:261,_RNCNvNtCs6ew6Blb7sDz_18code_guardian_core5testss_45test_production_readiness_multi_language_scan0B5_
FN:115,_RNCNCNvMCs6ew6Blb7sDz_18code_guardian_coreNtB6_7Scanner4scan00B6_
FN:102,_RNCNvMCs6ew6Blb7sDz_18code_guardian_coreNtB4_7Scanner4scan0B4_
FN:61,_RNvMCs6ew6Blb7sDz_18code_guardian_coreNtB2_7Scanner3new
FN:98,_RNvMCs6ew6Blb7sDz_18code_guardian_coreNtB2_7Scanner4scan
FN:176,_RNvNtCs6ew6Blb7sDz_18code_guardian_core5testss_15test_no_matches
FN:150,_RNvNtCs6ew6Blb7sDz_18code_guardian_core5testss_18test_todo_detector
FN:163,_RNvNtCs6ew6Blb7sDz_18code_guardian_core5testss_19test_fixme_detector
FN:185,_RNvNtCs6ew6Blb7sDz_18code_guardian_core5testss_21test_multiple_matches
FN:194,_RNvNtCs6ew6Blb7sDz_18code_guardian_core5testss_27test_scanner_with_detectors
FN:217,_RNvNtCs6ew6Blb7sDz_18code_guardian_core5testss_45test_production_readiness_multi_language_scan
FNDA:789,_RNvMCslCYtQ1Dl4P0_18code_guardian_coreNtB2_7Scanner3new
FNDA:1050,_RNvMCslCYtQ1Dl4P0_18code_guardian_coreNtB2_7Scanner4scan
FNDA:948,_RNCNCNvMCslCYtQ1Dl4P0_18code_guardian_coreNtB6_7Scanner4scan00B6_
FNDA:2164,_RNCNvMCslCYtQ1Dl4P0_18code_guardian_coreNtB4_7Scanner4scan0B4_
FNDA:1,_RNCNvNtCs6ew6Blb7sDz_18code_guardian_core5testss_27test_scanner_with_detectors0B5_
FNDA:14,_RNCNvNtCs6ew6Blb7sDz_18code_guardian_core5testss_45test_production_readiness_multi_language_scan0B5_
FNDA:62,_RNCNCNvMCs6ew6Blb7sDz_18code_guardian_coreNtB6_7Scanner4scan00B6_
FNDA:7,_RNCNvMCs6ew6Blb7sDz_18code_guardian_coreNtB4_7Scanner4scan0B4_
FNDA:2,_RNvMCs6ew6Blb7sDz_18code_guardian_coreNtB2_7Scanner3new
FNDA:2,_RNvMCs6ew6Blb7sDz_18code_guardian_coreNtB2_7Scanner4scan
FNDA:1,_RNvNtCs6ew6Blb7sDz_18code_guardian_core5testss_15test_no_matches
FNDA:1,_RNvNtCs6ew6Blb7sDz_18code_guardian_core5testss_18test_todo_detector
FNDA:1,_RNvNtCs6ew6Blb7sDz_18code_guardian_core5testss_19test_fixme_detector
FNDA:1,_RNvNtCs6ew6Blb7sDz_18code_guardian_core5testss_21test_multiple_matches
FNDA:1,_RNvNtCs6ew6Blb7sDz_18code_guardian_core5testss_27test_scanner_with_detectors
FNDA:1,_RNvNtCs6ew6Blb7sDz_18code_guardian_core5testss_45test_production_readiness_multi_language_scan
FNF:12
FNH:12
DA:61,791
DA:62,791
DA:63,791
DA:64,791
DA:65,791
DA:66,791
DA:98,1052
DA:99,1052
DA:100,1052
DA:101,1052
DA:102,2171
DA:103,2171
DA:104,2169
DA:105,2169
DA:106,1119
DA:107,1119
DA:108,1119
DA:109,256
DA:111,863
DA:112,848
DA:113,848
DA:114,848
DA:115,1010
DA:116,848
DA:117,848
DA:118,848
DA:121,1050
DA:123,2171
DA:124,1052
DA:125,1052
DA:127,1052
DA:128,1052
DA:150,1
DA:151,1
DA:152,1
DA:153,1
DA:154,1
DA:155,1
DA:156,1
DA:157,1
DA:158,1
DA:159,1
DA:160,1
DA:163,1
DA:164,1
DA:165,1
DA:166,1
DA:167,1
DA:168,1
DA:169,1
DA:170,1
DA:171,1
DA:172,1
DA:173,1
DA:176,1
DA:177,1
DA:178,1
DA:179,1
DA:180,1
DA:181,1
DA:182,1
DA:185,1
DA:186,1
DA:187,1
DA:188,1
DA:189,1
DA:190,1
DA:191,1
DA:194,1
DA:195,1
DA:196,1
DA:197,1
DA:204,1
DA:205,1
DA:206,1
DA:207,1
DA:208,1
DA:210,1
DA:211,1
DA:212,1
DA:213,1
DA:214,1
DA:217,1
DA:220,1
DA:225,1
DA:227,1
DA:230,1
DA:231,1
DA:234,1
DA:237,1
DA:239,1
DA:242,1
DA:244,1
DA:247,1
DA:248,1
DA:251,1
DA:254,1
DA:255,1
DA:256,0
DA:257,0
DA:261,14
DA:264,1
DA:265,1
DA:266,0
DA:268,1
DA:269,1
DA:270,0
DA:272,1
DA:273,1
DA:274,0
DA:276,1
DA:277,1
DA:278,0
DA:280,1
DA:281,1
DA:282,0
DA:284,1
DA:285,1
DA:286,0
DA:288,1
DA:289,1
DA:290,1
DA:291,0
DA:294,1
DA:295,1
DA:296,1
DA:298,15
DA:299,14
DA:300,14
DA:301,1
BRF:0
BRH:0
LF:134
LH:125
end_of_record
SF:/workspaces/code-guardian/crates/core/src/llm_detectors.rs
FN:419,_RNvMsg_NtCslCYtQ1Dl4P0_18code_guardian_core13llm_detectorsNtB5_24ComprehensiveLLMDetector3new
FN:102,_RNvNtCslCYtQ1Dl4P0_18code_guardian_core13llm_detectors27detect_pattern_with_context
FN:131,_RNvXNtCslCYtQ1Dl4P0_18code_guardian_core13llm_detectorsNtB2_23HallucinatedApiDetectorNtB4_15PatternDetector6detect
FN:168,_RNvXs0_NtCslCYtQ1Dl4P0_18code_guardian_core13llm_detectorsNtB5_22InsecureRandomDetectorNtB7_15PatternDetector6detect
FN:182,_RNvXs1_NtCslCYtQ1Dl4P0_18code_guardian_core13llm_detectorsNtB5_28HardcodedCredentialsDetectorNtB7_15PatternDetector6detect
FN:196,_RNvXs2_NtCslCYtQ1Dl4P0_18code_guardian_core13llm_detectorsNtB5_24RustMemorySafetyDetectorNtB7_15PatternDetector6detect
FN:215,_RNvXs3_NtCslCYtQ1Dl4P0_18code_guardian_core13llm_detectorsNtB5_24AsyncAntipatternDetectorNtB7_15PatternDetector6detect
FN:235,_RNvXs4_NtCslCYtQ1Dl4P0_18code_guardian_core13llm_detectorsNtB5_30PerformanceAntipatternDetectorNtB7_15PatternDetector6detect
FN:249,_RNvXs5_NtCslCYtQ1Dl4P0_18code_guardian_core13llm_detectorsNtB5_21ErrorHandlingDetectorNtB7_15PatternDetector6detect
FN:263,_RNvXs6_NtCslCYtQ1Dl4P0_18code_guardian_core13llm_detectorsNtB5_25CryptoAntipatternDetectorNtB7_15PatternDetector6detect
FN:277,_RNvXs7_NtCslCYtQ1Dl4P0_18code_guardian_core13llm_detectorsNtB5_23OverengineeringDetectorNtB7_15PatternDetector6detect
FN:291,_RNvXs8_NtCslCYtQ1Dl4P0_18code_guardian_core13llm_detectorsNtB5_20XSSInjectionDetectorNtB7_15PatternDetector6detect
FN:305,_RNvXs9_NtCslCYtQ1Dl4P0_18code_guardian_core13llm_detectorsNtB5_26FilesystemSecurityDetectorNtB7_15PatternDetector6detect
FN:154,_RNvXs_NtCslCYtQ1Dl4P0_18code_guardian_core13llm_detectorsNtB4_23LLMSQLInjectionDetectorNtB6_15PatternDetector6detect
FN:319,_RNvXsa_NtCslCYtQ1Dl4P0_18code_guardian_core13llm_detectorsNtB5_25ConfigAntipatternDetectorNtB7_15PatternDetector6detect
FN:333,_RNvXsb_NtCslCYtQ1Dl4P0_18code_guardian_core13llm_detectorsNtB5_19JSLLMIssuesDetectorNtB7_15PatternDetector6detect
FN:356,_RNvXsc_NtCslCYtQ1Dl4P0_18code_guardian_core13llm_detectorsNtB5_23PythonLLMIssuesDetectorNtB7_15PatternDetector6detect
FN:375,_RNvXsd_NtCslCYtQ1Dl4P0_18code_guardian_core13llm_detectorsNtB5_24ContextConfusionDetectorNtB7_15PatternDetector6detect
FN:389,_RNvXse_NtCslCYtQ1Dl4P0_18code_guardian_core13llm_detectorsNtB5_27DatabaseAntipatternDetectorNtB7_15PatternDetector6detect
FN:403,_RNvXsf_NtCslCYtQ1Dl4P0_18code_guardian_core13llm_detectorsNtB5_28LLMGeneratedCommentsDetectorNtB7_15PatternDetector6detect
FN:446,_RNvXsh_NtCslCYtQ1Dl4P0_18code_guardian_core13llm_detectorsNtB5_24ComprehensiveLLMDetectorNtNtCs66KPHxksi63_4core7default7Default7default
FN:452,_RNvXsi_NtCslCYtQ1Dl4P0_18code_guardian_core13llm_detectorsNtB5_24ComprehensiveLLMDetectorNtB7_15PatternDetector6detect
FN:446,_RNvXsh_NtCs6ew6Blb7sDz_18code_guardian_core13llm_detectorsNtB5_24ComprehensiveLLMDetectorNtNtCs66KPHxksi63_4core7default7Default7default
FN:475,_RNCNvNtNtCs6ew6Blb7sDz_18code_guardian_core13llm_detectors5testss_30test_hallucinated_api_detector0B7_
FN:568,_RNCNvNtNtCs6ew6Blb7sDz_18code_guardian_core13llm_detectors5testss_31test_comprehensive_llm_detector0B7_
FN:498,_RNCNvNtNtCs6ew6Blb7sDz_18code_guardian_core13llm_detectors5testss_35test_hardcoded_credentials_detector0B7_
FN:581,_RNCNvNtNtCs6ew6Blb7sDz_18code_guardian_core13llm_detectors5testss_36test_llm_generated_comments_detector0B7_
FN:419,_RNvMsg_NtCs6ew6Blb7sDz_18code_guardian_core13llm_detectorsNtB5_24ComprehensiveLLMDetector3new
FN:102,_RNvNtCs6ew6Blb7sDz_18code_guardian_core13llm_detectors27detect_pattern_with_context
FN:131,_RNvXNtCs6ew6Blb7sDz_18code_guardian_core13llm_detectorsNtB2_23HallucinatedApiDetectorNtB4_15PatternDetector6detect
FN:168,_RNvXs0_NtCs6ew6Blb7sDz_18code_guardian_core13llm_detectorsNtB5_22InsecureRandomDetectorNtB7_15PatternDetector6detect
FN:182,_RNvXs1_NtCs6ew6Blb7sDz_18code_guardian_core13llm_detectorsNtB5_28HardcodedCredentialsDetectorNtB7_15PatternDetector6detect
FN:196,_RNvXs2_NtCs6ew6Blb7sDz_18code_guardian_core13llm_detectorsNtB5_24RustMemorySafetyDetectorNtB7_15PatternDetector6detect
FN:215,_RNvXs3_NtCs6ew6Blb7sDz_18code_guardian_core13llm_detectorsNtB5_24AsyncAntipatternDetectorNtB7_15PatternDetector6detect
FN:235,_RNvXs4_NtCs6ew6Blb7sDz_18code_guardian_core13llm_detectorsNtB5_30PerformanceAntipatternDetectorNtB7_15PatternDetector6detect
FN:249,_RNvXs5_NtCs6ew6Blb7sDz_18code_guardian_core13llm_detectorsNtB5_21ErrorHandlingDetectorNtB7_15PatternDetector6detect
FN:263,_RNvXs6_NtCs6ew6Blb7sDz_18code_guardian_core13llm_detectorsNtB5_25CryptoAntipatternDetectorNtB7_15PatternDetector6detect
FN:277,_RNvXs7_NtCs6ew6Blb7sDz_18code_guardian_core13llm_detectorsNtB5_23OverengineeringDetectorNtB7_15PatternDetector6detect
FN:291,_RNvXs8_NtCs6ew6Blb7sDz_18code_guardian_core13llm_detectorsNtB5_20XSSInjectionDetectorNtB7_15PatternDetector6detect
FN:305,_RNvXs9_NtCs6ew6Blb7sDz_18code_guardian_core13llm_detectorsNtB5_26FilesystemSecurityDetectorNtB7_15PatternDetector6detect
FN:154,_RNvXs_NtCs6ew6Blb7sDz_18code_guardian_core13llm_detectorsNtB4_23LLMSQLInjectionDetectorNtB6_15PatternDetector6detect
FN:319,_RNvXsa_NtCs6ew6Blb7sDz_18code_guardian_core13llm_detectorsNtB5_25ConfigAntipatternDetectorNtB7_15PatternDetector6detect
FN:333,_RNvXsb_NtCs6ew6Blb7sDz_18code_guardian_core13llm_detectorsNtB5_19JSLLMIssuesDetectorNtB7_15PatternDetector6detect
FN:356,_RNvXsc_NtCs6ew6Blb7sDz_18code_guardian_core13llm_detectorsNtB5_23PythonLLMIssuesDetectorNtB7_15PatternDetector6detect
FN:375,_RNvXsd_NtCs6ew6Blb7sDz_18code_guardian_core13llm_detectorsNtB5_24ContextConfusionDetectorNtB7_15PatternDetector6detect
FN:389,_RNvXse_NtCs6ew6Blb7sDz_18code_guardian_core13llm_detectorsNtB5_27DatabaseAntipatternDetectorNtB7_15PatternDetector6detect
FN:403,_RNvXsf_NtCs6ew6Blb7sDz_18code_guardian_core13llm_detectorsNtB5_28LLMGeneratedCommentsDetectorNtB7_15PatternDetector6detect
FN:452,_RNvXsi_NtCs6ew6Blb7sDz_18code_guardian_core13llm_detectorsNtB5_24ComprehensiveLLMDetectorNtB7_15PatternDetector6detect
FN:534,_RNvNtNtCs6ew6Blb7sDz_18code_guardian_core13llm_detectors5testss_27test_js_llm_issues_detector
FN:479,_RNvNtNtCs6ew6Blb7sDz_18code_guardian_core13llm_detectors5testss_27test_sql_injection_detector
FN:595,_RNvNtNtCs6ew6Blb7sDz_18code_guardian_core13llm_detectors5testss_29test_file_extension_filtering
FN:469,_RNvNtNtCs6ew6Blb7sDz_18code_guardian_core13llm_detectors5testss_30test_hallucinated_api_detector
FN:513,_RNvNtNtCs6ew6Blb7sDz_18code_guardian_core13llm_detectors5testss_31test_async_antipattern_detector
FN:554,_RNvNtNtCs6ew6Blb7sDz_18code_guardian_core13llm_detectors5testss_31test_comprehensive_llm_detector
FN:544,_RNvNtNtCs6ew6Blb7sDz_18code_guardian_core13llm_detectors5testss_31test_python_llm_issues_detector
FN:524,_RNvNtNtCs6ew6Blb7sDz_18code_guardian_core13llm_detectors5testss_32test_crypto_antipattern_detector
FN:502,_RNvNtNtCs6ew6Blb7sDz_18code_guardian_core13llm_detectors5testss_32test_rust_memory_safety_detector
FN:585,_RNvNtNtCs6ew6Blb7sDz_18code_guardian_core13llm_detectors5testss_34test_database_antipattern_detector
FN:489,_RNvNtNtCs6ew6Blb7sDz_18code_guardian_core13llm_detectors5testss_35test_hardcoded_credentials_detector
FN:575,_RNvNtNtCs6ew6Blb7sDz_18code_guardian_core13llm_detectors5testss_36test_llm_generated_comments_detector
FNDA:0,_RNvMsg_NtCslCYtQ1Dl4P0_18code_guardian_core13llm_detectorsNtB5_24ComprehensiveLLMDetector3new
FNDA:0,_RNvNtCslCYtQ1Dl4P0_18code_guardian_core13llm_detectors27detect_pattern_with_context
FNDA:0,_RNvXNtCslCYtQ1Dl4P0_18code_guardian_core13llm_detectorsNtB2_23HallucinatedApiDetectorNtB4_15PatternDetector6detect
FNDA:0,_RNvXs0_NtCslCYtQ1Dl4P0_18code_guardian_core13llm_detectorsNtB5_22InsecureRandomDetectorNtB7_15PatternDetector6detect
FNDA:0,_RNvXs1_NtCslCYtQ1Dl4P0_18code_guardian_core13llm_detectorsNtB5_28HardcodedCredentialsDetectorNtB7_15PatternDetector6detect
FNDA:0,_RNvXs2_NtCslCYtQ1Dl4P0_18code_guardian_core13llm_detectorsNtB5_24RustMemorySafetyDetectorNtB7_15PatternDetector6detect
FNDA:0,_RNvXs3_NtCslCYtQ1Dl4P0_18code_guardian_core13llm_detectorsNtB5_24AsyncAntipatternDetectorNtB7_15PatternDetector6detect
FNDA:0,_RNvXs4_NtCslCYtQ1Dl4P0_18code_guardian_core13llm_detectorsNtB5_30PerformanceAntipatternDetectorNtB7_15PatternDetector6detect
FNDA:0,_RNvXs5_NtCslCYtQ1Dl4P0_18code_guardian_core13llm_detectorsNtB5_21ErrorHandlingDetectorNtB7_15PatternDetector6detect
FNDA:0,_RNvXs6_NtCslCYtQ1Dl4P0_18code_guardian_core13llm_detectorsNtB5_25CryptoAntipatternDetectorNtB7_15PatternDetector6detect
FNDA:0,_RNvXs7_NtCslCYtQ1Dl4P0_18code_guardian_core13llm_detectorsNtB5_23OverengineeringDetectorNtB7_15PatternDetector6detect
FNDA:0,_RNvXs8_NtCslCYtQ1Dl4P0_18code_guardian_core13llm_detectorsNtB5_20XSSInjectionDetectorNtB7_15PatternDetector6detect
FNDA:0,_RNvXs9_NtCslCYtQ1Dl4P0_18code_guardian_core13llm_detectorsNtB5_26FilesystemSecurityDetectorNtB7_15PatternDetector6detect
FNDA:0,_RNvXs_NtCslCYtQ1Dl4P0_18code_guardian_core13llm_detectorsNtB4_23LLMSQLInjectionDetectorNtB6_15PatternDetector6detect
FNDA:0,_RNvXsa_NtCslCYtQ1Dl4P0_18code_guardian_core13llm_detectorsNtB5_25ConfigAntipatternDetectorNtB7_15PatternDetector6detect
FNDA:0,_RNvXsb_NtCslCYtQ1Dl4P0_18code_guardian_core13llm_detectorsNtB5_19JSLLMIssuesDetectorNtB7_15PatternDetector6detect
FNDA:0,_RNvXsc_NtCslCYtQ1Dl4P0_18code_guardian_core13llm_detectorsNtB5_23PythonLLMIssuesDetectorNtB7_15PatternDetector6detect
FNDA:0,_RNvXsd_NtCslCYtQ1Dl4P0_18code_guardian_core13llm_detectorsNtB5_24ContextConfusionDetectorNtB7_15PatternDetector6detect
FNDA:0,_RNvXse_NtCslCYtQ1Dl4P0_18code_guardian_core13llm_detectorsNtB5_27DatabaseAntipatternDetectorNtB7_15PatternDetector6detect
FNDA:0,_RNvXsf_NtCslCYtQ1Dl4P0_18code_guardian_core13llm_detectorsNtB5_28LLMGeneratedCommentsDetectorNtB7_15PatternDetector6detect
FNDA:0,_RNvXsh_NtCslCYtQ1Dl4P0_18code_guardian_core13llm_detectorsNtB5_24ComprehensiveLLMDetectorNtNtCs66KPHxksi63_4core7default7Default7default
FNDA:0,_RNvXsi_NtCslCYtQ1Dl4P0_18code_guardian_core13llm_detectorsNtB5_24ComprehensiveLLMDetectorNtB7_15PatternDetector6detect
FNDA:0,_RNvXsh_NtCs6ew6Blb7sDz_18code_guardian_core13llm_detectorsNtB5_24ComprehensiveLLMDetectorNtNtCs66KPHxksi63_4core7default7Default7default
FNDA:1,_RNCNvNtNtCs6ew6Blb7sDz_18code_guardian_core13llm_detectors5testss_30test_hallucinated_api_detector0B7_
FNDA:5,_RNCNvNtNtCs6ew6Blb7sDz_18code_guardian_core13llm_detectors5testss_31test_comprehensive_llm_detector0B7_
FNDA:1,_RNCNvNtNtCs6ew6Blb7sDz_18code_guardian_core13llm_detectors5testss_35test_hardcoded_credentials_detector0B7_
FNDA:3,_RNCNvNtNtCs6ew6Blb7sDz_18code_guardian_core13llm_detectors5testss_36test_llm_generated_comments_detector0B7_
FNDA:1,_RNvMsg_NtCs6ew6Blb7sDz_18code_guardian_core13llm_detectorsNtB5_24ComprehensiveLLMDetector3new
FNDA:31,_RNvNtCs6ew6Blb7sDz_18code_guardian_core13llm_detectors27detect_pattern_with_context
FNDA:2,_RNvXNtCs6ew6Blb7sDz_18code_guardian_core13llm_detectorsNtB2_23HallucinatedApiDetectorNtB4_15PatternDetector6detect
FNDA:1,_RNvXs0_NtCs6ew6Blb7sDz_18code_guardian_core13llm_detectorsNtB5_22InsecureRandomDetectorNtB7_15PatternDetector6detect
FNDA:2,_RNvXs1_NtCs6ew6Blb7sDz_18code_guardian_core13llm_detectorsNtB5_28HardcodedCredentialsDetectorNtB7_15PatternDetector6detect
FNDA:4,_RNvXs2_NtCs6ew6Blb7sDz_18code_guardian_core13llm_detectorsNtB5_24RustMemorySafetyDetectorNtB7_15PatternDetector6detect
FNDA:2,_RNvXs3_NtCs6ew6Blb7sDz_18code_guardian_core13llm_detectorsNtB5_24AsyncAntipatternDetectorNtB7_15PatternDetector6detect
FNDA:1,_RNvXs4_NtCs6ew6Blb7sDz_18code_guardian_core13llm_detectorsNtB5_30PerformanceAntipatternDetectorNtB7_15PatternDetector6detect
FNDA:1,_RNvXs5_NtCs6ew6Blb7sDz_18code_guardian_core13llm_detectorsNtB5_21ErrorHandlingDetectorNtB7_15PatternDetector6detect
FNDA:2,_RNvXs6_NtCs6ew6Blb7sDz_18code_guardian_core13llm_detectorsNtB5_25CryptoAntipatternDetectorNtB7_15PatternDetector6detect
FNDA:1,_RNvXs7_NtCs6ew6Blb7sDz_18code_guardian_core13llm_detectorsNtB5_23OverengineeringDetectorNtB7_15PatternDetector6detect
FNDA:1,_RNvXs8_NtCs6ew6Blb7sDz_18code_guardian_core13llm_detectorsNtB5_20XSSInjectionDetectorNtB7_15PatternDetector6detect
FNDA:1,_RNvXs9_NtCs6ew6Blb7sDz_18code_guardian_core13llm_detectorsNtB5_26FilesystemSecurityDetectorNtB7_15PatternDetector6detect
FNDA:2,_RNvXs_NtCs6ew6Blb7sDz_18code_guardian_core13llm_detectorsNtB4_23LLMSQLInjectionDetectorNtB6_15PatternDetector6detect
FNDA:1,_RNvXsa_NtCs6ew6Blb7sDz_18code_guardian_core13llm_detectorsNtB5_25ConfigAntipatternDetectorNtB7_15PatternDetector6detect
FNDA:4,_RNvXsb_NtCs6ew6Blb7sDz_18code_guardian_core13llm_detectorsNtB5_19JSLLMIssuesDetectorNtB7_15PatternDetector6detect
FNDA:4,_RNvXsc_NtCs6ew6Blb7sDz_18code_guardian_core13llm_detectorsNtB5_23PythonLLMIssuesDetectorNtB7_15PatternDetector6detect
FNDA:1,_RNvXsd_NtCs6ew6Blb7sDz_18code_guardian_core13llm_detectorsNtB5_24ContextConfusionDetectorNtB7_15PatternDetector6detect
FNDA:2,_RNvXse_NtCs6ew6Blb7sDz_18code_guardian_core13llm_detectorsNtB5_27DatabaseAntipatternDetectorNtB7_15PatternDetector6detect
FNDA:2,_RNvXsf_NtCs6ew6Blb7sDz_18code_guardian_core13llm_detectorsNtB5_28LLMGeneratedCommentsDetectorNtB7_15PatternDetector6detect
FNDA:1,_RNvXsi_NtCs6ew6Blb7sDz_18code_guardian_core13llm_detectorsNtB5_24ComprehensiveLLMDetectorNtB7_15PatternDetector6detect
FNDA:1,_RNvNtNtCs6ew6Blb7sDz_18code_guardian_core13llm_detectors5testss_27test_js_llm_issues_detector
FNDA:1,_RNvNtNtCs6ew6Blb7sDz_18code_guardian_core13llm_detectors5testss_27test_sql_injection_detector
FNDA:1,_RNvNtNtCs6ew6Blb7sDz_18code_guardian_core13llm_detectors5testss_29test_file_extension_filtering
FNDA:1,_RNvNtNtCs6ew6Blb7sDz_18code_guardian_core13llm_detectors5testss_30test_hallucinated_api_detector
FNDA:1,_RNvNtNtCs6ew6Blb7sDz_18code_guardian_core13llm_detectors5testss_31test_async_antipattern_detector
FNDA:1,_RNvNtNtCs6ew6Blb7sDz_18code_guardian_core13llm_detectors5testss_31test_comprehensive_llm_detector
FNDA:1,_RNvNtNtCs6ew6Blb7sDz_18code_guardian_core13llm_detectors5testss_31test_python_llm_issues_detector
FNDA:1,_RNvNtNtCs6ew6Blb7sDz_18code_guardian_core13llm_detectors5testss_32test_crypto_antipattern_detector
FNDA:1,_RNvNtNtCs6ew6Blb7sDz_18code_guardian_core13llm_detectors5testss_32test_rust_memory_safety_detector
FNDA:1,_RNvNtNtCs6ew6Blb7sDz_18code_guardian_core13llm_detectors5testss_34test_database_antipattern_detector
FNDA:1,_RNvNtNtCs6ew6Blb7sDz_18code_guardian_core13llm_detectors5testss_35test_hardcoded_credentials_detector
FNDA:1,_RNvNtNtCs6ew6Blb7sDz_18code_guardian_core13llm_detectors5testss_36test_llm_generated_comments_detector
FNF:38
FNH:37
DA:102,31
DA:103,31
DA:104,31
DA:105,31
DA:106,31
DA:107,31
DA:108,31
DA:109,119
DA:110,119
DA:111,31
DA:112,31
DA:113,31
DA:114,31
DA:115,31
DA:116,31
DA:117,31
DA:118,31
DA:119,31
DA:120,31
DA:121,31
DA:122,31
DA:124,31
DA:125,31
DA:131,2
DA:132,2
DA:133,2
DA:134,2
DA:135,2
DA:136,2
DA:139,2
DA:140,2
DA:141,2
DA:142,2
DA:143,2
DA:146,2
DA:147,2
DA:154,2
DA:155,2
DA:156,2
DA:157,2
DA:158,2
DA:159,2
DA:161,2
DA:168,1
DA:169,1
DA:170,1
DA:171,1
DA:172,1
DA:173,1
DA:175,1
DA:182,2
DA:183,2
DA:184,2
DA:185,2
DA:186,2
DA:187,2
DA:189,2
DA:196,4
DA:197,4
DA:198,4
DA:199,2
DA:200,2
DA:201,2
DA:202,2
DA:203,2
DA:205,2
DA:206,0
DA:207,2
DA:208,4
DA:215,2
DA:216,2
DA:217,2
DA:218,2
DA:219,2
DA:220,2
DA:221,2
DA:222,2
DA:223,2
DA:225,0
DA:226,0
DA:227,0
DA:228,2
DA:235,1
DA:236,1
DA:237,1
DA:238,1
DA:239,1
DA:240,1
DA:242,1
DA:249,1
DA:250,1
DA:251,1
DA:252,1
DA:253,1
DA:254,1
DA:256,1
DA:263,2
DA:264,2
DA:265,2
DA:266,2
DA:267,2
DA:268,2
DA:270,2
DA:277,1
DA:278,1
DA:279,1
DA:280,1
DA:281,1
DA:282,1
DA:284,1
DA:291,1
DA:292,1
DA:293,1
DA:294,1
DA:295,1
DA:296,1
DA:298,1
DA:305,1
DA:306,1
DA:307,1
DA:308,1
DA:309,1
DA:310,1
DA:312,1
DA:319,1
DA:320,1
DA:321,1
DA:322,1
DA:323,1
DA:324,1
DA:326,1
DA:333,4
DA:334,4
DA:335,4
DA:336,3
DA:337,4
DA:338,4
DA:340,3
DA:341,3
DA:342,3
DA:343,3
DA:344,3
DA:346,1
DA:347,0
DA:348,1
DA:349,4
DA:356,4
DA:357,4
DA:358,4
DA:359,2
DA:360,2
DA:361,2
DA:362,2
DA:363,2
DA:365,2
DA:366,0
DA:367,2
DA:368,4
DA:375,1
DA:376,1
DA:377,1
DA:378,1
DA:379,1
DA:380,1
DA:382,1
DA:389,2
DA:390,2
DA:391,2
DA:392,2
DA:393,2
DA:394,2
DA:396,2
DA:403,2
DA:404,2
DA:405,2
DA:406,2
DA:407,2
DA:408,2
DA:410,2
DA:419,1
DA:420,1
DA:421,1
DA:422,1
DA:423,1
DA:424,1
DA:425,1
DA:426,1
DA:427,1
DA:428,1
DA:429,1
DA:430,1
DA:431,1
DA:432,1
DA:433,1
DA:434,1
DA:435,1
DA:436,1
DA:437,1
DA:438,1
DA:441,1
DA:442,1
DA:446,0
DA:447,0
DA:448,0
DA:452,1
DA:453,1
DA:455,19
DA:456,18
DA:457,18
DA:459,1
DA:460,1
DA:469,1
DA:470,1
DA:471,1
DA:472,1
DA:473,1
DA:474,1
DA:475,1
DA:476,1
DA:479,1
DA:480,1
DA:481,1
DA:482,1
DA:483,1
DA:484,1
DA:485,1
DA:486,1
DA:489,1
DA:490,1
DA:491,1
DA:492,1
DA:493,1
DA:494,1
DA:495,1
DA:496,1
DA:497,1
DA:498,1
DA:499,1
DA:502,1
DA:503,1
DA:504,1
DA:505,1
DA:506,1
DA:507,1
DA:508,1
DA:509,1
DA:510,1
DA:513,1
DA:514,1
DA:515,1
DA:516,1
DA:517,1
DA:518,1
DA:519,1
DA:520,1
DA:521,1
DA:524,1
DA:525,1
DA:526,1
DA:527,1
DA:528,1
DA:529,1
DA:530,1
DA:531,1
DA:534,1
DA:535,1
DA:536,1
DA:537,1
DA:538,1
DA:539,1
DA:540,1
DA:541,1
DA:544,1
DA:545,1
DA:546,1
DA:547,1
DA:548,1
DA:549,1
DA:550,1
DA:551,1
DA:554,1
DA:555,1
DA:556,1
DA:557,1
DA:558,1
DA:559,1
DA:560,1
DA:561,1
DA:562,1
DA:563,1
DA:566,1
DA:568,5
DA:569,1
DA:570,1
DA:571,1
DA:572,1
DA:575,1
DA:576,1
DA:577,1
DA:578,1
DA:579,1
DA:580,1
DA:581,3
DA:582,1
DA:585,1
DA:586,1
DA:587,1
DA:588,1
DA:589,1
DA:590,1
DA:591,1
DA:592,1
DA:595,1
DA:596,1
DA:597,1
DA:598,1
DA:600,1
DA:602,1
DA:603,1
DA:604,1
DA:605,1
DA:608,1
DA:609,1
DA:612,1
DA:613,1
DA:616,1
DA:617,1
DA:618,1
BRF:0
BRH:0
LF:332
LH:323
end_of_record
SF:/workspaces/code-guardian/crates/core/src/monitoring.rs
FN:52,_RNCNvMNtCslCYtQ1Dl4P0_18code_guardian_core10monitoringNtB4_18PerformanceMonitor13end_operation0Cs16s6DcJnmvZ_17code_guardian_cli
FN:88,_RNCNvMNtCslCYtQ1Dl4P0_18code_guardian_core10monitoringNtB4_18PerformanceMonitor15collect_metrics0Cs16s6DcJnmvZ_17code_guardian_cli
FN:52,_RNvMNtCslCYtQ1Dl4P0_18code_guardian_core10monitoringNtB2_18PerformanceMonitor13end_operation
FN:138,_RNvMNtCslCYtQ1Dl4P0_18code_guardian_core10monitoringNtB2_18PerformanceMonitor13total_elapsed
FN:88,_RNvMNtCslCYtQ1Dl4P0_18code_guardian_core10monitoringNtB2_18PerformanceMonitor15collect_metrics
FN:46,_RNvMNtCslCYtQ1Dl4P0_18code_guardian_core10monitoringNtB2_18PerformanceMonitor15start_operation
FN:27,_RNvMNtCslCYtQ1Dl4P0_18code_guardian_core10monitoringNtB2_18PerformanceMonitor15with_thresholds
FN:103,_RNvMNtCslCYtQ1Dl4P0_18code_guardian_core10monitoringNtB2_18PerformanceMonitor22start_async_monitoring
FN:22,_RNvMNtCslCYtQ1Dl4P0_18code_guardian_core10monitoringNtB2_18PerformanceMonitor3new
FN:144,_RNvXs_NtCslCYtQ1Dl4P0_18code_guardian_core10monitoringNtB4_18PerformanceMonitorNtNtCs66KPHxksi63_4core7default7Default7default
FN:138,_RNvMNtCs6ew6Blb7sDz_18code_guardian_core10monitoringNtB2_18PerformanceMonitor13total_elapsed
FN:144,_RNvXs_NtCs6ew6Blb7sDz_18code_guardian_core10monitoringNtB4_18PerformanceMonitorNtNtCs66KPHxksi63_4core7default7Default7default
FN:224,_RNvNtNtCs6ew6Blb7sDz_18code_guardian_core10monitoring5testss_24test_monitored_operation
FN:209,_RNvNtNtCs6ew6Blb7sDz_18code_guardian_core10monitoring5testss_24test_performance_monitor
FN:173,_RINvMs0_NtCs6ew6Blb7sDz_18code_guardian_core10monitoringINtB6_18MonitoredOperationNtNtCs8Ty2CzGA6U3_5alloc6string6StringE7executeNCNCNvNtB6_5testss_24test_monitored_operation00NCNCB25_00EB8_
FN:177,_RNCINvMs0_NtCs6ew6Blb7sDz_18code_guardian_core10monitoringINtB8_18MonitoredOperationNtNtCs8Ty2CzGA6U3_5alloc6string6StringE7executeNCNCNvNtB8_5testss_24test_monitored_operation00NCNCB27_00E0Ba_
FN:188,_RNCNCINvMs0_NtCs6ew6Blb7sDz_18code_guardian_core10monitoringINtBa_18MonitoredOperationNtNtCs8Ty2CzGA6U3_5alloc6string6StringE7executeNCNCNvNtBa_5testss_24test_monitored_operation00NCNCB29_00E00Bc_
FN:195,_RNCNCINvMs0_NtCs6ew6Blb7sDz_18code_guardian_core10monitoringINtBa_18MonitoredOperationNtNtCs8Ty2CzGA6U3_5alloc6string6StringE7executeNCNCNvNtBa_5testss_24test_monitored_operation00NCNCB29_00E0s_0Bc_
FN:107,_RNCNCNvMNtCs6ew6Blb7sDz_18code_guardian_core10monitoringNtB6_18PerformanceMonitor22start_async_monitoring00B8_
FN:52,_RNCNvMNtCs6ew6Blb7sDz_18code_guardian_core10monitoringNtB4_18PerformanceMonitor13end_operation0B6_
FN:88,_RNCNvMNtCs6ew6Blb7sDz_18code_guardian_core10monitoringNtB4_18PerformanceMonitor15collect_metrics0B6_
FN:103,_RNCNvMNtCs6ew6Blb7sDz_18code_guardian_core10monitoringNtB4_18PerformanceMonitor22start_async_monitoring0B6_
FN:165,_RNvMs0_NtCs6ew6Blb7sDz_18code_guardian_core10monitoringINtB5_18MonitoredOperationNtNtCs8Ty2CzGA6U3_5alloc6string6StringE3newB7_
FN:52,_RNvMNtCs6ew6Blb7sDz_18code_guardian_core10monitoringNtB2_18PerformanceMonitor13end_operation
FN:88,_RNvMNtCs6ew6Blb7sDz_18code_guardian_core10monitoringNtB2_18PerformanceMonitor15collect_metrics
FN:46,_RNvMNtCs6ew6Blb7sDz_18code_guardian_core10monitoringNtB2_18PerformanceMonitor15start_operation
FN:27,_RNvMNtCs6ew6Blb7sDz_18code_guardian_core10monitoringNtB2_18PerformanceMonitor15with_thresholds
FN:103,_RNvMNtCs6ew6Blb7sDz_18code_guardian_core10monitoringNtB2_18PerformanceMonitor22start_async_monitoring
FN:22,_RNvMNtCs6ew6Blb7sDz_18code_guardian_core10monitoringNtB2_18PerformanceMonitor3new
FN:228,_RNCNCNCNvNtNtCs6ew6Blb7sDz_18code_guardian_core10monitoring5testss_24test_monitored_operation000Bb_
FN:231,_RNCNCNvNtNtCs6ew6Blb7sDz_18code_guardian_core10monitoring5testss_24test_monitored_operation00B9_
FN:224,_RNCNvNtNtCs6ew6Blb7sDz_18code_guardian_core10monitoring5testss_24test_monitored_operation0B7_
FN:209,_RNCNvNtNtCs6ew6Blb7sDz_18code_guardian_core10monitoring5testss_24test_performance_monitor0B7_
FN:52,_RNCNvMNtCslCYtQ1Dl4P0_18code_guardian_core10monitoringNtB4_18PerformanceMonitor13end_operation0CshOKUTiOstO6_26integration_workflow_tests
FN:88,_RNCNvMNtCslCYtQ1Dl4P0_18code_guardian_core10monitoringNtB4_18PerformanceMonitor15collect_metrics0CshOKUTiOstO6_26integration_workflow_tests
FNDA:2,_RNCNvMNtCslCYtQ1Dl4P0_18code_guardian_core10monitoringNtB4_18PerformanceMonitor13end_operation0Cs16s6DcJnmvZ_17code_guardian_cli
FNDA:2,_RNCNvMNtCslCYtQ1Dl4P0_18code_guardian_core10monitoringNtB4_18PerformanceMonitor15collect_metrics0Cs16s6DcJnmvZ_17code_guardian_cli
FNDA:2,_RNvMNtCslCYtQ1Dl4P0_18code_guardian_core10monitoringNtB2_18PerformanceMonitor13end_operation
FNDA:0,_RNvMNtCslCYtQ1Dl4P0_18code_guardian_core10monitoringNtB2_18PerformanceMonitor13total_elapsed
FNDA:2,_RNvMNtCslCYtQ1Dl4P0_18code_guardian_core10monitoringNtB2_18PerformanceMonitor15collect_metrics
FNDA:2,_RNvMNtCslCYtQ1Dl4P0_18code_guardian_core10monitoringNtB2_18PerformanceMonitor15start_operation
FNDA:3,_RNvMNtCslCYtQ1Dl4P0_18code_guardian_core10monitoringNtB2_18PerformanceMonitor15with_thresholds
FNDA:0,_RNvMNtCslCYtQ1Dl4P0_18code_guardian_core10monitoringNtB2_18PerformanceMonitor22start_async_monitoring
FNDA:3,_RNvMNtCslCYtQ1Dl4P0_18code_guardian_core10monitoringNtB2_18PerformanceMonitor3new
FNDA:0,_RNvXs_NtCslCYtQ1Dl4P0_18code_guardian_core10monitoringNtB4_18PerformanceMonitorNtNtCs66KPHxksi63_4core7default7Default7default
FNDA:0,_RNvMNtCs6ew6Blb7sDz_18code_guardian_core10monitoringNtB2_18PerformanceMonitor13total_elapsed
FNDA:0,_RNvXs_NtCs6ew6Blb7sDz_18code_guardian_core10monitoringNtB4_18PerformanceMonitorNtNtCs66KPHxksi63_4core7default7Default7default
FNDA:1,_RNvNtNtCs6ew6Blb7sDz_18code_guardian_core10monitoring5testss_24test_monitored_operation
FNDA:1,_RNvNtNtCs6ew6Blb7sDz_18code_guardian_core10monitoring5testss_24test_performance_monitor
FNDA:1,_RINvMs0_NtCs6ew6Blb7sDz_18code_guardian_core10monitoringINtB6_18MonitoredOperationNtNtCs8Ty2CzGA6U3_5alloc6string6StringE7executeNCNCNvNtB6_5testss_24test_monitored_operation00NCNCB25_00EB8_
FNDA:1,_RNCINvMs0_NtCs6ew6Blb7sDz_18code_guardian_core10monitoringINtB8_18MonitoredOperationNtNtCs8Ty2CzGA6U3_5alloc6string6StringE7executeNCNCNvNtB8_5testss_24test_monitored_operation00NCNCB27_00E0Ba_
FNDA:0,_RNCNCINvMs0_NtCs6ew6Blb7sDz_18code_guardian_core10monitoringINtBa_18MonitoredOperationNtNtCs8Ty2CzGA6U3_5alloc6string6StringE7executeNCNCNvNtBa_5testss_24test_monitored_operation00NCNCB29_00E00Bc_
FNDA:0,_RNCNCINvMs0_NtCs6ew6Blb7sDz_18code_guardian_core10monitoringINtBa_18MonitoredOperationNtNtCs8Ty2CzGA6U3_5alloc6string6StringE7executeNCNCNvNtBa_5testss_24test_monitored_operation00NCNCB29_00E0s_0Bc_
FNDA:1,_RNCNCNvMNtCs6ew6Blb7sDz_18code_guardian_core10monitoringNtB6_18PerformanceMonitor22start_async_monitoring00B8_
FNDA:2,_RNCNvMNtCs6ew6Blb7sDz_18code_guardian_core10monitoringNtB4_18PerformanceMonitor13end_operation0B6_
FNDA:3,_RNCNvMNtCs6ew6Blb7sDz_18code_guardian_core10monitoringNtB4_18PerformanceMonitor15collect_metrics0B6_
FNDA:1,_RNCNvMNtCs6ew6Blb7sDz_18code_guardian_core10monitoringNtB4_18PerformanceMonitor22start_async_monitoring0B6_
FNDA:1,_RNvMs0_NtCs6ew6Blb7sDz_18code_guardian_core10monitoringINtB5_18MonitoredOperationNtNtCs8Ty2CzGA6U3_5alloc6string6StringE3newB7_
FNDA:2,_RNvMNtCs6ew6Blb7sDz_18code_guardian_core10monitoringNtB2_18PerformanceMonitor13end_operation
FNDA:3,_RNvMNtCs6ew6Blb7sDz_18code_guardian_core10monitoringNtB2_18PerformanceMonitor15collect_metrics
FNDA:2,_RNvMNtCs6ew6Blb7sDz_18code_guardian_core10monitoringNtB2_18PerformanceMonitor15start_operation
FNDA:5,_RNvMNtCs6ew6Blb7sDz_18code_guardian_core10monitoringNtB2_18PerformanceMonitor15with_thresholds
FNDA:1,_RNvMNtCs6ew6Blb7sDz_18code_guardian_core10monitoringNtB2_18PerformanceMonitor22start_async_monitoring
FNDA:5,_RNvMNtCs6ew6Blb7sDz_18code_guardian_core10monitoringNtB2_18PerformanceMonitor3new
FNDA:1,_RNCNCNCNvNtNtCs6ew6Blb7sDz_18code_guardian_core10monitoring5testss_24test_monitored_operation000Bb_
FNDA:1,_RNCNCNvNtNtCs6ew6Blb7sDz_18code_guardian_core10monitoring5testss_24test_monitored_operation00B9_
FNDA:1,_RNCNvNtNtCs6ew6Blb7sDz_18code_guardian_core10monitoring5testss_24test_monitored_operation0B7_
FNDA:1,_RNCNvNtNtCs6ew6Blb7sDz_18code_guardian_core10monitoring5testss_24test_performance_monitor0B7_
FNDA:0,_RNCNvMNtCslCYtQ1Dl4P0_18code_guardian_core10monitoringNtB4_18PerformanceMonitor13end_operation0CshOKUTiOstO6_26integration_workflow_tests
FNDA:0,_RNCNvMNtCslCYtQ1Dl4P0_18code_guardian_core10monitoringNtB4_18PerformanceMonitor15collect_metrics0CshOKUTiOstO6_26integration_workflow_tests
FNF:23
FNH:19
DA:22,8
DA:23,8
DA:24,8
DA:27,8
DA:28,8
DA:29,8
DA:30,8
DA:31,8
DA:32,8
DA:33,8
DA:35,8
DA:36,8
DA:37,8
DA:38,8
DA:39,8
DA:40,8
DA:41,8
DA:42,8
DA:43,8
DA:46,4
DA:47,4
DA:48,4
DA:49,4
DA:52,4
DA:53,4
DA:54,4
DA:55,0
DA:58,4
DA:59,4
DA:60,0
DA:65,4
DA:66,0
DA:67,0
DA:70,4
DA:71,4
DA:72,4
DA:73,0
DA:76,0
DA:77,4
DA:78,0
DA:79,0
DA:82,4
DA:84,4
DA:85,4
DA:88,5
DA:89,5
DA:90,5
DA:92,5
DA:93,5
DA:95,5
DA:96,5
DA:97,5
DA:98,5
DA:99,5
DA:100,5
DA:103,1
DA:104,1
DA:105,1
DA:107,1
DA:108,1
DA:109,1
DA:112,2
DA:114,1
DA:115,1
DA:116,0
DA:117,0
DA:120,0
DA:121,1
DA:123,1
DA:124,1
DA:126,1
DA:127,1
DA:129,1
DA:130,0
DA:134,0
DA:135,1
DA:138,0
DA:139,0
DA:140,0
DA:144,0
DA:145,0
DA:146,0
DA:165,1
DA:166,1
DA:167,1
DA:168,1
DA:169,1
DA:170,1
DA:171,1
DA:173,1
DA:174,1
DA:175,1
DA:176,1
DA:177,1
DA:178,1
DA:181,1
DA:182,1
DA:183,1
DA:186,1
DA:187,1
DA:188,1
DA:189,0
DA:190,0
DA:194,0
DA:195,1
DA:197,1
DA:199,1
DA:200,1
DA:209,1
DA:210,1
DA:211,1
DA:213,1
DA:215,1
DA:216,1
DA:218,1
DA:219,1
DA:220,1
DA:221,1
DA:224,1
DA:225,1
DA:227,1
DA:228,1
DA:229,1
DA:230,1
DA:231,2
DA:232,1
DA:234,1
DA:235,1
DA:236,1
BRF:0
BRH:0
LF:142
LH:117
end_of_record
SF:/workspaces/code-guardian/crates/core/src/optimized_scanner.rs
FN:231,_RINvMs_NtCslCYtQ1Dl4P0_18code_guardian_core17optimized_scannerNtB5_16StreamingScanner14scan_streamingNCNCNvNtCs16s6DcJnmvZ_17code_guardian_cli13scan_handlers11handle_scan0s0_0EB1J_
FN:231,_RINvMs_NtCslCYtQ1Dl4P0_18code_guardian_core17optimized_scannerNtB5_16StreamingScanner14scan_streamingNCNvNtCs16s6DcJnmvZ_17code_guardian_cli9benchmark13run_benchmark0EB1H_
FN:246,_RNCINvMs_NtCslCYtQ1Dl4P0_18code_guardian_core17optimized_scannerNtB7_16StreamingScanner14scan_streamingNCNCNvNtCs16s6DcJnmvZ_17code_guardian_cli13scan_handlers11handle_scan0s0_0E0B1L_
FN:246,_RNCINvMs_NtCslCYtQ1Dl4P0_18code_guardian_core17optimized_scannerNtB7_16StreamingScanner14scan_streamingNCNvNtCs16s6DcJnmvZ_17code_guardian_cli9benchmark13run_benchmark0E0B1J_
FN:211,_RNvMNtCslCYtQ1Dl4P0_18code_guardian_core17optimized_scannerNtB2_16OptimizedScanner11cache_stats
FN:205,_RNvMNtCslCYtQ1Dl4P0_18code_guardian_core17optimized_scannerNtB2_16OptimizedScanner11clear_cache
FN:175,_RNvMNtCslCYtQ1Dl4P0_18code_guardian_core17optimized_scannerNtB2_16OptimizedScanner12cache_result
FN:47,_RNvMNtCslCYtQ1Dl4P0_18code_guardian_core17optimized_scannerNtB2_16OptimizedScanner14scan_optimized
FN:41,_RNvMNtCslCYtQ1Dl4P0_18code_guardian_core17optimized_scannerNtB2_16OptimizedScanner15with_cache_size
FN:128,_RNvMNtCslCYtQ1Dl4P0_18code_guardian_core17optimized_scannerNtB2_16OptimizedScanner16should_scan_file
FN:155,_RNvMNtCslCYtQ1Dl4P0_18code_guardian_core17optimized_scannerNtB2_16OptimizedScanner17get_cached_result
FN:31,_RNvMNtCslCYtQ1Dl4P0_18code_guardian_core17optimized_scannerNtB2_16OptimizedScanner3new
FN:283,_RNvMs_NtCslCYtQ1Dl4P0_18code_guardian_core17optimized_scannerNtB4_16StreamingScanner13process_batch
FN:223,_RNvMs_NtCslCYtQ1Dl4P0_18code_guardian_core17optimized_scannerNtB4_16StreamingScanner3new
FN:95,_RNCNCNvMNtCslCYtQ1Dl4P0_18code_guardian_core17optimized_scannerNtB6_16OptimizedScanner14scan_optimized00B8_
FN:101,_RNCNCNvMNtCslCYtQ1Dl4P0_18code_guardian_core17optimized_scannerNtB6_16OptimizedScanner14scan_optimized0s_0B8_
FN:293,_RNCNCNvMs_NtCslCYtQ1Dl4P0_18code_guardian_core17optimized_scannerNtB8_16StreamingScanner13process_batch00Ba_
FN:183,_RNCNvMNtCslCYtQ1Dl4P0_18code_guardian_core17optimized_scannerNtB4_16OptimizedScanner12cache_result0B6_
FN:195,_RNCNvMNtCslCYtQ1Dl4P0_18code_guardian_core17optimized_scannerNtB4_16OptimizedScanner12cache_results_0B6_
FN:59,_RNCNvMNtCslCYtQ1Dl4P0_18code_guardian_core17optimized_scannerNtB4_16OptimizedScanner14scan_optimized0B6_
FN:130,_RNCNvMNtCslCYtQ1Dl4P0_18code_guardian_core17optimized_scannerNtB4_16OptimizedScanner16should_scan_file0B6_
FN:286,_RNCNvMs_NtCslCYtQ1Dl4P0_18code_guardian_core17optimized_scannerNtB6_16StreamingScanner13process_batch0B8_
FN:300,_RNCNvMs_NtCslCYtQ1Dl4P0_18code_guardian_core17optimized_scannerNtB6_16StreamingScanner13process_batchs_0B8_
FN:231,_RINvMs_NtCs6ew6Blb7sDz_18code_guardian_core17optimized_scannerNtB5_16StreamingScanner14scan_streamingpEB7_
FN:246,_RNCINvMs_NtCs6ew6Blb7sDz_18code_guardian_core17optimized_scannerNtB7_16StreamingScanner14scan_streamingpE0B9_
FN:293,_RNCNCNvMs_NtCs6ew6Blb7sDz_18code_guardian_core17optimized_scannerNtB8_16StreamingScanner13process_batch00Ba_
FN:286,_RNCNvMs_NtCs6ew6Blb7sDz_18code_guardian_core17optimized_scannerNtB6_16StreamingScanner13process_batch0B8_
FN:300,_RNCNvMs_NtCs6ew6Blb7sDz_18code_guardian_core17optimized_scannerNtB6_16StreamingScanner13process_batchs_0B8_
FN:211,_RNvMNtCs6ew6Blb7sDz_18code_guardian_core17optimized_scannerNtB2_16OptimizedScanner11cache_stats
FN:205,_RNvMNtCs6ew6Blb7sDz_18code_guardian_core17optimized_scannerNtB2_16OptimizedScanner11clear_cache
FN:41,_RNvMNtCs6ew6Blb7sDz_18code_guardian_core17optimized_scannerNtB2_16OptimizedScanner15with_cache_size
FN:283,_RNvMs_NtCs6ew6Blb7sDz_18code_guardian_core17optimized_scannerNtB4_16StreamingScanner13process_batch
FN:223,_RNvMs_NtCs6ew6Blb7sDz_18code_guardian_core17optimized_scannerNtB4_16StreamingScanner3new
FN:95,_RNCNCNvMNtCs6ew6Blb7sDz_18code_guardian_core17optimized_scannerNtB6_16OptimizedScanner14scan_optimized00B8_
FN:101,_RNCNCNvMNtCs6ew6Blb7sDz_18code_guardian_core17optimized_scannerNtB6_16OptimizedScanner14scan_optimized0s_0B8_
FN:183,_RNCNvMNtCs6ew6Blb7sDz_18code_guardian_core17optimized_scannerNtB4_16OptimizedScanner12cache_result0B6_
FN:195,_RNCNvMNtCs6ew6Blb7sDz_18code_guardian_core17optimized_scannerNtB4_16OptimizedScanner12cache_results_0B6_
FN:59,_RNCNvMNtCs6ew6Blb7sDz_18code_guardian_core17optimized_scannerNtB4_16OptimizedScanner14scan_optimized0B6_
FN:130,_RNCNvMNtCs6ew6Blb7sDz_18code_guardian_core17optimized_scannerNtB4_16OptimizedScanner16should_scan_file0B6_
FN:175,_RNvMNtCs6ew6Blb7sDz_18code_guardian_core17optimized_scannerNtB2_16OptimizedScanner12cache_result
FN:47,_RNvMNtCs6ew6Blb7sDz_18code_guardian_core17optimized_scannerNtB2_16OptimizedScanner14scan_optimized
FN:128,_RNvMNtCs6ew6Blb7sDz_18code_guardian_core17optimized_scannerNtB2_16OptimizedScanner16should_scan_file
FN:155,_RNvMNtCs6ew6Blb7sDz_18code_guardian_core17optimized_scannerNtB2_16OptimizedScanner17get_cached_result
FN:31,_RNvMNtCs6ew6Blb7sDz_18code_guardian_core17optimized_scannerNtB2_16OptimizedScanner3new
FN:331,_RNvNtNtCs6ew6Blb7sDz_18code_guardian_core17optimized_scanner5testss_12test_caching
FN:314,_RNvNtNtCs6ew6Blb7sDz_18code_guardian_core17optimized_scanner5testss_22test_optimized_scanner
FN:231,_RINvMs_NtCslCYtQ1Dl4P0_18code_guardian_core17optimized_scannerNtB5_16StreamingScanner14scan_streamingNCNCNvNtCs5xHA0DhfRKe_17code_guardian_cli13scan_handlers11handle_scan0s0_0ECshOKUTiOstO6_26integration_workflow_tests
FN:246,_RNCINvMs_NtCslCYtQ1Dl4P0_18code_guardian_core17optimized_scannerNtB7_16StreamingScanner14scan_streamingNCNCNvNtCs5xHA0DhfRKe_17code_guardian_cli13scan_handlers11handle_scan0s0_0E0CshOKUTiOstO6_26integration_workflow_tests
FN:231,_RINvMs_NtCslCYtQ1Dl4P0_18code_guardian_core17optimized_scannerNtB5_16StreamingScanner14scan_streamingNCNvNtCs5xHA0DhfRKe_17code_guardian_cli9benchmark13run_benchmark0EB1H_
FN:246,_RNCINvMs_NtCslCYtQ1Dl4P0_18code_guardian_core17optimized_scannerNtB7_16StreamingScanner14scan_streamingNCNvNtCs5xHA0DhfRKe_17code_guardian_cli9benchmark13run_benchmark0E0B1J_
FNDA:0,_RINvMs_NtCslCYtQ1Dl4P0_18code_guardian_core17optimized_scannerNtB5_16StreamingScanner14scan_streamingNCNCNvNtCs16s6DcJnmvZ_17code_guardian_cli13scan_handlers11handle_scan0s0_0EB1J_
FNDA:0,_RINvMs_NtCslCYtQ1Dl4P0_18code_guardian_core17optimized_scannerNtB5_16StreamingScanner14scan_streamingNCNvNtCs16s6DcJnmvZ_17code_guardian_cli9benchmark13run_benchmark0EB1H_
FNDA:0,_RNCINvMs_NtCslCYtQ1Dl4P0_18code_guardian_core17optimized_scannerNtB7_16StreamingScanner14scan_streamingNCNCNvNtCs16s6DcJnmvZ_17code_guardian_cli13scan_handlers11handle_scan0s0_0E0B1L_
FNDA:0,_RNCINvMs_NtCslCYtQ1Dl4P0_18code_guardian_core17optimized_scannerNtB7_16StreamingScanner14scan_streamingNCNvNtCs16s6DcJnmvZ_17code_guardian_cli9benchmark13run_benchmark0E0B1J_
FNDA:0,_RNvMNtCslCYtQ1Dl4P0_18code_guardian_core17optimized_scannerNtB2_16OptimizedScanner11cache_stats
FNDA:0,_RNvMNtCslCYtQ1Dl4P0_18code_guardian_core17optimized_scannerNtB2_16OptimizedScanner11clear_cache
FNDA:3,_RNvMNtCslCYtQ1Dl4P0_18code_guardian_core17optimized_scannerNtB2_16OptimizedScanner12cache_result
FNDA:4,_RNvMNtCslCYtQ1Dl4P0_18code_guardian_core17optimized_scannerNtB2_16OptimizedScanner14scan_optimized
FNDA:3,_RNvMNtCslCYtQ1Dl4P0_18code_guardian_core17optimized_scannerNtB2_16OptimizedScanner15with_cache_size
FNDA:5,_RNvMNtCslCYtQ1Dl4P0_18code_guardian_core17optimized_scannerNtB2_16OptimizedScanner16should_scan_file
FNDA:5,_RNvMNtCslCYtQ1Dl4P0_18code_guardian_core17optimized_scannerNtB2_16OptimizedScanner17get_cached_result
FNDA:4,_RNvMNtCslCYtQ1Dl4P0_18code_guardian_core17optimized_scannerNtB2_16OptimizedScanner3new
FNDA:2,_RNvMs_NtCslCYtQ1Dl4P0_18code_guardian_core17optimized_scannerNtB4_16StreamingScanner13process_batch
FNDA:3,_RNvMs_NtCslCYtQ1Dl4P0_18code_guardian_core17optimized_scannerNtB4_16StreamingScanner3new
FNDA:0,_RNCNCNvMNtCslCYtQ1Dl4P0_18code_guardian_core17optimized_scannerNtB6_16OptimizedScanner14scan_optimized00B8_
FNDA:6,_RNCNCNvMNtCslCYtQ1Dl4P0_18code_guardian_core17optimized_scannerNtB6_16OptimizedScanner14scan_optimized0s_0B8_
FNDA:408,_RNCNCNvMs_NtCslCYtQ1Dl4P0_18code_guardian_core17optimized_scannerNtB8_16StreamingScanner13process_batch00Ba_
FNDA:0,_RNCNvMNtCslCYtQ1Dl4P0_18code_guardian_core17optimized_scannerNtB4_16OptimizedScanner12cache_result0B6_
FNDA:3,_RNCNvMNtCslCYtQ1Dl4P0_18code_guardian_core17optimized_scannerNtB4_16OptimizedScanner12cache_results_0B6_
FNDA:9,_RNCNvMNtCslCYtQ1Dl4P0_18code_guardian_core17optimized_scannerNtB4_16OptimizedScanner14scan_optimized0B6_
FNDA:5,_RNCNvMNtCslCYtQ1Dl4P0_18code_guardian_core17optimized_scannerNtB4_16OptimizedScanner16should_scan_file0B6_
FNDA:18,_RNCNvMs_NtCslCYtQ1Dl4P0_18code_guardian_core17optimized_scannerNtB6_16StreamingScanner13process_batch0B8_
FNDA:16,_RNCNvMs_NtCslCYtQ1Dl4P0_18code_guardian_core17optimized_scannerNtB6_16StreamingScanner13process_batchs_0B8_
FNDA:0,_RINvMs_NtCs6ew6Blb7sDz_18code_guardian_core17optimized_scannerNtB5_16StreamingScanner14scan_streamingpEB7_
FNDA:0,_RNCINvMs_NtCs6ew6Blb7sDz_18code_guardian_core17optimized_scannerNtB7_16StreamingScanner14scan_streamingpE0B9_
FNDA:0,_RNCNCNvMs_NtCs6ew6Blb7sDz_18code_guardian_core17optimized_scannerNtB8_16StreamingScanner13process_batch00Ba_
FNDA:0,_RNCNvMs_NtCs6ew6Blb7sDz_18code_guardian_core17optimized_scannerNtB6_16StreamingScanner13process_batch0B8_
FNDA:0,_RNCNvMs_NtCs6ew6Blb7sDz_18code_guardian_core17optimized_scannerNtB6_16StreamingScanner13process_batchs_0B8_
FNDA:0,_RNvMNtCs6ew6Blb7sDz_18code_guardian_core17optimized_scannerNtB2_16OptimizedScanner11cache_stats
FNDA:0,_RNvMNtCs6ew6Blb7sDz_18code_guardian_core17optimized_scannerNtB2_16OptimizedScanner11clear_cache
FNDA:0,_RNvMNtCs6ew6Blb7sDz_18code_guardian_core17optimized_scannerNtB2_16OptimizedScanner15with_cache_size
FNDA:0,_RNvMs_NtCs6ew6Blb7sDz_18code_guardian_core17optimized_scannerNtB4_16StreamingScanner13process_batch
FNDA:0,_RNvMs_NtCs6ew6Blb7sDz_18code_guardian_core17optimized_scannerNtB4_16StreamingScanner3new
FNDA:0,_RNCNCNvMNtCs6ew6Blb7sDz_18code_guardian_core17optimized_scannerNtB6_16OptimizedScanner14scan_optimized00B8_
FNDA:3,_RNCNCNvMNtCs6ew6Blb7sDz_18code_guardian_core17optimized_scannerNtB6_16OptimizedScanner14scan_optimized0s_0B8_
FNDA:0,_RNCNvMNtCs6ew6Blb7sDz_18code_guardian_core17optimized_scannerNtB4_16OptimizedScanner12cache_result0B6_
FNDA:2,_RNCNvMNtCs6ew6Blb7sDz_18code_guardian_core17optimized_scannerNtB4_16OptimizedScanner12cache_results_0B6_
FNDA:6,_RNCNvMNtCs6ew6Blb7sDz_18code_guardian_core17optimized_scannerNtB4_16OptimizedScanner14scan_optimized0B6_
FNDA:3,_RNCNvMNtCs6ew6Blb7sDz_18code_guardian_core17optimized_scannerNtB4_16OptimizedScanner16should_scan_file0B6_
FNDA:2,_RNvMNtCs6ew6Blb7sDz_18code_guardian_core17optimized_scannerNtB2_16OptimizedScanner12cache_result
FNDA:3,_RNvMNtCs6ew6Blb7sDz_18code_guardian_core17optimized_scannerNtB2_16OptimizedScanner14scan_optimized
FNDA:3,_RNvMNtCs6ew6Blb7sDz_18code_guardian_core17optimized_scannerNtB2_16OptimizedScanner16should_scan_file
FNDA:3,_RNvMNtCs6ew6Blb7sDz_18code_guardian_core17optimized_scannerNtB2_16OptimizedScanner17get_cached_result
FNDA:2,_RNvMNtCs6ew6Blb7sDz_18code_guardian_core17optimized_scannerNtB2_16OptimizedScanner3new
FNDA:1,_RNvNtNtCs6ew6Blb7sDz_18code_guardian_core17optimized_scanner5testss_12test_caching
FNDA:1,_RNvNtNtCs6ew6Blb7sDz_18code_guardian_core17optimized_scanner5testss_22test_optimized_scanner
FNDA:2,_RINvMs_NtCslCYtQ1Dl4P0_18code_guardian_core17optimized_scannerNtB5_16StreamingScanner14scan_streamingNCNCNvNtCs5xHA0DhfRKe_17code_guardian_cli13scan_handlers11handle_scan0s0_0ECshOKUTiOstO6_26integration_workflow_tests
FNDA:21,_RNCINvMs_NtCslCYtQ1Dl4P0_18code_guardian_core17optimized_scannerNtB7_16StreamingScanner14scan_streamingNCNCNvNtCs5xHA0DhfRKe_17code_guardian_cli13scan_handlers11handle_scan0s0_0E0CshOKUTiOstO6_26integration_workflow_tests
FNDA:1,_RINvMs_NtCslCYtQ1Dl4P0_18code_guardian_core17optimized_scannerNtB5_16StreamingScanner14scan_streamingNCNvNtCs5xHA0DhfRKe_17code_guardian_cli9benchmark13run_benchmark0EB1H_
FNDA:0,_RNCINvMs_NtCslCYtQ1Dl4P0_18code_guardian_core17optimized_scannerNtB7_16StreamingScanner14scan_streamingNCNvNtCs5xHA0DhfRKe_17code_guardian_cli9benchmark13run_benchmark0E0B1J_
FNF:23
FNH:19
DA:31,6
DA:32,6
DA:33,6
DA:34,6
DA:35,6
DA:36,6
DA:37,6
DA:38,6
DA:41,3
DA:42,3
DA:43,3
DA:44,3
DA:47,7
DA:48,7
DA:49,7
DA:50,7
DA:51,7
DA:52,7
DA:55,7
DA:56,7
DA:57,7
DA:58,7
DA:59,15
DA:60,15
DA:61,14
DA:63,14
DA:64,6
DA:65,8
DA:67,8
DA:70,8
DA:71,0
DA:72,8
DA:74,8
DA:76,8
DA:79,8
DA:80,1
DA:81,1
DA:82,7
DA:84,7
DA:87,7
DA:88,5
DA:91,5
DA:93,0
DA:94,0
DA:95,0
DA:96,0
DA:99,5
DA:100,5
DA:101,9
DA:102,5
DA:106,5
DA:108,5
DA:109,15
DA:110,7
DA:111,7
DA:113,7
DA:115,7
DA:116,7
DA:117,7
DA:118,7
DA:119,7
DA:120,7
DA:121,7
DA:122,7
DA:124,7
DA:125,7
DA:128,8
DA:130,8
DA:131,8
DA:133,8
DA:135,8
DA:137,8
DA:139,8
DA:140,8
DA:142,0
DA:145,8
DA:146,8
DA:147,0
DA:148,8
DA:149,0
DA:151,8
DA:152,8
DA:155,8
DA:156,8
DA:157,8
DA:158,8
DA:159,1
DA:160,1
DA:161,1
DA:162,1
DA:163,1
DA:165,1
DA:166,1
DA:167,0
DA:168,7
DA:169,0
DA:170,0
DA:171,7
DA:172,8
DA:175,5
DA:177,5
DA:179,0
DA:180,0
DA:181,0
DA:182,0
DA:183,0
DA:184,0
DA:186,0
DA:187,0
DA:188,0
DA:189,5
DA:191,5
DA:192,5
DA:193,5
DA:194,5
DA:195,5
DA:196,5
DA:198,5
DA:199,5
DA:200,0
DA:201,0
DA:202,5
DA:205,0
DA:206,0
DA:207,0
DA:208,0
DA:211,0
DA:212,0
DA:213,0
DA:223,3
DA:224,3
DA:225,3
DA:226,3
DA:227,3
DA:228,3
DA:231,3
DA:232,3
DA:233,3
DA:235,3
DA:236,3
DA:237,3
DA:238,3
DA:240,3
DA:242,3
DA:244,24
DA:245,22
DA:246,21
DA:247,18
DA:249,18
DA:250,0
DA:251,0
DA:252,0
DA:253,0
DA:255,0
DA:256,0
DA:257,18
DA:258,3
DA:262,2
DA:263,2
DA:264,2
DA:265,2
DA:266,2
DA:268,2
DA:269,0
DA:271,2
DA:273,2
DA:274,2
DA:275,2
DA:276,2
DA:277,2
DA:278,2
DA:279,2
DA:280,2
DA:281,3
DA:283,2
DA:284,2
DA:285,2
DA:286,18
DA:287,18
DA:288,16
DA:290,16
DA:291,16
DA:292,16
DA:293,408
DA:294,16
DA:296,16
DA:297,18
DA:298,2
DA:300,16
DA:301,2
DA:303,2
DA:304,2
DA:314,1
DA:315,1
DA:316,1
DA:317,1
DA:319,1
DA:320,1
DA:322,1
DA:323,1
DA:325,1
DA:326,1
DA:327,1
DA:328,1
DA:331,1
DA:332,1
DA:333,1
DA:334,1
DA:336,1
DA:337,1
DA:340,1
DA:343,1
DA:345,1
DA:346,1
DA:347,1
BRF:0
BRH:0
LF:225
LH:187
end_of_record
SF:/workspaces/code-guardian/crates/core/src/performance.rs
FN:55,_RNCNvMNtCslCYtQ1Dl4P0_18code_guardian_core11performanceNtB4_19PerformanceProfiler15operation_count0B6_
FN:48,_RNvMNtCs6ew6Blb7sDz_18code_guardian_core11performanceNtB2_19PerformanceProfiler14total_duration
FN:88,_RNvMNtCs6ew6Blb7sDz_18code_guardian_core11performanceNtB2_19PerformanceProfiler5clear
FN:59,_RNvMNtCs6ew6Blb7sDz_18code_guardian_core11performanceNtB2_19PerformanceProfiler6report
FN:139,_RNvMs0_NtCs6ew6Blb7sDz_18code_guardian_core11performanceNtB5_13MemoryTracker5reset
FN:225,_RNvMs2_NtCs6ew6Blb7sDz_18code_guardian_core11performanceNtB5_18PerformanceMetrics6report
FN:146,_RNvXs1_NtCs6ew6Blb7sDz_18code_guardian_core11performanceNtB5_13MemoryTrackerNtNtCs66KPHxksi63_4core7default7Default7default
FN:95,_RNvXs_NtCs6ew6Blb7sDz_18code_guardian_core11performanceNtB4_19PerformanceProfilerNtNtCs66KPHxksi63_4core7default7Default7default
FN:54,_RNvMNtCs6ew6Blb7sDz_18code_guardian_core11performanceNtB2_19PerformanceProfiler15operation_count
FN:37,_RNvMNtCs6ew6Blb7sDz_18code_guardian_core11performanceNtB2_19PerformanceProfiler16average_duration
FN:26,_RNvMNtCs6ew6Blb7sDz_18code_guardian_core11performanceNtB2_19PerformanceProfiler3end
FN:12,_RNvMNtCs6ew6Blb7sDz_18code_guardian_core11performanceNtB2_19PerformanceProfiler3new
FN:20,_RNvMNtCs6ew6Blb7sDz_18code_guardian_core11performanceNtB2_19PerformanceProfiler5start
FN:124,_RNvMs0_NtCs6ew6Blb7sDz_18code_guardian_core11performanceNtB5_13MemoryTracker10deallocate
FN:134,_RNvMs0_NtCs6ew6Blb7sDz_18code_guardian_core11performanceNtB5_13MemoryTracker10peak_usage
FN:129,_RNvMs0_NtCs6ew6Blb7sDz_18code_guardian_core11performanceNtB5_13MemoryTracker13current_usage
FN:108,_RNvMs0_NtCs6ew6Blb7sDz_18code_guardian_core11performanceNtB5_13MemoryTracker3new
FN:116,_RNvMs0_NtCs6ew6Blb7sDz_18code_guardian_core11performanceNtB5_13MemoryTracker8allocate
FN:177,_RNvMs2_NtCs6ew6Blb7sDz_18code_guardian_core11performanceNtB5_18PerformanceMetrics9calculate
FN:265,_RNvNtNtCs6ew6Blb7sDz_18code_guardian_core11performance5testss_19test_memory_tracker
FN:282,_RNvNtNtCs6ew6Blb7sDz_18code_guardian_core11performance5testss_24test_performance_metrics
FN:253,_RNvNtNtCs6ew6Blb7sDz_18code_guardian_core11performance5testss_25test_performance_profiler
FN:55,_RNCNvMNtCs6ew6Blb7sDz_18code_guardian_core11performanceNtB4_19PerformanceProfiler15operation_count0B6_
FNDA:0,_RNCNvMNtCslCYtQ1Dl4P0_18code_guardian_core11performanceNtB4_19PerformanceProfiler15operation_count0B6_
FNDA:0,_RNvMNtCs6ew6Blb7sDz_18code_guardian_core11performanceNtB2_19PerformanceProfiler14total_duration
FNDA:0,_RNvMNtCs6ew6Blb7sDz_18code_guardian_core11performanceNtB2_19PerformanceProfiler5clear
FNDA:0,_RNvMNtCs6ew6Blb7sDz_18code_guardian_core11performanceNtB2_19PerformanceProfiler6report
FNDA:0,_RNvMs0_NtCs6ew6Blb7sDz_18code_guardian_core11performanceNtB5_13MemoryTracker5reset
FNDA:0,_RNvMs2_NtCs6ew6Blb7sDz_18code_guardian_core11performanceNtB5_18PerformanceMetrics6report
FNDA:0,_RNvXs1_NtCs6ew6Blb7sDz_18code_guardian_core11performanceNtB5_13MemoryTrackerNtNtCs66KPHxksi63_4core7default7Default7default
FNDA:0,_RNvXs_NtCs6ew6Blb7sDz_18code_guardian_core11performanceNtB4_19PerformanceProfilerNtNtCs66KPHxksi63_4core7default7Default7default
FNDA:1,_RNvMNtCs6ew6Blb7sDz_18code_guardian_core11performanceNtB2_19PerformanceProfiler15operation_count
FNDA:1,_RNvMNtCs6ew6Blb7sDz_18code_guardian_core11performanceNtB2_19PerformanceProfiler16average_duration
FNDA:1,_RNvMNtCs6ew6Blb7sDz_18code_guardian_core11performanceNtB2_19PerformanceProfiler3end
FNDA:1,_RNvMNtCs6ew6Blb7sDz_18code_guardian_core11performanceNtB2_19PerformanceProfiler3new
FNDA:1,_RNvMNtCs6ew6Blb7sDz_18code_guardian_core11performanceNtB2_19PerformanceProfiler5start
FNDA:1,_RNvMs0_NtCs6ew6Blb7sDz_18code_guardian_core11performanceNtB5_13MemoryTracker10deallocate
FNDA:3,_RNvMs0_NtCs6ew6Blb7sDz_18code_guardian_core11performanceNtB5_13MemoryTracker10peak_usage
FNDA:3,_RNvMs0_NtCs6ew6Blb7sDz_18code_guardian_core11performanceNtB5_13MemoryTracker13current_usage
FNDA:1,_RNvMs0_NtCs6ew6Blb7sDz_18code_guardian_core11performanceNtB5_13MemoryTracker3new
FNDA:2,_RNvMs0_NtCs6ew6Blb7sDz_18code_guardian_core11performanceNtB5_13MemoryTracker8allocate
FNDA:1,_RNvMs2_NtCs6ew6Blb7sDz_18code_guardian_core11performanceNtB5_18PerformanceMetrics9calculate
FNDA:1,_RNvNtNtCs6ew6Blb7sDz_18code_guardian_core11performance5testss_19test_memory_tracker
FNDA:1,_RNvNtNtCs6ew6Blb7sDz_18code_guardian_core11performance5testss_24test_performance_metrics
FNDA:1,_RNvNtNtCs6ew6Blb7sDz_18code_guardian_core11performance5testss_25test_performance_profiler
FNDA:1,_RNCNvMNtCs6ew6Blb7sDz_18code_guardian_core11performanceNtB4_19PerformanceProfiler15operation_count0B6_
FNF:22
FNH:15
DA:12,1
DA:13,1
DA:14,1
DA:15,1
DA:16,1
DA:17,1
DA:20,1
DA:21,1
DA:22,1
DA:23,1
DA:26,1
DA:27,1
DA:28,1
DA:29,1
DA:30,1
DA:31,1
DA:32,1
DA:33,1
DA:34,1
DA:37,1
DA:38,1
DA:39,1
DA:40,0
DA:41,1
DA:43,1
DA:44,1
DA:45,1
DA:48,0
DA:49,0
DA:50,0
DA:51,0
DA:54,1
DA:55,1
DA:56,1
DA:59,0
DA:60,0
DA:61,0
DA:63,0
DA:64,0
DA:65,0
DA:66,0
DA:68,0
DA:69,0
DA:70,0
DA:71,0
DA:73,0
DA:74,0
DA:75,0
DA:76,0
DA:77,0
DA:78,0
DA:79,0
DA:80,0
DA:81,0
DA:84,0
DA:85,0
DA:88,0
DA:89,0
DA:90,0
DA:91,0
DA:95,0
DA:96,0
DA:97,0
DA:108,1
DA:109,1
DA:110,1
DA:111,1
DA:112,1
DA:113,1
DA:116,2
DA:117,2
DA:118,2
DA:119,2
DA:120,2
DA:121,2
DA:124,1
DA:125,1
DA:126,1
DA:129,3
DA:130,3
DA:131,3
DA:134,3
DA:135,3
DA:136,3
DA:139,0
DA:140,0
DA:141,0
DA:142,0
DA:146,0
DA:147,0
DA:148,0
DA:177,1
DA:178,1
DA:180,1
DA:181,1
DA:183,0
DA:186,1
DA:187,1
DA:189,0
DA:192,1
DA:193,1
DA:195,0
DA:198,1
DA:199,1
DA:201,0
DA:204,1
DA:207,1
DA:208,1
DA:209,1
DA:211,0
DA:214,1
DA:215,1
DA:216,1
DA:217,1
DA:218,1
DA:219,1
DA:220,1
DA:221,1
DA:222,1
DA:223,1
DA:225,0
DA:226,0
DA:227,0
DA:228,0
DA:229,0
DA:230,0
DA:231,0
DA:232,0
DA:233,0
DA:234,0
DA:235,0
DA:240,0
DA:242,0
DA:244,0
DA:253,1
DA:254,1
DA:256,1
DA:257,1
DA:258,1
DA:260,1
DA:261,1
DA:262,1
DA:265,1
DA:266,1
DA:268,1
DA:269,1
DA:270,1
DA:272,1
DA:273,1
DA:274,1
DA:276,1
DA:277,1
DA:278,1
DA:279,1
DA:282,1
DA:283,1
DA:284,1
DA:285,1
DA:286,1
DA:287,1
DA:288,1
DA:289,1
DA:290,1
DA:291,1
DA:292,1
DA:293,1
DA:295,1
DA:296,1
DA:297,1
DA:298,1
DA:299,1
DA:300,1
BRF:0
BRH:0
LF:173
LH:113
end_of_record
SF:/workspaces/code-guardian/crates/output/src/formatters/csv.rs
FN:9,_RNvXNtNtCsbvVqEwb8lPh_20code_guardian_output10formatters3csvNtB2_12CsvFormatterNtB4_9Formatter6format
FN:87,_RNvNtNtNtCsgoAwM6qtOpT_20code_guardian_output10formatters3csv5testss_17test_csv_escaping
FN:45,_RNvNtNtNtCsgoAwM6qtOpT_20code_guardian_output10formatters3csv5testss_17test_single_match
FN:35,_RNvNtNtNtCsgoAwM6qtOpT_20code_guardian_output10formatters3csv5testss_18test_empty_matches
FN:61,_RNvNtNtNtCsgoAwM6qtOpT_20code_guardian_output10formatters3csv5testss_21test_multiple_matches
FN:117,_RNCNvNtNtNtCsgoAwM6qtOpT_20code_guardian_output10formatters3csv14proptest_tests9arb_match0B9_
FN:9,_RNvXNtNtCsgoAwM6qtOpT_20code_guardian_output10formatters3csvNtB2_12CsvFormatterNtB4_9Formatter6format
FN:108,_RNvNtNtNtCsgoAwM6qtOpT_20code_guardian_output10formatters3csv14proptest_tests9arb_match
FNDA:21,_RNvXNtNtCsbvVqEwb8lPh_20code_guardian_output10formatters3csvNtB2_12CsvFormatterNtB4_9Formatter6format
FNDA:1,_RNvNtNtNtCsgoAwM6qtOpT_20code_guardian_output10formatters3csv5testss_17test_csv_escaping
FNDA:1,_RNvNtNtNtCsgoAwM6qtOpT_20code_guardian_output10formatters3csv5testss_17test_single_match
FNDA:1,_RNvNtNtNtCsgoAwM6qtOpT_20code_guardian_output10formatters3csv5testss_18test_empty_matches
FNDA:1,_RNvNtNtNtCsgoAwM6qtOpT_20code_guardian_output10formatters3csv5testss_21test_multiple_matches
FNDA:1165,_RNCNvNtNtNtCsgoAwM6qtOpT_20code_guardian_output10formatters3csv14proptest_tests9arb_match0B9_
FNDA:263,_RNvXNtNtCsgoAwM6qtOpT_20code_guardian_output10formatters3csvNtB2_12CsvFormatterNtB4_9Formatter6format
FNDA:1,_RNvNtNtNtCsgoAwM6qtOpT_20code_guardian_output10formatters3csv14proptest_tests9arb_match
FNF:7
FNH:7
DA:9,284
DA:10,284
DA:11,284
DA:12,284
DA:14,12476
DA:15,12192
DA:16,12192
DA:17,12192
DA:18,12192
DA:19,12192
DA:20,12192
DA:21,12192
DA:22,12192
DA:23,12192
DA:25,284
DA:26,284
DA:27,284
DA:35,1
DA:36,1
DA:37,1
DA:38,1
DA:39,1
DA:40,1
DA:41,1
DA:42,1
DA:45,1
DA:46,1
DA:47,1
DA:48,1
DA:49,1
DA:50,1
DA:51,1
DA:52,1
DA:53,1
DA:54,1
DA:55,1
DA:56,1
DA:57,1
DA:58,1
DA:61,1
DA:62,1
DA:63,1
DA:64,1
DA:65,1
DA:66,1
DA:67,1
DA:68,1
DA:69,1
DA:70,1
DA:71,1
DA:72,1
DA:73,1
DA:74,1
DA:75,1
DA:76,1
DA:77,1
DA:79,1
DA:80,1
DA:81,1
DA:82,1
DA:83,1
DA:84,1
DA:87,1
DA:88,1
DA:89,1
DA:90,1
DA:91,1
DA:92,1
DA:93,1
DA:94,1
DA:95,1
DA:96,1
DA:97,1
DA:98,1
DA:99,1
DA:100,1
DA:108,1
DA:109,1
DA:110,1
DA:111,1
DA:112,1
DA:113,1
DA:114,1
DA:115,1
DA:116,1
DA:117,1165
DA:118,1165
DA:119,1165
DA:120,1165
DA:121,1165
DA:122,1165
DA:123,1
BRF:0
BRH:0
LF:92
LH:92
end_of_record
SF:/workspaces/code-guardian/crates/output/src/formatters/html.rs
FN:66,_RNvNtNtCsbvVqEwb8lPh_20code_guardian_output10formatters4html11html_escape
FN:9,_RNvXNtNtCsbvVqEwb8lPh_20code_guardian_output10formatters4htmlNtB2_13HtmlFormatterNtB4_9Formatter6format
FN:163,_RNCNvNtNtNtCsgoAwM6qtOpT_20code_guardian_output10formatters4html14proptest_tests9arb_match0B9_
FN:66,_RNvNtNtCsgoAwM6qtOpT_20code_guardian_output10formatters4html11html_escape
FN:9,_RNvXNtNtCsgoAwM6qtOpT_20code_guardian_output10formatters4htmlNtB2_13HtmlFormatterNtB4_9Formatter6format
FN:108,_RNvNtNtNtCsgoAwM6qtOpT_20code_guardian_output10formatters4html5testss_16test_html_escape
FN:89,_RNvNtNtNtCsgoAwM6qtOpT_20code_guardian_output10formatters4html5testss_17test_single_match
FN:79,_RNvNtNtNtCsgoAwM6qtOpT_20code_guardian_output10formatters4html5testss_18test_empty_matches
FN:123,_RNvNtNtNtCsgoAwM6qtOpT_20code_guardian_output10formatters4html5testss_21test_multiple_matches
FN:154,_RNvNtNtNtCsgoAwM6qtOpT_20code_guardian_output10formatters4html14proptest_tests9arb_match
FNDA:33060,_RNvNtNtCsbvVqEwb8lPh_20code_guardian_output10formatters4html11html_escape
FNDA:21,_RNvXNtNtCsbvVqEwb8lPh_20code_guardian_output10formatters4htmlNtB2_13HtmlFormatterNtB4_9Formatter6format
FNDA:1136,_RNCNvNtNtNtCsgoAwM6qtOpT_20code_guardian_output10formatters4html14proptest_tests9arb_match0B9_
FNDA:3429,_RNvNtNtCsgoAwM6qtOpT_20code_guardian_output10formatters4html11html_escape
FNDA:263,_RNvXNtNtCsgoAwM6qtOpT_20code_guardian_output10formatters4htmlNtB2_13HtmlFormatterNtB4_9Formatter6format
FNDA:1,_RNvNtNtNtCsgoAwM6qtOpT_20code_guardian_output10formatters4html5testss_16test_html_escape
FNDA:1,_RNvNtNtNtCsgoAwM6qtOpT_20code_guardian_output10formatters4html5testss_17test_single_match
FNDA:1,_RNvNtNtNtCsgoAwM6qtOpT_20code_guardian_output10formatters4html5testss_18test_empty_matches
FNDA:1,_RNvNtNtNtCsgoAwM6qtOpT_20code_guardian_output10formatters4html5testss_21test_multiple_matches
FNDA:1,_RNvNtNtNtCsgoAwM6qtOpT_20code_guardian_output10formatters4html14proptest_tests9arb_match
FNF:8
FNH:8
DA:9,284
DA:10,284
DA:38,284
DA:39,23
DA:40,23
DA:41,12424
DA:42,12163
DA:43,12163
DA:44,12163
DA:45,12163
DA:46,12163
DA:47,12163
DA:48,12163
DA:49,12163
DA:50,12163
DA:53,284
DA:54,284
DA:55,284
DA:56,284
DA:57,284
DA:58,284
DA:61,284
DA:62,284
DA:66,36489
DA:67,36489
DA:68,36489
DA:69,36489
DA:70,36489
DA:71,36489
DA:72,36489
DA:79,1
DA:80,1
DA:81,1
DA:82,1
DA:83,1
DA:84,1
DA:85,1
DA:86,1
DA:89,1
DA:90,1
DA:91,1
DA:92,1
DA:93,1
DA:94,1
DA:95,1
DA:96,1
DA:97,1
DA:98,1
DA:99,1
DA:100,1
DA:101,1
DA:102,1
DA:103,1
DA:104,1
DA:105,1
DA:108,1
DA:109,1
DA:110,1
DA:111,1
DA:112,1
DA:113,1
DA:114,1
DA:115,1
DA:116,1
DA:117,1
DA:118,1
DA:119,1
DA:120,1
DA:123,1
DA:124,1
DA:125,1
DA:126,1
DA:127,1
DA:128,1
DA:129,1
DA:130,1
DA:131,1
DA:132,1
DA:133,1
DA:134,1
DA:135,1
DA:136,1
DA:137,1
DA:138,1
DA:139,1
DA:141,1
DA:142,1
DA:143,1
DA:144,1
DA:145,1
DA:146,1
DA:154,1
DA:155,1
DA:156,1
DA:157,1
DA:158,1
DA:159,1
DA:160,1
DA:161,1
DA:162,1
DA:163,1136
DA:164,1136
DA:165,1136
DA:166,1136
DA:167,1136
DA:168,1136
DA:169,1
BRF:0
BRH:0
LF:107
LH:107
end_of_record
SF:/workspaces/code-guardian/crates/output/src/formatters/json.rs
FN:9,_RNvXNtNtCsbvVqEwb8lPh_20code_guardian_output10formatters4jsonNtB2_13JsonFormatterNtB4_9Formatter6format
FN:10,_RNCNvXNtNtCsbvVqEwb8lPh_20code_guardian_output10formatters4jsonNtB4_13JsonFormatterNtB6_9Formatter6format0B8_
FN:10,_RNCNvXNtNtCsgoAwM6qtOpT_20code_guardian_output10formatters4jsonNtB4_13JsonFormatterNtB6_9Formatter6format0B8_
FN:81,_RNvNtNtNtCsgoAwM6qtOpT_20code_guardian_output10formatters4json14proptest_tests9arb_match
FN:90,_RNCNvNtNtNtCsgoAwM6qtOpT_20code_guardian_output10formatters4json14proptest_tests9arb_match0B9_
FN:9,_RNvXNtNtCsgoAwM6qtOpT_20code_guardian_output10formatters4jsonNtB2_13JsonFormatterNtB4_9Formatter6format
FN:28,_RNvNtNtNtCsgoAwM6qtOpT_20code_guardian_output10formatters4json5testss_17test_single_match
FN:20,_RNvNtNtNtCsgoAwM6qtOpT_20code_guardian_output10formatters4json5testss_18test_empty_matches
FN:51,_RNvNtNtNtCsgoAwM6qtOpT_20code_guardian_output10formatters4json5testss_21test_multiple_matches
FNDA:24,_RNvXNtNtCsbvVqEwb8lPh_20code_guardian_output10formatters4jsonNtB2_13JsonFormatterNtB4_9Formatter6format
FNDA:0,_RNCNvXNtNtCsbvVqEwb8lPh_20code_guardian_output10formatters4jsonNtB4_13JsonFormatterNtB6_9Formatter6format0B8_
FNDA:0,_RNCNvXNtNtCsgoAwM6qtOpT_20code_guardian_output10formatters4jsonNtB4_13JsonFormatterNtB6_9Formatter6format0B8_
FNDA:1,_RNvNtNtNtCsgoAwM6qtOpT_20code_guardian_output10formatters4json14proptest_tests9arb_match
FNDA:1135,_RNCNvNtNtNtCsgoAwM6qtOpT_20code_guardian_output10formatters4json14proptest_tests9arb_match0B9_
FNDA:262,_RNvXNtNtCsgoAwM6qtOpT_20code_guardian_output10formatters4jsonNtB2_13JsonFormatterNtB4_9Formatter6format
FNDA:1,_RNvNtNtNtCsgoAwM6qtOpT_20code_guardian_output10formatters4json5testss_17test_single_match
FNDA:1,_RNvNtNtNtCsgoAwM6qtOpT_20code_guardian_output10formatters4json5testss_18test_empty_matches
FNDA:1,_RNvNtNtNtCsgoAwM6qtOpT_20code_guardian_output10formatters4json5testss_21test_multiple_matches
FNF:7
FNH:6
DA:9,286
DA:10,286
DA:11,286
DA:20,1
DA:21,1
DA:22,1
DA:23,1
DA:24,1
DA:25,1
DA:28,1
DA:29,1
DA:30,1
DA:31,1
DA:32,1
DA:33,1
DA:34,1
DA:35,1
DA:36,1
DA:37,1
DA:38,1
DA:39,1
DA:40,1
DA:41,1
DA:42,1
DA:43,1
DA:44,1
DA:45,1
DA:46,1
DA:47,1
DA:48,1
DA:51,1
DA:52,1
DA:53,1
DA:54,1
DA:55,1
DA:56,1
DA:57,1
DA:58,1
DA:59,1
DA:60,1
DA:61,1
DA:62,1
DA:63,1
DA:64,1
DA:65,1
DA:66,1
DA:67,1
DA:69,1
DA:71,1
DA:72,1
DA:73,1
DA:81,1
DA:82,1
DA:83,1
DA:84,1
DA:85,1
DA:86,1
DA:87,1
DA:88,1
DA:89,1
DA:90,1135
DA:91,1135
DA:92,1135
DA:93,1135
DA:94,1135
DA:95,1135
DA:96,1
BRF:0
BRH:0
LF:68
LH:67
end_of_record
SF:/workspaces/code-guardian/crates/output/src/formatters/markdown.rs
FN:33,_RNvNtNtCsbvVqEwb8lPh_20code_guardian_output10formatters8markdown9escape_md
FN:9,_RNvXNtNtCsbvVqEwb8lPh_20code_guardian_output10formatters8markdownNtB2_17MarkdownFormatterNtB4_9Formatter6format
FN:65,_RNvNtNtNtCsgoAwM6qtOpT_20code_guardian_output10formatters8markdown5testss_17test_escape_pipes
FN:50,_RNvNtNtNtCsgoAwM6qtOpT_20code_guardian_output10formatters8markdown5testss_17test_single_match
FN:42,_RNvNtNtNtCsgoAwM6qtOpT_20code_guardian_output10formatters8markdown5testss_18test_empty_matches
FN:80,_RNvNtNtNtCsgoAwM6qtOpT_20code_guardian_output10formatters8markdown5testss_21test_multiple_matches
FN:120,_RNCNvNtNtNtCsgoAwM6qtOpT_20code_guardian_output10formatters8markdown14proptest_tests9arb_match0B9_
FN:33,_RNvNtNtCsgoAwM6qtOpT_20code_guardian_output10formatters8markdown9escape_md
FN:9,_RNvXNtNtCsgoAwM6qtOpT_20code_guardian_output10formatters8markdownNtB2_17MarkdownFormatterNtB4_9Formatter6format
FN:111,_RNvNtNtNtCsgoAwM6qtOpT_20code_guardian_output10formatters8markdown14proptest_tests9arb_match
FNDA:33060,_RNvNtNtCsbvVqEwb8lPh_20code_guardian_output10formatters8markdown9escape_md
FNDA:21,_RNvXNtNtCsbvVqEwb8lPh_20code_guardian_output10formatters8markdownNtB2_17MarkdownFormatterNtB4_9Formatter6format
FNDA:1,_RNvNtNtNtCsgoAwM6qtOpT_20code_guardian_output10formatters8markdown5testss_17test_escape_pipes
FNDA:1,_RNvNtNtNtCsgoAwM6qtOpT_20code_guardian_output10formatters8markdown5testss_17test_single_match
FNDA:1,_RNvNtNtNtCsgoAwM6qtOpT_20code_guardian_output10formatters8markdown5testss_18test_empty_matches
FNDA:1,_RNvNtNtNtCsgoAwM6qtOpT_20code_guardian_output10formatters8markdown5testss_21test_multiple_matches
FNDA:1275,_RNCNvNtNtNtCsgoAwM6qtOpT_20code_guardian_output10formatters8markdown14proptest_tests9arb_match0B9_
FNDA:3843,_RNvNtNtCsgoAwM6qtOpT_20code_guardian_output10formatters8markdown9escape_md
FNDA:262,_RNvXNtNtCsgoAwM6qtOpT_20code_guardian_output10formatters8markdownNtB2_17MarkdownFormatterNtB4_9Formatter6format
FNDA:1,_RNvNtNtNtCsgoAwM6qtOpT_20code_guardian_output10formatters8markdown14proptest_tests9arb_match
FNF:8
FNH:8
DA:9,283
DA:10,283
DA:11,18
DA:12,265
DA:14,265
DA:15,265
DA:17,12566
DA:18,12301
DA:19,12301
DA:20,12301
DA:21,12301
DA:22,12301
DA:23,12301
DA:24,12301
DA:25,12301
DA:26,12301
DA:28,265
DA:29,283
DA:33,36903
DA:34,36903
DA:35,36903
DA:42,1
DA:43,1
DA:44,1
DA:45,1
DA:46,1
DA:47,1
DA:50,1
DA:51,1
DA:52,1
DA:53,1
DA:54,1
DA:55,1
DA:56,1
DA:57,1
DA:58,1
DA:59,1
DA:60,1
DA:61,1
DA:62,1
DA:65,1
DA:66,1
DA:67,1
DA:68,1
DA:69,1
DA:70,1
DA:71,1
DA:72,1
DA:73,1
DA:74,1
DA:75,1
DA:76,1
DA:77,1
DA:80,1
DA:81,1
DA:82,1
DA:83,1
DA:84,1
DA:85,1
DA:86,1
DA:87,1
DA:88,1
DA:89,1
DA:90,1
DA:91,1
DA:92,1
DA:93,1
DA:94,1
DA:95,1
DA:96,1
DA:98,1
DA:99,1
DA:100,1
DA:101,1
DA:102,1
DA:103,1
DA:111,1
DA:112,1
DA:113,1
DA:114,1
DA:115,1
DA:116,1
DA:117,1
DA:118,1
DA:119,1
DA:120,1275
DA:121,1275
DA:122,1275
DA:123,1275
DA:124,1275
DA:125,1275
DA:126,1
BRF:0
BRH:0
LF:92
LH:92
end_of_record
SF:/workspaces/code-guardian/crates/output/src/formatters/text.rs
FN:9,_RNvXNtNtCsbvVqEwb8lPh_20code_guardian_output10formatters4textNtB2_13TextFormatterNtB4_9Formatter6format
FN:106,_RNvNtNtNtCsgoAwM6qtOpT_20code_guardian_output10formatters4text14proptest_tests9arb_match
FN:38,_RNvNtNtNtCsgoAwM6qtOpT_20code_guardian_output10formatters4text5testss_17test_single_match
FN:30,_RNvNtNtNtCsgoAwM6qtOpT_20code_guardian_output10formatters4text5testss_18test_empty_matches
FN:77,_RNvNtNtNtCsgoAwM6qtOpT_20code_guardian_output10formatters4text5testss_21test_multiple_matches
FN:53,_RNvNtNtNtCsgoAwM6qtOpT_20code_guardian_output10formatters4text5testss_30test_multiple_matches_snapshot
FN:115,_RNCNvNtNtNtCsgoAwM6qtOpT_20code_guardian_output10formatters4text14proptest_tests9arb_match0B9_
FN:9,_RNvXNtNtCsgoAwM6qtOpT_20code_guardian_output10formatters4textNtB2_13TextFormatterNtB4_9Formatter6format
FNDA:43,_RNvXNtNtCsbvVqEwb8lPh_20code_guardian_output10formatters4textNtB2_13TextFormatterNtB4_9Formatter6format
FNDA:1,_RNvNtNtNtCsgoAwM6qtOpT_20code_guardian_output10formatters4text14proptest_tests9arb_match
FNDA:1,_RNvNtNtNtCsgoAwM6qtOpT_20code_guardian_output10formatters4text5testss_17test_single_match
FNDA:1,_RNvNtNtNtCsgoAwM6qtOpT_20code_guardian_output10formatters4text5testss_18test_empty_matches
FNDA:1,_RNvNtNtNtCsgoAwM6qtOpT_20code_guardian_output10formatters4text5testss_21test_multiple_matches
FNDA:1,_RNvNtNtNtCsgoAwM6qtOpT_20code_guardian_output10formatters4text5testss_30test_multiple_matches_snapshot
FNDA:1065,_RNCNvNtNtNtCsgoAwM6qtOpT_20code_guardian_output10formatters4text14proptest_tests9arb_match0B9_
FNDA:262,_RNvXNtNtCsgoAwM6qtOpT_20code_guardian_output10formatters4textNtB2_13TextFormatterNtB4_9Formatter6format
FNF:7
FNH:7
DA:9,305
DA:10,305
DA:11,36
DA:12,269
DA:14,269
DA:15,12489
DA:16,12220
DA:17,12220
DA:18,12220
DA:19,12220
DA:20,12220
DA:21,269
DA:22,305
DA:30,1
DA:31,1
DA:32,1
DA:33,1
DA:34,1
DA:35,1
DA:38,1
DA:39,1
DA:40,1
DA:41,1
DA:42,1
DA:43,1
DA:44,1
DA:45,1
DA:46,1
DA:47,1
DA:48,1
DA:49,1
DA:50,1
DA:53,1
DA:54,1
DA:55,1
DA:56,1
DA:57,1
DA:58,1
DA:59,1
DA:60,1
DA:61,1
DA:62,1
DA:63,1
DA:64,1
DA:65,1
DA:66,1
DA:67,1
DA:68,1
DA:69,1
DA:71,1
DA:72,1
DA:73,1
DA:74,1
DA:77,1
DA:78,1
DA:79,1
DA:80,1
DA:81,1
DA:82,1
DA:83,1
DA:84,1
DA:85,1
DA:86,1
DA:87,1
DA:88,1
DA:89,1
DA:90,1
DA:91,1
DA:92,1
DA:93,1
DA:95,1
DA:96,1
DA:97,1
DA:98,1
DA:106,1
DA:107,1
DA:108,1
DA:109,1
DA:110,1
DA:111,1
DA:112,1
DA:113,1
DA:114,1
DA:115,1065
DA:116,1065
DA:117,1065
DA:118,1065
DA:119,1065
DA:120,1065
DA:121,1
BRF:0
BRH:0
LF:90
LH:90
end_of_record
SF:/workspaces/code-guardian/crates/output/src/lib.rs
FN:10,_RNvNtCsgoAwM6qtOpT_20code_guardian_output5tests19create_test_matches
FN:30,_RNvNtCsgoAwM6qtOpT_20code_guardian_output5testss_31test_all_formatters_integration
FN:67,_RNvNtCsgoAwM6qtOpT_20code_guardian_output5testss_34test_formatters_with_empty_matches
FN:79,_RNvNtCsgoAwM6qtOpT_20code_guardian_output5testss_39test_formatters_with_special_characters
FNDA:1,_RNvNtCsgoAwM6qtOpT_20code_guardian_output5tests19create_test_matches
FNDA:1,_RNvNtCsgoAwM6qtOpT_20code_guardian_output5testss_31test_all_formatters_integration
FNDA:1,_RNvNtCsgoAwM6qtOpT_20code_guardian_output5testss_34test_formatters_with_empty_matches
FNDA:1,_RNvNtCsgoAwM6qtOpT_20code_guardian_output5testss_39test_formatters_with_special_characters
FNF:4
FNH:4
DA:10,1
DA:11,1
DA:12,1
DA:13,1
DA:14,1
DA:15,1
DA:16,1
DA:17,1
DA:18,1
DA:19,1
DA:20,1
DA:21,1
DA:22,1
DA:23,1
DA:24,1
DA:25,1
DA:27,1
DA:30,1
DA:31,1
DA:34,1
DA:35,1
DA:36,1
DA:37,1
DA:40,1
DA:41,1
DA:42,1
DA:43,1
DA:46,1
DA:47,1
DA:48,1
DA:49,1
DA:52,1
DA:53,1
DA:54,1
DA:55,1
DA:56,1
DA:59,1
DA:60,1
DA:61,1
DA:62,1
DA:63,1
DA:64,1
DA:67,1
DA:68,1
DA:71,1
DA:72,1
DA:73,1
DA:74,1
DA:75,1
DA:76,1
DA:79,1
DA:80,1
DA:81,1
DA:82,1
DA:83,1
DA:84,1
DA:85,1
DA:86,1
DA:89,1
DA:90,1
DA:92,1
DA:94,1
DA:96,1
DA:97,1
DA:98,1
BRF:0
BRH:0
LF:65
LH:65
end_of_record
SF:/workspaces/code-guardian/crates/storage/src/lib.rs
FN:48,_RINvMCslgdV8hDacCz_21code_guardian_storageNtB3_20SqliteScanRepository3newRNtNtCsiKSG5X70Gj7_3std4path7PathBufECs16s6DcJnmvZ_17code_guardian_cli
FN:41,_RNvMCslgdV8hDacCz_21code_guardian_storageNtB2_20SqliteScanRepository13new_in_memory
FN:55,_RNvMCslgdV8hDacCz_21code_guardian_storageNtB2_20SqliteScanRepository7init_db
FN:134,_RNvXs_CslgdV8hDacCz_21code_guardian_storageNtB4_20SqliteScanRepositoryNtB4_14ScanRepository11delete_scan
FN:115,_RNvXs_CslgdV8hDacCz_21code_guardian_storageNtB4_20SqliteScanRepositoryNtB4_14ScanRepository13get_all_scans
FN:79,_RNvXs_CslgdV8hDacCz_21code_guardian_storageNtB4_20SqliteScanRepositoryNtB4_14ScanRepository8get_scan
FN:62,_RNvXs_CslgdV8hDacCz_21code_guardian_storageNtB4_20SqliteScanRepositoryNtB4_14ScanRepository9save_scan
FN:48,_RINvMCslgdV8hDacCz_21code_guardian_storageNtB3_20SqliteScanRepository3newpEB3_
FN:119,_RNCNvXs_CslgdV8hDacCz_21code_guardian_storageNtB6_20SqliteScanRepositoryNtB6_14ScanRepository13get_all_scans0B6_
FN:84,_RNCNvXs_CslgdV8hDacCz_21code_guardian_storageNtB6_20SqliteScanRepositoryNtB6_14ScanRepository8get_scan0B6_
FN:97,_RNCNvXs_CslgdV8hDacCz_21code_guardian_storageNtB6_20SqliteScanRepositoryNtB6_14ScanRepository8get_scans_0B6_
FN:48,_RINvMCslgdV8hDacCz_21code_guardian_storageNtB3_20SqliteScanRepository3newRNtNtCsiKSG5X70Gj7_3std4path7PathBufECsgbYFqFx1Zs6_3cli
FN:41,_RNvMCs7nSxj2TE15N_21code_guardian_storageNtB2_20SqliteScanRepository13new_in_memory
FN:55,_RNvMCs7nSxj2TE15N_21code_guardian_storageNtB2_20SqliteScanRepository7init_db
FN:134,_RNvXs_Cs7nSxj2TE15N_21code_guardian_storageNtB4_20SqliteScanRepositoryNtB4_14ScanRepository11delete_scan
FN:115,_RNvXs_Cs7nSxj2TE15N_21code_guardian_storageNtB4_20SqliteScanRepositoryNtB4_14ScanRepository13get_all_scans
FN:79,_RNvXs_Cs7nSxj2TE15N_21code_guardian_storageNtB4_20SqliteScanRepositoryNtB4_14ScanRepository8get_scan
FN:62,_RNvXs_Cs7nSxj2TE15N_21code_guardian_storageNtB4_20SqliteScanRepositoryNtB4_14ScanRepository9save_scan
FN:48,_RINvMCs7nSxj2TE15N_21code_guardian_storageNtB3_20SqliteScanRepository3newRNtNtCsiKSG5X70Gj7_3std4path7PathBufEB3_
FN:119,_RNCNvXs_Cs7nSxj2TE15N_21code_guardian_storageNtB6_20SqliteScanRepositoryNtB6_14ScanRepository13get_all_scans0B6_
FN:84,_RNCNvXs_Cs7nSxj2TE15N_21code_guardian_storageNtB6_20SqliteScanRepositoryNtB6_14ScanRepository8get_scan0B6_
FN:97,_RNCNvXs_Cs7nSxj2TE15N_21code_guardian_storageNtB6_20SqliteScanRepositoryNtB6_14ScanRepository8get_scans_0B6_
FN:201,_RNvNtCs7nSxj2TE15N_21code_guardian_storage5testss_16test_delete_scan
FN:175,_RNvNtCs7nSxj2TE15N_21code_guardian_storage5testss_18test_get_all_scans
FN:221,_RNvNtCs7nSxj2TE15N_21code_guardian_storage5testss_20test_file_based_repo
FN:150,_RNvNtCs7nSxj2TE15N_21code_guardian_storage5testss_22test_save_and_get_scan
FN:248,_RNvNtCs7nSxj2TE15N_21code_guardian_storage14proptest_tests9arb_match
FN:257,_RNCNvNtCs7nSxj2TE15N_21code_guardian_storage14proptest_tests9arb_match0B5_
FN:48,_RINvMCslgdV8hDacCz_21code_guardian_storageNtB3_20SqliteScanRepository3newRNtNtCsiKSG5X70Gj7_3std4path7PathBufECs5xHA0DhfRKe_17code_guardian_cli
FNDA:18,_RINvMCslgdV8hDacCz_21code_guardian_storageNtB3_20SqliteScanRepository3newRNtNtCsiKSG5X70Gj7_3std4path7PathBufECs16s6DcJnmvZ_17code_guardian_cli
FNDA:0,_RNvMCslgdV8hDacCz_21code_guardian_storageNtB2_20SqliteScanRepository13new_in_memory
FNDA:40,_RNvMCslgdV8hDacCz_21code_guardian_storageNtB2_20SqliteScanRepository7init_db
FNDA:0,_RNvXs_CslgdV8hDacCz_21code_guardian_storageNtB4_20SqliteScanRepositoryNtB4_14ScanRepository11delete_scan
FNDA:4,_RNvXs_CslgdV8hDacCz_21code_guardian_storageNtB4_20SqliteScanRepositoryNtB4_14ScanRepository13get_all_scans
FNDA:14,_RNvXs_CslgdV8hDacCz_21code_guardian_storageNtB4_20SqliteScanRepositoryNtB4_14ScanRepository8get_scan
FNDA:29,_RNvXs_CslgdV8hDacCz_21code_guardian_storageNtB4_20SqliteScanRepositoryNtB4_14ScanRepository9save_scan
FNDA:0,_RINvMCslgdV8hDacCz_21code_guardian_storageNtB3_20SqliteScanRepository3newpEB3_
FNDA:4,_RNCNvXs_CslgdV8hDacCz_21code_guardian_storageNtB6_20SqliteScanRepositoryNtB6_14ScanRepository13get_all_scans0B6_
FNDA:13,_RNCNvXs_CslgdV8hDacCz_21code_guardian_storageNtB6_20SqliteScanRepositoryNtB6_14ScanRepository8get_scan0B6_
FNDA:18,_RNCNvXs_CslgdV8hDacCz_21code_guardian_storageNtB6_20SqliteScanRepositoryNtB6_14ScanRepository8get_scans_0B6_
FNDA:9,_RINvMCslgdV8hDacCz_21code_guardian_storageNtB3_20SqliteScanRepository3newRNtNtCsiKSG5X70Gj7_3std4path7PathBufECsgbYFqFx1Zs6_3cli
FNDA:259,_RNvMCs7nSxj2TE15N_21code_guardian_storageNtB2_20SqliteScanRepository13new_in_memory
FNDA:261,_RNvMCs7nSxj2TE15N_21code_guardian_storageNtB2_20SqliteScanRepository7init_db
FNDA:1,_RNvXs_Cs7nSxj2TE15N_21code_guardian_storageNtB4_20SqliteScanRepositoryNtB4_14ScanRepository11delete_scan
FNDA:2,_RNvXs_Cs7nSxj2TE15N_21code_guardian_storageNtB4_20SqliteScanRepositoryNtB4_14ScanRepository13get_all_scans
FNDA:258,_RNvXs_Cs7nSxj2TE15N_21code_guardian_storageNtB4_20SqliteScanRepositoryNtB4_14ScanRepository8get_scan
FNDA:261,_RNvXs_Cs7nSxj2TE15N_21code_guardian_storageNtB4_20SqliteScanRepositoryNtB4_14ScanRepository9save_scan
FNDA:2,_RINvMCs7nSxj2TE15N_21code_guardian_storageNtB3_20SqliteScanRepository3newRNtNtCsiKSG5X70Gj7_3std4path7PathBufEB3_
FNDA:3,_RNCNvXs_Cs7nSxj2TE15N_21code_guardian_storageNtB6_20SqliteScanRepositoryNtB6_14ScanRepository13get_all_scans0B6_
FNDA:257,_RNCNvXs_Cs7nSxj2TE15N_21code_guardian_storageNtB6_20SqliteScanRepositoryNtB6_14ScanRepository8get_scan0B6_
FNDA:1093,_RNCNvXs_Cs7nSxj2TE15N_21code_guardian_storageNtB6_20SqliteScanRepositoryNtB6_14ScanRepository8get_scans_0B6_
FNDA:1,_RNvNtCs7nSxj2TE15N_21code_guardian_storage5testss_16test_delete_scan
FNDA:1,_RNvNtCs7nSxj2TE15N_21code_guardian_storage5testss_18test_get_all_scans
FNDA:1,_RNvNtCs7nSxj2TE15N_21code_guardian_storage5testss_20test_file_based_repo
FNDA:1,_RNvNtCs7nSxj2TE15N_21code_guardian_storage5testss_22test_save_and_get_scan
FNDA:1,_RNvNtCs7nSxj2TE15N_21code_guardian_storage14proptest_tests9arb_match
FNDA:1092,_RNCNvNtCs7nSxj2TE15N_21code_guardian_storage14proptest_tests9arb_match0B5_
FNDA:14,_RINvMCslgdV8hDacCz_21code_guardian_storageNtB3_20SqliteScanRepository3newRNtNtCsiKSG5X70Gj7_3std4path7PathBufECs5xHA0DhfRKe_17code_guardian_cli
FNF:16
FNH:16
DA:41,259
DA:42,259
DA:43,259
DA:44,259
DA:45,259
DA:48,43
DA:49,43
DA:50,42
DA:51,42
DA:52,43
DA:55,301
DA:56,301
DA:57,301
DA:58,301
DA:62,290
DA:63,290
DA:64,290
DA:65,290
DA:66,290
DA:67,290
DA:68,290
DA:69,1519
DA:70,1229
DA:71,1229
DA:72,1229
DA:73,1229
DA:75,290
DA:76,290
DA:77,290
DA:79,272
DA:80,272
DA:81,272
DA:82,272
DA:83,272
DA:84,272
DA:86,270
DA:87,270
DA:88,270
DA:89,270
DA:91,270
DA:92,272
DA:93,272
DA:94,270
DA:95,270
DA:96,0
DA:97,1111
DA:99,1111
DA:100,1111
DA:101,1111
DA:102,1111
DA:103,1111
DA:105,1111
DA:106,1381
DA:107,1111
DA:109,270
DA:111,2
DA:113,272
DA:115,6
DA:116,6
DA:117,6
DA:118,6
DA:119,7
DA:121,7
DA:122,7
DA:123,7
DA:124,7
DA:126,7
DA:127,6
DA:128,13
DA:129,7
DA:131,6
DA:132,6
DA:134,1
DA:135,1
DA:136,1
DA:137,1
DA:138,1
DA:139,1
DA:140,1
DA:150,1
DA:151,1
DA:152,1
DA:153,1
DA:154,1
DA:155,1
DA:156,1
DA:157,1
DA:158,1
DA:159,1
DA:160,1
DA:161,1
DA:162,1
DA:163,1
DA:164,1
DA:165,1
DA:166,1
DA:167,1
DA:168,1
DA:169,1
DA:170,1
DA:171,1
DA:172,1
DA:175,1
DA:176,1
DA:177,1
DA:178,1
DA:179,1
DA:180,1
DA:181,1
DA:182,1
DA:183,1
DA:184,1
DA:185,1
DA:186,1
DA:187,1
DA:188,1
DA:189,1
DA:190,1
DA:191,1
DA:192,1
DA:193,1
DA:194,1
DA:196,1
DA:197,1
DA:198,1
DA:201,1
DA:202,1
DA:203,1
DA:204,1
DA:205,1
DA:206,1
DA:207,1
DA:208,1
DA:209,1
DA:210,1
DA:211,1
DA:212,1
DA:213,1
DA:214,1
DA:215,1
DA:216,1
DA:217,1
DA:218,1
DA:221,1
DA:222,1
DA:223,1
DA:224,1
DA:225,1
DA:226,1
DA:227,1
DA:228,1
DA:229,1
DA:230,1
DA:231,1
DA:232,1
DA:233,1
DA:235,1
DA:236,1
DA:237,1
DA:239,1
DA:248,1
DA:249,1
DA:250,1
DA:251,1
DA:252,1
DA:253,1
DA:254,1
DA:255,1
DA:256,1
DA:257,1092
DA:258,1092
DA:259,1092
DA:260,1092
DA:261,1092
DA:262,1092
DA:263,1
BRF:0
BRH:0
LF:181
LH:178
end_of_record